
FreeRTOS.elf:     file format elf32-littlenios2
FreeRTOS.elf
architecture: nios2:r1, flags 0x00000112:
EXEC_P, HAS_SYMS, D_PAGED
start address 0x02000414

Program Header:
    LOAD off    0x00001000 vaddr 0x02000000 paddr 0x02000000 align 2**12
         filesz 0x00000020 memsz 0x00000020 flags r-x
    LOAD off    0x00001020 vaddr 0x02000020 paddr 0x02000020 align 2**12
         filesz 0x00043ab0 memsz 0x00043ab0 flags r-x
    LOAD off    0x00044ad0 vaddr 0x02043ad0 paddr 0x02045968 align 2**12
         filesz 0x00001e98 memsz 0x00001e98 flags rw-
    LOAD off    0x00047800 vaddr 0x02047800 paddr 0x02047800 align 2**12
         filesz 0x00000000 memsz 0x00122ea4 flags rw-

Sections:
Idx Name          Size      VMA       LMA       File off  Algn
  0 .entry        00000020  02000000  02000000  00001000  2**5
                  CONTENTS, ALLOC, LOAD, READONLY, CODE
  1 .exceptions   000003f4  02000020  02000020  00001020  2**2
                  CONTENTS, ALLOC, LOAD, READONLY, CODE
  2 .text         0004060c  02000414  02000414  00001414  2**2
                  CONTENTS, ALLOC, LOAD, READONLY, CODE
  3 .rodata       000030b0  02040a20  02040a20  00041a20  2**2
                  CONTENTS, ALLOC, LOAD, READONLY, DATA
  4 .rwdata       00001e98  02043ad0  02045968  00044ad0  2**2
                  CONTENTS, ALLOC, LOAD, DATA, SMALL_DATA
  5 .bss          00122f2a  02047800  02047800  00047800  2**2
                  ALLOC, SMALL_DATA
  6 .sdram_controller_0 00000000  0216a6a4  0216a6a4  00046968  2**0
                  CONTENTS
  7 .tse_descriptor_memory_0 00000000  04000000  04000000  00046968  2**0
                  CONTENTS
  8 .mem_0        00000000  05020000  05020000  00046968  2**0
                  CONTENTS
  9 .comment      00000023  00000000  00000000  00046968  2**0
                  CONTENTS, READONLY
 10 .debug_aranges 00001600  00000000  00000000  00046990  2**3
                  CONTENTS, READONLY, DEBUGGING
 11 .debug_info   0004a3d5  00000000  00000000  00047f90  2**0
                  CONTENTS, READONLY, DEBUGGING
 12 .debug_abbrev 0000f500  00000000  00000000  00092365  2**0
                  CONTENTS, READONLY, DEBUGGING
 13 .debug_line   00017e7a  00000000  00000000  000a1865  2**0
                  CONTENTS, READONLY, DEBUGGING
 14 .debug_frame  00008174  00000000  00000000  000b96e0  2**2
                  CONTENTS, READONLY, DEBUGGING
 15 .debug_str    0000a8a5  00000000  00000000  000c1854  2**0
                  CONTENTS, READONLY, DEBUGGING
 16 .debug_loc    0001cc6c  00000000  00000000  000cc0f9  2**0
                  CONTENTS, READONLY, DEBUGGING
 17 .debug_alt_sim_info 00000050  00000000  00000000  000e8d68  2**2
                  CONTENTS, READONLY, DEBUGGING
 18 .debug_ranges 00001bb0  00000000  00000000  000e8db8  2**3
                  CONTENTS, READONLY, DEBUGGING
 19 .thread_model 00000008  00000000  00000000  000f3f76  2**0
                  CONTENTS, READONLY
 20 .cpu          00000005  00000000  00000000  000f3f7e  2**0
                  CONTENTS, READONLY
 21 .qsys         00000001  00000000  00000000  000f3f83  2**0
                  CONTENTS, READONLY
 22 .simulation_enabled 00000001  00000000  00000000  000f3f84  2**0
                  CONTENTS, READONLY
 23 .stderr_dev   00000006  00000000  00000000  000f3f85  2**0
                  CONTENTS, READONLY
 24 .stdin_dev    00000006  00000000  00000000  000f3f8b  2**0
                  CONTENTS, READONLY
 25 .stdout_dev   00000006  00000000  00000000  000f3f91  2**0
                  CONTENTS, READONLY
 26 .sopc_system_name 00000004  00000000  00000000  000f3f97  2**0
                  CONTENTS, READONLY
 27 .quartus_project_dir 0000001c  00000000  00000000  000f3f9b  2**0
                  CONTENTS, READONLY
 28 .jdi          0000495a  00000000  00000000  000f3fb7  2**0
                  CONTENTS, READONLY
 29 .sopcinfo     0009cd38  00000000  00000000  000f8911  2**0
                  CONTENTS, READONLY
SYMBOL TABLE:
02000000 l    d  .entry	00000000 .entry
02000020 l    d  .exceptions	00000000 .exceptions
02000414 l    d  .text	00000000 .text
02040a20 l    d  .rodata	00000000 .rodata
02043ad0 l    d  .rwdata	00000000 .rwdata
02047800 l    d  .bss	00000000 .bss
0216a6a4 l    d  .sdram_controller_0	00000000 .sdram_controller_0
04000000 l    d  .tse_descriptor_memory_0	00000000 .tse_descriptor_memory_0
05020000 l    d  .mem_0	00000000 .mem_0
00000000 l    d  .comment	00000000 .comment
00000000 l    d  .debug_aranges	00000000 .debug_aranges
00000000 l    d  .debug_info	00000000 .debug_info
00000000 l    d  .debug_abbrev	00000000 .debug_abbrev
00000000 l    d  .debug_line	00000000 .debug_line
00000000 l    d  .debug_frame	00000000 .debug_frame
00000000 l    d  .debug_str	00000000 .debug_str
00000000 l    d  .debug_loc	00000000 .debug_loc
00000000 l    d  .debug_alt_sim_info	00000000 .debug_alt_sim_info
00000000 l    d  .debug_ranges	00000000 .debug_ranges
00000000 l    df *ABS*	00000000 ../FreeRTOS_bsp//obj/HAL/src/crt0.o
0200044c l       .text	00000000 alt_after_alt_main
00000000 l    df *ABS*	00000000 port_asm.o
02000020 l       .exceptions	00000000 save_context
0200009c l       .exceptions	00000000 save_sp_to_pxCurrentTCB
020000ac l       .exceptions	00000000 hw_irq_test
0200031c l       .exceptions	00000000 soft_exceptions
020000c0 l       .exceptions	00000000 hw_irq_handler
020000d4 l       .exceptions	00000000 restore_context
02000338 l       .exceptions	00000000 call_scheduler
00000000 l    df *ABS*	00000000 alt_irq_handler.c
00000000 l    df *ABS*	00000000 main.c
02047800 l     O .bss	00000004 nw_ready
02047804 l     O .bss	00000004 main_thread_handle
020004a8 l     F .text	000000b0 StatusCallback
02000558 l     F .text	00000044 LinkCallback
020005e4 l     F .text	000001cc WaitOnPHY
00000000 l    df *ABS*	00000000 printf.c
00000000 l    df *ABS*	00000000 vfprintf.c
02040f56 l     O .rodata	00000010 zeroes.4404
02002e00 l     F .text	000000bc __sbprintf
02040f66 l     O .rodata	00000010 blanks.4403
00000000 l    df *ABS*	00000000 wsetup.c
00000000 l    df *ABS*	00000000 dtoa.c
02003010 l     F .text	00000200 quorem
00000000 l    df *ABS*	00000000 fflush.c
00000000 l    df *ABS*	00000000 findfp.c
02004b40 l     F .text	00000008 __fp_unlock
02004b54 l     F .text	0000019c __sinit.part.1
02004cf0 l     F .text	00000008 __fp_lock
00000000 l    df *ABS*	00000000 mallocr.c
00000000 l    df *ABS*	00000000 fwalk.c
00000000 l    df *ABS*	00000000 impure.c
02043ad0 l     O .rwdata	00000424 impure_data
00000000 l    df *ABS*	00000000 locale.c
02043f14 l     O .rwdata	00000020 lc_ctype_charset
02043ef4 l     O .rwdata	00000020 lc_message_charset
02043f34 l     O .rwdata	00000038 lconv
00000000 l    df *ABS*	00000000 makebuf.c
00000000 l    df *ABS*	00000000 mallocr.c
00000000 l    df *ABS*	00000000 memchr.c
00000000 l    df *ABS*	00000000 memcpy.c
00000000 l    df *ABS*	00000000 memset.c
00000000 l    df *ABS*	00000000 mprec.c
02040f98 l     O .rodata	0000000c p05.2768
00000000 l    df *ABS*	00000000 s_fpclassify.c
00000000 l    df *ABS*	00000000 sbrkr.c
00000000 l    df *ABS*	00000000 stdio.c
00000000 l    df *ABS*	00000000 strcmp.c
00000000 l    df *ABS*	00000000 strlen.c
00000000 l    df *ABS*	00000000 vfprintf.c
02007608 l     F .text	000000fc __sprint_r.part.0
020410cc l     O .rodata	00000010 blanks.4348
020410bc l     O .rodata	00000010 zeroes.4349
02008b94 l     F .text	000000bc __sbprintf
00000000 l    df *ABS*	00000000 writer.c
00000000 l    df *ABS*	00000000 closer.c
00000000 l    df *ABS*	00000000 mallocr.c
00000000 l    df *ABS*	00000000 fclose.c
00000000 l    df *ABS*	00000000 fputwc.c
00000000 l    df *ABS*	00000000 fstatr.c
00000000 l    df *ABS*	00000000 fvwrite.c
00000000 l    df *ABS*	00000000 int_errno.c
00000000 l    df *ABS*	00000000 isattyr.c
00000000 l    df *ABS*	00000000 lseekr.c
00000000 l    df *ABS*	00000000 memmove.c
00000000 l    df *ABS*	00000000 readr.c
00000000 l    df *ABS*	00000000 mallocr.c
00000000 l    df *ABS*	00000000 wbuf.c
00000000 l    df *ABS*	00000000 wcrtomb.c
00000000 l    df *ABS*	00000000 wctomb_r.c
00000000 l    df *ABS*	00000000 libgcc2.c
00000000 l    df *ABS*	00000000 libgcc2.c
00000000 l    df *ABS*	00000000 lib2-divmod.c
00000000 l    df *ABS*	00000000 adddf3.c
00000000 l    df *ABS*	00000000 divdf3.c
00000000 l    df *ABS*	00000000 eqdf2.c
00000000 l    df *ABS*	00000000 gedf2.c
00000000 l    df *ABS*	00000000 ledf2.c
00000000 l    df *ABS*	00000000 muldf3.c
00000000 l    df *ABS*	00000000 subdf3.c
00000000 l    df *ABS*	00000000 fixdfsi.c
00000000 l    df *ABS*	00000000 floatsidf.c
00000000 l    df *ABS*	00000000 floatunsidf.c
00000000 l    df *ABS*	00000000 libgcc2.c
00000000 l    df *ABS*	00000000 libgcc2.c
00000000 l    df *ABS*	00000000 alt_main.c
00000000 l    df *ABS*	00000000 alt_malloc_lock.c
00000000 l    df *ABS*	00000000 queue.c
0200d744 l     F .text	00000090 prvInitialiseNewQueue
0200d7d4 l     F .text	00000060 prvInitialiseMutex
0200e73c l     F .text	0000018c prvCopyDataToQueue
0200eb20 l     F .text	00000068 prvIsQueueFull
0200e964 l     F .text	00000114 prvUnlockQueue
0200e8c8 l     F .text	0000009c prvCopyDataFromQueue
0200ea78 l     F .text	00000060 prvIsQueueEmpty
0200e6ec l     F .text	00000050 prvGetDisinheritPriorityAfterTimeout
00000000 l    df *ABS*	00000000 tasks.c
0204799c l     O .bss	00000064 pxReadyTasksLists
02047a00 l     O .bss	00000014 xDelayedTaskList1
02047a14 l     O .bss	00000014 xDelayedTaskList2
02047840 l     O .bss	00000004 pxDelayedTaskList
02047844 l     O .bss	00000004 pxOverflowDelayedTaskList
02047a28 l     O .bss	00000014 xPendingReadyList
02047a3c l     O .bss	00000014 xTasksWaitingTermination
02047848 l     O .bss	00000004 uxDeletedTasksWaitingCleanUp
02047a50 l     O .bss	00000014 xSuspendedTaskList
0204784c l     O .bss	00000004 uxCurrentNumberOfTasks
02047850 l     O .bss	00000004 xTickCount
02047854 l     O .bss	00000004 uxTopReadyPriority
02047858 l     O .bss	00000004 xSchedulerRunning
0204785c l     O .bss	00000004 xPendedTicks
02047860 l     O .bss	00000004 xYieldPending
02047864 l     O .bss	00000004 xNumOfOverflows
02047868 l     O .bss	00000004 uxTaskNumber
0204786c l     O .bss	00000004 xNextTaskUnblockTime
02047870 l     O .bss	00000004 xIdleTaskHandle
02047874 l     O .bss	00000004 uxSchedulerSuspended
0200ed80 l     F .text	000001e4 prvInitialiseNewTask
0200ef64 l     F .text	00000118 prvAddNewTaskToReadyList
02010620 l     F .text	000000b8 prvInitialiseTaskLists
02010aa8 l     F .text	00000044 prvDeleteTCB
02010aec l     F .text	00000054 prvResetNextTaskUnblockTime
02011804 l     F .text	000000e8 prvAddCurrentTaskToDelayedList
0200f764 l     F .text	0000006c prvTaskIsTaskSuspended
02010604 l     F .text	0000001c prvIdleTask
020108c0 l     F .text	00000128 prvListTasksWithinSingleList
020106d8 l     F .text	00000090 prvCheckTasksWaitingTermination
020109e8 l     F .text	00000064 prvTaskCheckFreeStackSpace
00000000 l    df *ABS*	00000000 timers.c
02047a64 l     O .bss	00000014 xActiveTimerList1
02047a78 l     O .bss	00000014 xActiveTimerList2
02047878 l     O .bss	00000004 pxCurrentTimerList
0204787c l     O .bss	00000004 pxOverflowTimerList
02047880 l     O .bss	00000004 xTimerQueue
02047884 l     O .bss	00000004 xTimerTaskHandle
020123b4 l     F .text	0000008c prvCheckForValidListAndQueue
02011ddc l     F .text	0000003c prvTimerTask
020119cc l     F .text	000000a4 prvInitialiseNewTimer
02011d04 l     F .text	000000d8 prvProcessExpiredTimer
02011fac l     F .text	000000dc prvInsertTimerInActiveList
02011ee0 l     F .text	00000068 prvGetNextExpireTime
02011e18 l     F .text	000000c8 prvProcessTimerOrBlockTask
02012088 l     F .text	00000218 prvProcessReceivedCommands
02011f48 l     F .text	00000064 prvSampleTimeNow
02047888 l     O .bss	00000004 xLastTime.2917
020122a0 l     F .text	00000114 prvSwitchTimerLists
00000000 l    df *ABS*	00000000 alt_dev.c
020125c0 l     F .text	0000002c alt_dev_null_write
00000000 l    df *ABS*	00000000 alt_do_ctors.c
00000000 l    df *ABS*	00000000 alt_do_dtors.c
00000000 l    df *ABS*	00000000 alt_fstat.c
020126ac l     F .text	0000003c alt_get_errno
00000000 l    df *ABS*	00000000 alt_io_redirect.c
02012798 l     F .text	000000c4 alt_open_fd
00000000 l    df *ABS*	00000000 alt_isatty.c
020128d8 l     F .text	0000003c alt_get_errno
00000000 l    df *ABS*	00000000 alt_load.c
020129b8 l     F .text	00000068 alt_load_section
00000000 l    df *ABS*	00000000 alt_lseek.c
02012aa4 l     F .text	0000003c alt_get_errno
00000000 l    df *ABS*	00000000 alt_open.c
02012bb4 l     F .text	0000003c alt_get_errno
02012bf0 l     F .text	000000c4 alt_file_locked
00000000 l    df *ABS*	00000000 alt_printf.c
00000000 l    df *ABS*	00000000 alt_putchar.c
00000000 l    df *ABS*	00000000 alt_release_fd.c
00000000 l    df *ABS*	00000000 alt_sbrk.c
0204591c l     O .rwdata	00000004 heap_end
00000000 l    df *ABS*	00000000 alt_lwip_close.c
00000000 l    df *ABS*	00000000 alt_lwip_read.c
00000000 l    df *ABS*	00000000 alt_lwip_write.c
00000000 l    df *ABS*	00000000 altera_tse_ethernetif.c
0201329c l     F .text	00000074 low_level_init
02013310 l     F .text	00000154 low_level_input
00000000 l    df *ABS*	00000000 lwip_main.c
02047890 l     O .bss	00000004 status_callback
02047894 l     O .bss	00000004 link_callback
020138b0 l     F .text	0000025c lwip_handle_interfaces
02013ea4 l     F .text	00000040 lwip_status_callback
02013d1c l     F .text	000000d0 lwip_handle_ethernet_input
02013c68 l     F .text	000000b4 lwip_check_link_status
00000000 l    df *ABS*	00000000 lwip_tse_mac.c
00000000 l    df *ABS*	00000000 sys_arch.c
00000000 l    df *ABS*	00000000 dhcp.c
020155dc l     F .text	00000058 dhcp_clear_assignment
02015634 l     F .text	00000054 dhcp_handle_nak
02017248 l     F .text	0000005c dhcp_set_state
0201675c l     F .text	000001a0 dhcp_discover
02015688 l     F .text	000000a0 dhcp_check
02015728 l     F .text	000000ec dhcp_handle_offer
02015814 l     F .text	00000260 dhcp_select
02018220 l     F .text	00000584 dhcp_create_msg
020172a4 l     F .text	0000009c dhcp_option
020173a0 l     F .text	00000098 dhcp_option_short
02017438 l     F .text	0000010c dhcp_option_long
02017340 l     F .text	00000060 dhcp_option_byte
02017544 l     F .text	000000dc dhcp_option_hostname
02018828 l     F .text	000000fc dhcp_option_trailer
020187a4 l     F .text	00000084 dhcp_delete_msg
02015de8 l     F .text	0000007c dhcp_t2_timeout
02015d6c l     F .text	0000007c dhcp_t1_timeout
02015bd4 l     F .text	00000198 dhcp_timeout
020168fc l     F .text	0000028c dhcp_bind
02016cec l     F .text	0000015c dhcp_rebind
02016e48 l     F .text	000001a4 dhcp_reboot
02015e64 l     F .text	00000218 dhcp_handle_ack
02017ec8 l     F .text	00000358 dhcp_recv
020165f8 l     F .text	00000164 dhcp_decline
02017620 l     F .text	000008a8 dhcp_parse_reply
02045920 l     O .rwdata	00000004 xid.3993
00000000 l    df *ABS*	00000000 ip_addr.c
02047a8c l     O .bss	00000010 str.3409
00000000 l    df *ABS*	00000000 mem.c
020478a8 l     O .bss	00000004 ram
020478ac l     O .bss	00000004 ram_end
020478b0 l     O .bss	00000004 lfree
020478b4 l     O .bss	00000004 mem_mutex
020190c0 l     F .text	00000128 plug_holes
00000000 l    df *ABS*	00000000 netif.c
020478b8 l     O .bss	00000001 netif_num
00000000 l    df *ABS*	00000000 pbuf.c
0201a25c l     F .text	00000088 pbuf_free_ooseq
0201a2e4 l     F .text	00000030 pbuf_free_ooseq_callback
0201a314 l     F .text	00000098 pbuf_pool_is_empty
00000000 l    df *ABS*	00000000 stats.c
00000000 l    df *ABS*	00000000 tcp.c
0204592c l     O .rwdata	00000002 tcp_port
020478c8 l     O .bss	00000001 tcp_timer
020478c9 l     O .bss	00000001 tcp_timer_ctr
0201b9bc l     F .text	0000034c tcp_close_shutdown
0201c5ec l     F .text	000000d8 tcp_new_port
0201c1bc l     F .text	00000030 tcp_accept_null
0201d5a8 l     F .text	000000d8 tcp_kill_prio
0201d680 l     F .text	00000094 tcp_kill_timewait
02045938 l     O .rwdata	00000004 iss.4104
00000000 l    df *ABS*	00000000 tcp_out.c
0201de00 l     F .text	000003e8 tcp_output_alloc_header
0201e330 l     F .text	000003a0 tcp_create_segment
0201e6d0 l     F .text	00000120 tcp_pbuf_prealloc
0201e7f0 l     F .text	000000b8 tcp_seg_add_chksum
0201e8a8 l     F .text	00000124 tcp_write_checks
0202022c l     F .text	00000600 tcp_output_segment
00000000 l    df *ABS*	00000000 timers.c
020478e4 l     O .bss	00000004 next_timeout
020478e8 l     O .bss	00000004 tcpip_tcp_timer_active
020214f8 l     F .text	0000005c tcpip_tcp_timer
020215b0 l     F .text	00000044 ip_reass_timer
020215f4 l     F .text	00000044 arp_timer
02021638 l     F .text	00000044 dhcp_timer_coarse
0202167c l     F .text	00000044 dhcp_timer_fine
00000000 l    df *ABS*	00000000 udp.c
0204593c l     O .rwdata	00000002 udp_port
02021adc l     F .text	0000009c udp_new_port
00000000 l    df *ABS*	00000000 etharp.c
02047a9c l     O .bss	000001f4 arp_table
02022b74 l     F .text	00000068 free_etharp_q
02022bdc l     F .text	0000009c etharp_free_entry
02022df4 l     F .text	00000318 etharp_find_entry
0202310c l     F .text	000000a4 etharp_send_ip
020231b0 l     F .text	000001c8 etharp_update_arp_entry
020234dc l     F .text	000000e8 etharp_ip_input
020235c4 l     F .text	0000038c etharp_arp_input
02023950 l     F .text	0000010c etharp_output_to_arp_index
020240fc l     F .text	0000024c etharp_raw
00000000 l    df *ABS*	00000000 alt_sys_init.c
02024604 l     F .text	00000034 alt_dev_reg
0204451c l     O .rwdata	00001068 jtag_uart_0
02045584 l     O .rwdata	00000030 sgdma_tse_rx_0
020455b4 l     O .rwdata	00000030 sgdma_tse_tx_0
020455e4 l     O .rwdata	000000cc uart_0
00000000 l    df *ABS*	00000000 altera_avalon_jtag_uart_fd.c
00000000 l    df *ABS*	00000000 altera_avalon_jtag_uart_init.c
020249c8 l     F .text	0000020c altera_avalon_jtag_uart_irq
02024bd4 l     F .text	000000a0 altera_avalon_jtag_uart_timeout
00000000 l    df *ABS*	00000000 altera_avalon_jtag_uart_ioctl.c
00000000 l    df *ABS*	00000000 altera_avalon_jtag_uart_read.c
00000000 l    df *ABS*	00000000 altera_avalon_jtag_uart_write.c
00000000 l    df *ABS*	00000000 altera_avalon_sgdma.c
02025284 l     F .text	0000003c alt_get_errno
02025eb4 l     F .text	000000bc alt_avalon_sgdma_irq
00000000 l    df *ABS*	00000000 altera_avalon_timer_sc.c
02026018 l     F .text	00000078 alt_avalon_timer_sc_irq
00000000 l    df *ABS*	00000000 altera_avalon_tse.c
020478f2 l     O .bss	00000001 tse_system_count.4134
020478f3 l     O .bss	00000001 is_init.4216
00000000 l    df *ABS*	00000000 altera_avalon_uart_fd.c
00000000 l    df *ABS*	00000000 altera_avalon_uart_init.c
0202b354 l     F .text	0000009c altera_avalon_uart_irq
0202b3f0 l     F .text	000000e4 altera_avalon_uart_rxirq
0202b4d4 l     F .text	00000148 altera_avalon_uart_txirq
00000000 l    df *ABS*	00000000 altera_avalon_uart_read.c
0202b670 l     F .text	0000003c alt_get_errno
00000000 l    df *ABS*	00000000 altera_avalon_uart_write.c
0202b8c4 l     F .text	0000003c alt_get_errno
00000000 l    df *ABS*	00000000 alt_env_lock.c
00000000 l    df *ABS*	00000000 heap_3.c
02047c90 l     O .bss	00100000 ucHeap
020478f8 l     O .bss	00000004 xNextFreeByte
020478fc l     O .bss	00000004 pucAlignedHeap.2611
00000000 l    df *ABS*	00000000 list.c
00000000 l    df *ABS*	00000000 port.c
0202bf5c l     F .text	0000002c prvReadGp
02047900 l     O .bss	00000004 lastContext
0202c14c l     F .text	0000009c prvSetupTimerInterrupt
00000000 l    df *ABS*	00000000 tse_ethernet_phys.c
00000000 l    df *ABS*	00000000 alt_alarm_start.c
00000000 l    df *ABS*	00000000 alt_close.c
0202c4d0 l     F .text	0000003c alt_get_errno
00000000 l    df *ABS*	00000000 alt_dcache_flush.c
00000000 l    df *ABS*	00000000 alt_dcache_flush_all.c
00000000 l    df *ABS*	00000000 alt_dev_llist_insert.c
0202c624 l     F .text	0000003c alt_get_errno
00000000 l    df *ABS*	00000000 alt_errno.c
00000000 l    df *ABS*	00000000 alt_find_dev.c
00000000 l    df *ABS*	00000000 alt_find_file.c
00000000 l    df *ABS*	00000000 alt_get_fd.c
00000000 l    df *ABS*	00000000 alt_gettod.c
00000000 l    df *ABS*	00000000 alt_icache_flush_all.c
00000000 l    df *ABS*	00000000 alt_iic.c
00000000 l    df *ABS*	00000000 alt_iic_isr_register.c
00000000 l    df *ABS*	00000000 alt_irq_vars.c
00000000 l    df *ABS*	00000000 alt_read.c
0202ce44 l     F .text	0000003c alt_get_errno
00000000 l    df *ABS*	00000000 alt_tick.c
00000000 l    df *ABS*	00000000 alt_uncached_malloc.c
00000000 l    df *ABS*	00000000 alt_usleep.c
00000000 l    df *ABS*	00000000 alt_write.c
0202d180 l     F .text	0000003c alt_get_errno
00000000 l    df *ABS*	00000000 altera_nios2_gen2_irq.c
00000000 l    df *ABS*	00000000 sockets.c
02147c90 l     O .bss	000003f0 sockets
02047920 l     O .bss	00000004 select_cb_list
02047924 l     O .bss	00000004 select_cb_ctr
02043508 l     O .rodata	00000040 err_to_errno_table
0202d2f8 l     F .text	00000078 get_socket
0202d370 l     F .text	00000080 tryget_socket
0202d3f0 l     F .text	000001a0 alloc_socket
0202d590 l     F .text	00000098 free_socket
0202f034 l     F .text	000003ac event_callback
0202e7d4 l     F .text	00000380 lwip_selscan
0202f554 l     F .text	00000114 lwip_getaddrname
0202f9b4 l     F .text	000003fc lwip_getsockopt_internal
02030044 l     F .text	00000338 lwip_setsockopt_internal
00000000 l    df *ABS*	00000000 tcpip.c
02047928 l     O .bss	00000004 tcpip_init_done
0204792c l     O .bss	00000004 tcpip_init_done_arg
02047930 l     O .bss	00000004 mbox
02030564 l     F .text	000001c0 tcpip_thread
02030b9c l     F .text	0000003c pbuf_free_int
00000000 l    df *ABS*	00000000 init.c
00000000 l    df *ABS*	00000000 icmp.c
02031328 l     F .text	000001e0 icmp_send_response
00000000 l    df *ABS*	00000000 inet_chksum.c
02031508 l     F .text	00000234 lwip_standard_chksum
00000000 l    df *ABS*	00000000 ip.c
02047934 l     O .bss	00000002 ip_id
00000000 l    df *ABS*	00000000 ip_frag.c
02047948 l     O .bss	00000004 reassdatagrams
0204794c l     O .bss	00000002 ip_reass_pbufcount
02032bb8 l     F .text	00000190 ip_reass_free_complete_datagram
02032fb4 l     F .text	00000068 ip_reass_dequeue_datagram
02032d48 l     F .text	00000190 ip_reass_remove_oldest_datagram
02032ed8 l     F .text	000000dc ip_reass_enqueue_new_datagram
0203301c l     F .text	00000700 ip_reass_chain_frag_into_datagram_and_validate
02033d28 l     F .text	0000002c ip_frag_alloc_pbuf_custom_ref
02033d54 l     F .text	00000038 ip_frag_free_pbuf_custom_ref
02033d8c l     F .text	00000058 ipfrag_free_pbuf_custom
00000000 l    df *ABS*	00000000 memp.c
02148080 l     O .bss	0000003c memp_tab
020435fc l     O .rodata	0000001e memp_sizes
0204361a l     O .rodata	0000001e memp_num
021480bc l     O .bss	0001a16f memp_memory
00000000 l    df *ABS*	00000000 raw.c
02047950 l     O .bss	00000004 raw_pcbs
00000000 l    df *ABS*	00000000 tcp_in.c
0216222c l     O .bss	00000014 inseg
02047954 l     O .bss	00000004 tcphdr
02047958 l     O .bss	00000004 iphdr
0204795c l     O .bss	00000004 seqno
02047960 l     O .bss	00000004 ackno
02047964 l     O .bss	00000001 flags
02047966 l     O .bss	00000002 tcplen
02047968 l     O .bss	00000001 recv_flags
0204796c l     O .bss	00000004 recv_data
02035d38 l     F .text	0000013c tcp_timewait_input
02035a50 l     F .text	000002e8 tcp_listen_input
02035e74 l     F .text	00000ab4 tcp_process
02038bbc l     F .text	00000228 tcp_parseopt
02036bc8 l     F .text	00001ff4 tcp_receive
02036928 l     F .text	000002a0 tcp_oos_insert_segment
00000000 l    df *ABS*	00000000 alt_busy_sleep.c
00000000 l    df *ABS*	00000000 alt_icache_flush.c
00000000 l    df *ABS*	00000000 api_lib.c
02039754 l     F .text	00000294 netconn_recv_data
02039f70 l     F .text	000000cc netconn_close_shutdown
00000000 l    df *ABS*	00000000 api_msg.c
0203a0dc l     F .text	00000170 recv_raw
0203a24c l     F .text	0000012c recv_udp
0203a378 l     F .text	00000140 recv_tcp
0203a4b8 l     F .text	000000fc poll_tcp
0203be88 l     F .text	0000030c do_writemore
0203af50 l     F .text	00000290 do_close_internal
0203a5b4 l     F .text	000000fc sent_tcp
0203a6b0 l     F .text	000001b4 err_tcp
0203a864 l     F .text	00000088 setup_tcp
0203a8ec l     F .text	00000168 accept_function
0203aa54 l     F .text	000001a4 pcb_new
0203add4 l     F .text	0000017c netconn_drain
0203b524 l     F .text	00000154 do_connected
00000000 l    df *ABS*	00000000 netbuf.c
00000000 l    df *ABS*	00000000 atexit.c
00000000 l    df *ABS*	00000000 exit.c
00000000 l    df *ABS*	00000000 malloc.c
00000000 l    df *ABS*	00000000 memcmp.c
00000000 l    df *ABS*	00000000 putc.c
00000000 l    df *ABS*	00000000 puts.c
00000000 l    df *ABS*	00000000 snprintf.c
00000000 l    df *ABS*	00000000 strcpy.c
00000000 l    df *ABS*	00000000 vfprintf.c
02043a90 l     O .rodata	00000010 zeroes.4389
02043aa0 l     O .rodata	00000010 blanks.4388
00000000 l    df *ABS*	00000000 __atexit.c
00000000 l    df *ABS*	00000000 __call_atexit.c
00000000 l    df *ABS*	00000000 vfprintf.c
02043ac0 l     O .rodata	00000010 blanks.4332
02043ab0 l     O .rodata	00000010 zeroes.4333
00000000 l    df *ABS*	00000000 libgcc2.c
00000000 l    df *ABS*	00000000 alt_exit.c
0202d2d8 g     F .text	00000020 lwip_socket_init
0203b3b4 g     F .text	00000170 do_bind
02047938 g     O .bss	00000004 current_iphdr_src
02031b74 g     F .text	00000044 inet_chksum
02034814 g     F .text	00000048 raw_bind
02007118 g     F .text	00000074 _mprec_log10
0203371c g     F .text	0000060c ip_reass
02027384 g     F .text	000000d8 alt_tse_get_mac_info
0201a858 g     F .text	00000160 pbuf_realloc
02007204 g     F .text	0000008c __any_on
020095ec g     F .text	00000054 _isatty_r
02040fa4 g     O .rodata	00000028 __mprec_tinytens
0200d40c g     F .text	000000d8 alt_main
0203d084 g     F .text	00000090 strcpy
0201dd08 g     F .text	00000030 tcp_next_iss
0203cdf4 g     F .text	000000c0 _puts_r
0216a5a4 g     O .bss	00000100 alt_irq
0201c454 g     F .text	000000f0 tcp_update_rcv_ann_wnd
02009640 g     F .text	00000060 _lseek_r
020000c4 g       .exceptions	00000000 restore_sp_from_pxCurrentTCB
02010144 g     F .text	00000064 vTaskPlaceOnUnorderedEventList
0202bca0 g     F .text	0000002c xPortGetFreeHeapSize
020478bc g     O .bss	00000004 netif_list
020160c8 g     F .text	00000050 dhcp_cleanup
0202af80 g     F .text	000000f0 marvell_cfg_rgmii
02045968 g       *ABS*	00000000 __flash_rwdata_start
0202bfd8 g     F .text	0000003c enh_alt_irq_enable_all
02013dec g     F .text	000000b8 print_ipad
0200bef8 g     F .text	00000088 .hidden __eqdf2
0202082c g     F .text	000003cc tcp_rst
0201b7c4 g     F .text	000000c8 pbuf_memfind
02028574 g     F .text	00000210 alt_tse_phy_print_profile
0216a6a4 g       *ABS*	00000000 __alt_heap_start
0202ad20 g     F .text	00000098 marvell_phy_cfg
0200f3e0 g     F .text	00000068 uxTaskPriorityGet
02011954 g     F .text	00000078 xTimerCreate
02024348 g     F .text	00000074 etharp_request
0202214c g     F .text	00000074 udp_send_chksum
0203ad84 g     F .text	00000050 netconn_free
02000bb0 g     F .text	0000003c printf
02016118 g     F .text	000001ec dhcp_start
020253e4 g     F .text	00000110 alt_avalon_sgdma_do_sync_transfer
02009f18 g     F .text	0000009c _wcrtomb_r
0201d9dc g     F .text	00000034 tcp_err
02045924 g     O .rwdata	00000004 ip_addr_any
0203173c g     F .text	00000200 inet_chksum_pseudo
020164b0 g     F .text	000000a8 dhcp_network_changed
02007430 g     F .text	0000005c __sseek
02022a7c g     F .text	000000a0 udp_remove
02004e90 g     F .text	00000010 __sinit
02010768 g     F .text	00000158 vTaskGetInfo
02009dc0 g     F .text	00000140 __swbuf_r
0200ebd8 g     F .text	000000c8 vQueueWaitForMessageRestricted
02032348 g     F .text	0000064c ip_output_if
0200549c g     F .text	0000007c _setlocale_r
02004cf8 g     F .text	00000068 __sfmoreglue
02034600 g     F .text	000000e8 memp_free
0200d544 g     F .text	00000044 __malloc_unlock
02013bc0 g     F .text	00000034 lwip_set_status_callback
0201ab68 g     F .text	00000144 pbuf_free
0201d974 g     F .text	00000034 tcp_recv
0203b1e0 g     F .text	000001d4 do_delconn
020275c8 g     F .text	00000a7c getPHYSpeed
0201ad5c g     F .text	000000d4 pbuf_cat
02000940 g     F .text	000000b8 get_ip_addr
02025afc g     F .text	000003b8 alt_avalon_sgdma_construct_descriptor_burst
0202dd98 g     F .text	000004d8 lwip_recvfrom
020096a0 g     F .text	0000015c memmove
02032994 g     F .text	000000b4 ip_output
02023378 g     F .text	000000a4 etharp_cleanup_netif
020221c0 g     F .text	00000058 udp_sendto
02010f30 g     F .text	00000048 vTaskEnterCritical
02013824 g     F .text	0000008c lwip_wait_for_an
02004e78 g     F .text	00000018 _cleanup
0203cfa0 g     F .text	000000e4 snprintf
0200dbf8 g     F .text	000000f4 xQueueGenericSendFromISR
0200fc58 g     F .text	00000040 pcTaskGetName
02006294 g     F .text	000000a8 _Balloc
02018ab4 g     F .text	00000044 ipaddr_addr
0202107c g     F .text	00000194 tcp_keepalive
02022c78 g     F .text	0000017c etharp_tmr
02029f84 g     F .text	000001c4 alt_tse_phy_set_adv_1000
0203c624 g     F .text	00000074 netbuf_delete
02045954 g     O .rwdata	00000001 max_mac_system
0201d714 g     F .text	00000200 tcp_alloc
02026638 g     F .text	000009fc alt_tse_system_add_sys
0200bf80 g     F .text	000000dc .hidden __gtdf2
0202d2b4 g     F .text	00000024 altera_nios2_gen2_irq_init
0203c698 g     F .text	000000c8 netbuf_alloc
02030a3c g     F .text	00000070 tcpip_callbackmsg_new
020222d0 g     F .text	00000060 udp_sendto_if
02000000 g     F .entry	0000001c __reset
0200d890 g     F .text	00000090 xQueueGiveMutexRecursive
0203a070 g     F .text	0000006c netconn_shutdown
0201d940 g     F .text	00000034 tcp_arg
0204783c g     O .bss	00000004 pxCurrentTCB
020216c0 g     F .text	00000078 sys_timeouts_init
020478ca g     O .bss	00000001 tcp_active_pcbs_changed
02013c28  w    F .text	00000040 lwip_is_interface_up
020151b0 g     F .text	00000058 sys_mutex_free
020478cc g     O .bss	00000004 tcp_active_pcbs
0202564c g     F .text	00000078 alt_avalon_sgdma_construct_stream_to_mem_desc_burst
0201a220 g     F .text	0000003c netif_set_link_callback
02000020 g       *ABS*	00000000 __flash_exceptions_start
020478ec g     O .bss	00000004 udp_pcbs
020090d4 g     F .text	0000005c _fstat_r
020456b0 g     O .rwdata	00000240 tse_mac_device
02047828 g     O .bss	00000004 errno
020243bc g     F .text	00000248 ethernet_input
0201bd64 g     F .text	000000f0 tcp_shutdown
020073ac g     F .text	00000008 __seofread
02039c04 g     F .text	00000080 netconn_recved
0203f754 g     F .text	0000123c ___svfiprintf_internal_r
0202a86c g     F .text	000004b4 alt_tse_phy_set_common_speed
0201acf8 g     F .text	00000064 pbuf_ref
0200d3cc  w    F .text	00000020 pre_constructors
0216a564 g     O .bss	00000020 pmac_groups
02019ef0 g     F .text	00000048 netif_set_netmask
02015398 g     F .text	00000060 sys_mbox_trypost
02047830 g     O .bss	00000004 alt_argv
0204d8f0 g       *ABS*	00000000 _gp
0201d52c g     F .text	0000007c tcp_recv_null
0202d150 g     F .text	00000030 usleep
0204793c g     O .bss	00000004 current_netif
0203a03c g     F .text	00000034 netconn_close
0201f2fc g     F .text	000002e8 tcp_enqueue_flags
0203c5b0 g     F .text	00000074 netbuf_new
0200f494 g     F .text	000001b4 vTaskPrioritySet
02047838 g     O .bss	00000004 alt_heapsem
02010424 g     F .text	0000003c vTaskInternalSetTimeOutState
0201bd08 g     F .text	0000005c tcp_close
0201c544 g     F .text	000000a8 tcp_recved
0202d120 g     F .text	00000030 alt_uncached_malloc
0201da8c g     F .text	00000170 tcp_pcb_purge
0202613c g     F .text	00000060 tse_mac_initTransInfo2
02013710 g     F .text	00000114 lwip_initialize
0204439c g     O .rwdata	00000180 alt_fd_list
020393d4 g     F .text	000000bc netconn_disconnect
02018ef0 g     F .text	0000003c ipaddr_ntoa
02000a30 g     F .text	00000048 get_iface_name
0204592e g     O .rwdata	00000007 tcp_persist_backoff
0202c0f4 g     F .text	00000038 xPortStartScheduler
0201177c g     F .text	00000088 ulTaskNotifyValueClear
0200fa1c g     F .text	00000034 vTaskEndScheduler
0202c704 g     F .text	00000090 alt_find_dev
02006024 g     F .text	00000148 memcpy
020192a0 g     F .text	0000010c mem_free
020263b0 g     F .text	00000054 tse_mac_setMIImode
020100f4 g     F .text	00000050 vTaskPlaceOnEventList
0201b4e8 g     F .text	0000010c pbuf_fill_chksum
02010300 g     F .text	000000c8 vTaskRemoveFromUnorderedEventList
020478d0 g     O .bss	00000004 tcp_ticks
020478d4 g     O .bss	00000004 tcp_listen_pcbs
02028044 g     F .text	00000048 alt_tse_phy_rd_mdio_addr
02022330 g     F .text	00000454 udp_sendto_if_chksum
02020bf8 g     F .text	000000b4 tcp_rexmit_rto
02004b48 g     F .text	0000000c _cleanup_r
0200d1e4 g     F .text	000000dc .hidden __floatsidf
0202619c g     F .text	000000e4 tse_mac_sTxWrite
0201285c g     F .text	0000007c alt_io_redirect
0201d914 g     F .text	0000002c tcp_new
0200c05c g     F .text	000000f4 .hidden __ltdf2
0200e4c4 g     F .text	0000007c xQueuePeekFromISR
020229e8 g     F .text	00000050 udp_disconnect
0201b16c g     F .text	0000019c pbuf_copy_partial
02014d88 g     F .text	00000020 sys_init
02014f38 g     F .text	00000048 sys_sem_signal
02040a20 g       *ABS*	00000000 __DTOR_END__
0200d3ec  w    F .text	00000020 post_constructors
0202c50c g     F .text	000000d0 alt_close
02021738 g     F .text	0000017c sys_timeout
0203ceb4 g     F .text	00000014 puts
0202bc58 g     F .text	00000024 vPortFree
02011cd4 g     F .text	00000030 pcTimerGetName
02016fec g     F .text	000001a4 dhcp_release
02007290 g     F .text	00000074 __fpclassifyd
020416d4 g     O .rodata	0000002c tcp_state_str
02007074 g     F .text	000000a4 __ratio
02034a70 g     F .text	00000044 raw_send
02031bb8 g     F .text	0000010c inet_chksum_pbuf
02008b78 g     F .text	0000001c __vfiprintf_internal
0201b308 g     F .text	00000154 pbuf_take
0200dfa0 g     F .text	00000260 xQueueSemaphoreTake
02025744 g     F .text	0000008c alt_avalon_sgdma_construct_mem_to_stream_desc_burst
0200e668 g     F .text	00000028 uxQueueGetQueueNumber
02024dcc g     F .text	00000258 altera_avalon_jtag_uart_read
0203cbe8 g     F .text	00000014 malloc
02000b80 g     F .text	00000030 _printf_r
02047940 g     O .bss	00000004 current_iphdr_dest
0200aca8 g     F .text	00000064 .hidden __udivsi3
02162284 g     O .bss	00000024 tse
02012914 g     F .text	000000a4 isatty
02027034 g     F .text	00000168 alt_tse_sys_enable_mdio_sharing
02030c9c g     F .text	000005fc icmp_input
02040ff4 g     O .rodata	000000c8 __mprec_tens
02027304 g     F .text	00000080 alt_tse_get_mac_info_index
02010a4c g     F .text	0000005c uxTaskGetStackHighWaterMark
02019a7c g     F .text	000000f0 netif_add
02005518 g     F .text	0000000c __locale_charset
02030ae4 g     F .text	00000044 tcpip_trycallback
02047904 g     O .bss	00000008 alt_timezone
0201505c g     F .text	000000c0 sys_mutex_new
0201d3dc g     F .text	00000054 tcp_segs_free
0202bd60 g     F .text	0000008c vListInsertEnd
02038f3c g     F .text	00000090 alt_icache_flush
0202e30c g     F .text	00000144 lwip_send
02047824 g     O .bss	00000004 __malloc_top_pad
0204788c g     O .bss	00000004 alt_fd_list_lock
02047808 g     O .bss	00000004 PingIp
020458f8 g     O .rwdata	00000004 __mb_cur_max
02005548 g     F .text	0000000c _localeconv_r
02030aac g     F .text	00000038 tcpip_callbackmsg_delete
02032a48 g     F .text	000000d0 ip_output_hinted
02019d80 g     F .text	00000128 netif_set_ipaddr
02009130 g     F .text	000004bc __sfvwrite_r
020066a0 g     F .text	0000003c __i2b
0202587c g     F .text	0000005c alt_avalon_sgdma_stop
020280e4 g     F .text	00000128 alt_tse_phy_wr_mdio_reg
02007304 g     F .text	00000054 _sbrk_r
02028784 g     F .text	000006a4 alt_tse_mac_group_init
0201e9cc g     F .text	00000930 tcp_write
020140d4 g     F .text	0000084c tse_mac_init
0200f8ac g     F .text	000000e0 xTaskResumeFromISR
0202341c g     F .text	000000c0 etharp_find_addr
020153f8 g     F .text	00000100 sys_arch_mbox_fetch
0202f3e0 g     F .text	00000174 lwip_shutdown
02013b78 g     F .text	00000048 get_netif
020097fc g     F .text	00000060 _read_r
0202bd34 g     F .text	0000002c vListInitialiseItem
0202c5dc g     F .text	00000028 alt_dcache_flush
02045918 g     O .rwdata	00000004 alt_max_fd
0202c1e8 g     F .text	0000004c vPortSysTickHandler
02008dc8 g     F .text	000000f0 _fclose_r
0200ddc8 g     F .text	000001d8 xQueueReceive
0201bfec g     F .text	000001d0 tcp_bind
02004b10 g     F .text	00000030 fflush
02047820 g     O .bss	00000004 __malloc_max_sbrked_mem
020312e0 g     F .text	00000048 icmp_time_exceeded
0201bfb4 g     F .text	00000038 tcp_abort
0200f448 g     F .text	0000004c uxTaskPriorityGetFromISR
0203955c g     F .text	000001f8 netconn_accept
0202c234 g     F .text	00000170 alt_irq_register
02033de4 g     F .text	0000048c ip_frag
0200ad64 g     F .text	000008ac .hidden __adddf3
0202dc88 g     F .text	00000110 lwip_listen
02011c2c g     F .text	00000070 uxTimerGetReloadMode
02006e1c g     F .text	0000010c __b2d
0200a678 g     F .text	00000538 .hidden __umoddi3
02012ae0 g     F .text	000000d4 lseek
020348e8 g     F .text	00000188 raw_sendto
020282d8 g     F .text	0000029c alt_tse_phy_add_profile_default
020299f0 g     F .text	00000594 alt_tse_phy_get_cap
02000000 g       *ABS*	00000000 __alt_mem_sdram_controller_0
02011b6c g     F .text	00000030 xTimerGetPeriod
020458f0 g     O .rwdata	00000004 _global_impure_ptr
0203c480 g     F .text	00000130 do_close
0202ce80 g     F .text	000000fc alt_read
0200985c g     F .text	00000564 _realloc_r
0216a6a4 g       *ABS*	00000000 __bss_end
0202cd54 g     F .text	000000f0 alt_iic_isr_register
020252c0 g     F .text	00000124 alt_avalon_sgdma_do_async_transfer
0202d018 g     F .text	00000108 alt_tick
0202d92c g     F .text	00000154 lwip_bind
0200a100 g     F .text	00000578 .hidden __udivdi3
02017190 g     F .text	000000b8 dhcp_stop
02009030 g     F .text	00000024 _fputwc_r
02029890 g     F .text	00000160 alt_tse_phy_check_link
02040fcc g     O .rodata	00000028 __mprec_bigtens
02006484 g     F .text	00000104 __s2b
0202f668 g     F .text	00000044 lwip_getpeername
0200d2c0 g     F .text	000000a8 .hidden __floatunsidf
0202ae9c g     F .text	000000e4 marvell_cfg_sgmii
0201af10 g     F .text	0000025c pbuf_copy
020296d4 g     F .text	000001bc alt_tse_phy_restart_an
02020cac g     F .text	000002a8 tcp_rexmit
02006b5c g     F .text	00000060 __mcmp
0202bb8c g     F .text	000000cc pvPortMalloc
0202b1f8 g     F .text	0000015c altera_avalon_uart_init
0203c9a4 g     F .text	000000f4 netbuf_data
02004eb0 g     F .text	00000018 __fp_lock_all
020390e8 g     F .text	0000013c netconn_getaddr
0202cd08 g     F .text	0000004c alt_ic_irq_enabled
0216a584 g     O .bss	00000020 pphy_profiles
0200e62c g     F .text	0000003c vQueueDelete
0202c12c g     F .text	00000020 vPortEndScheduler
02019f64 g     F .text	000000b0 netif_set_up
0202bccc g     F .text	00000068 vListInitialise
0202cf7c g     F .text	0000009c alt_alarm_stop
02013bf4 g     F .text	00000034 lwip_set_link_callback
02047914 g     O .bss	00000004 alt_irq_active
0202e648 g     F .text	00000148 lwip_socket
02041710 g     O .rodata	00000010 tcp_pcb_lists
02030b28 g     F .text	00000074 tcpip_init
02000348 g     F .exceptions	000000cc alt_irq_handler
02044374 g     O .rwdata	00000028 alt_dev_null
0200fbe4 g     F .text	00000028 xTaskGetTickCount
0200da14 g     F .text	000001e4 xQueueGenericSend
02000a78 g     F .text	00000024 is_interface_active
020189f0 g     F .text	000000c4 ip4_addr_netmask_valid
020478d8 g     O .bss	00000004 tcp_tmp_pcb
020392fc g     F .text	000000d8 netconn_connect
020295bc g     F .text	00000118 alt_tse_phy_init
020258d8 g     F .text	00000064 alt_avalon_sgdma_check_descriptor_status
00000000 g       .debug_aranges	00000000 alt_exception_muldiv
02039c84 g     F .text	00000080 netconn_sendto
0202c604 g     F .text	00000020 alt_dcache_flush_all
02006588 g     F .text	00000068 __hi0bits
0200fc98 g     F .text	00000188 uxTaskGetSystemState
02014a58 g     F .text	00000160 tse_mac_raw_send
0200d164 g     F .text	00000080 .hidden __fixdfsi
020149c4 g     F .text	00000094 tse_sgdma_rx_isr
02010cf4 g     F .text	000000fc xTaskPriorityDisinherit
020191e8 g     F .text	000000b8 mem_init
0202d1bc g     F .text	000000f8 alt_write
0202db0c g     F .text	0000017c lwip_connect
0201e1e8 g     F .text	00000148 tcp_send_fin
02045968 g       *ABS*	00000000 __ram_rwdata_end
0201f780 g     F .text	00000aac tcp_output
02047898 g     O .bss	00000004 tx_counter
02045910 g     O .rwdata	00000008 alt_dev_list
020193ac g     F .text	00000308 mem_trim
02013238 g     F .text	00000064 write
02025a1c g     F .text	00000080 alt_avalon_sgdma_enable_desc_poll
0203cc8c g     F .text	000000a0 _putc_r
0201020c g     F .text	000000f4 xTaskRemoveFromEventList
02000450 g     F .text	00000028 vApplicationMallocFailedHook
02043ad0 g       *ABS*	00000000 __ram_rodata_end
0203c760 g     F .text	0000008c netbuf_free
020126e8 g     F .text	000000b0 fstat
02039490 g     F .text	000000cc netconn_listen_with_backlog
02047970 g     O .bss	00000004 tcp_input_pcb
020346e8 g     F .text	0000012c raw_input
0200c05c g     F .text	000000f4 .hidden __ledf2
0202b070 g     F .text	00000078 DP83848C_link_status_read
0201f5e4 g     F .text	0000019c tcp_send_empty_ack
0200e200 g     F .text	000001e0 xQueuePeek
02020f54 g     F .text	00000128 tcp_rexmit_fast
02014dfc g     F .text	000000e4 sys_sem_new
020068d4 g     F .text	00000140 __pow5mult
0200771c g     F .text	0000145c ___vfiprintf_internal_r
02047818 g     O .bss	00000004 __nlocale_changed
02030940 g     F .text	0000008c tcpip_untimeout
0200ad0c g     F .text	00000058 .hidden __umodsi3
02018af8 g     F .text	000003f8 ipaddr_aton
02018924 g     F .text	000000cc ip4_addr_isbroadcast
02019f38 g     F .text	0000002c netif_set_default
02022a38 g     F .text	00000044 udp_recv
020256c4 g     F .text	00000080 alt_avalon_sgdma_construct_mem_to_stream_desc
020257d0 g     F .text	00000054 alt_avalon_sgdma_register_callback
0216a6a4 g       *ABS*	00000000 end
0200f07c g     F .text	000000f8 vTaskDelete
020219a8 g     F .text	00000114 sys_timeouts_mbox_fetch
0201a014 g     F .text	00000094 netif_set_down
0204789c g     O .bss	00000004 rx_counter
0201a3ac g     F .text	0000036c pbuf_alloc
0201a0e4 g     F .text	000000c4 netif_set_link_up
020152d8 g     F .text	00000070 sys_mbox_free
0202b900 g     F .text	000001e8 altera_avalon_uart_write
02026454 g     F .text	000001e4 alt_tse_phy_add_profile
02024880 g     F .text	00000148 altera_avalon_jtag_uart_init
02011018 g     F .text	00000038 pvTaskIncrementMutexHeldCount
02040a20 g       *ABS*	00000000 __CTOR_LIST__
04000000 g       *ABS*	00000000 __alt_stack_pointer
02039088 g     F .text	00000060 netconn_delete
02025a9c g     F .text	00000060 alt_avalon_sgdma_disable_desc_poll
02026090 g     F .text	0000007c alt_avalon_timer_sc_init
0202b148 g     F .text	00000060 altera_avalon_uart_write_fd
0200d368 g     F .text	00000064 .hidden __clzsi2
0203cec8 g     F .text	000000d8 _snprintf_r
0202b1a8 g     F .text	00000050 altera_avalon_uart_close_fd
0203ca98 g     F .text	0000009c netbuf_next
02025024 g     F .text	00000260 altera_avalon_jtag_uart_write
020254f4 g     F .text	00000074 alt_avalon_sgdma_construct_mem_to_mem_desc
0203cb34 g     F .text	00000068 netbuf_first
02004ea0 g     F .text	00000004 __sfp_lock_acquire
02005f40 g     F .text	000000e4 memchr
02045928 g     O .rwdata	00000004 ip_addr_broadcast
02000bec g     F .text	000021f8 ___vfprintf_internal_r
0202e450 g     F .text	000001f8 lwip_sendto
02032b18 g     F .text	000000a0 ip_reass_tmr
02010460 g     F .text	000000f0 xTaskCheckForTimeOut
020255ec g     F .text	00000060 alt_avalon_sgdma_construct_stream_to_mem_desc
02005004 g     F .text	00000310 _free_r
02012e08 g     F .text	0000022c alt_printf
02010bb4 g     F .text	00000140 xTaskPriorityInherit
02012564 g     F .text	00000028 uxTimerGetTimerNumber
02005524 g     F .text	00000010 __locale_mb_cur_max
020228e0 g     F .text	00000108 udp_connect
0203f404 g     F .text	00000180 __call_exitprocs
0203ac58 g     F .text	0000012c netconn_alloc
02047944 g     O .bss	00000004 current_header
0202eb54 g     F .text	000004e0 lwip_select
0202e270 g     F .text	0000004c lwip_read
020478a4 g     O .bss	00000004 rx_faulty_packets
02047814 g     O .bss	00000004 __mlocale_changed
02014bb8 g     F .text	000001d0 tse_mac_rcv
02011050 g     F .text	000000d0 ulTaskNotifyTake
02019b6c g     F .text	0000005c netif_set_addr
02016558 g     F .text	000000a0 dhcp_arp_reply
020458fc g     O .rwdata	00000004 __malloc_sbrk_base
02000414 g     F .text	0000003c _start
02047918 g     O .bss	00000004 _alt_tick_rate
0200fa50 g     F .text	0000002c vTaskSuspendAll
0200f2c0 g     F .text	00000120 eTaskGetState
0201b88c g     F .text	000000a4 pbuf_strstr
0202593c g     F .text	00000054 alt_avalon_sgdma_open
0200fc0c g     F .text	0000002c xTaskGetTickCountFromISR
02000824 g     F .text	0000011c get_mac_addr
02034434 g     F .text	000001cc memp_malloc
02006a14 g     F .text	00000148 __lshift
02021210 g     F .text	000002e8 tcp_zero_window_probe
0204791c g     O .bss	00000004 _alt_nticks
0202820c g     F .text	000000cc alt_tse_phy_rd_mdio_reg
020131cc g     F .text	0000006c read
0203c194 g     F .text	00000114 do_write
02024670 g     F .text	000000ac alt_sys_init
0203f584 g     F .text	000001d0 __ssprint_r
02015b1c g     F .text	000000b8 dhcp_fine_tmr
021622a8 g     O .bss	0000000a dhcp_rx_options_given
0202bec4 g     F .text	00000098 uxListRemove
0203f2ec g     F .text	00000118 __register_exitproc
020478f0 g     O .bss	00000001 phy_profile_count
02027290 g     F .text	00000074 alt_tse_get_mac_group_index
02018f2c g     F .text	00000194 ipaddr_ntoa_r
020066dc g     F .text	000001f8 __multiply
02024c74 g     F .text	00000068 altera_avalon_jtag_uart_close
02043ad0 g       *ABS*	00000000 __ram_rwdata_start
02040a20 g       *ABS*	00000000 __ram_rodata_start
02047974 g     O .bss	00000028 __malloc_current_mallinfo
020116f4 g     F .text	00000088 xTaskNotifyStateClear
020478dc g     O .bss	00000004 tcp_bound_pcbs
0200f7d0 g     F .text	000000dc vTaskResume
02006f28 g     F .text	0000014c __d2b
02014ee0 g     F .text	00000058 sys_sem_free
0201d430 g     F .text	0000005c tcp_seg_free
0201001c g     F .text	000000d8 vTaskSwitchContext
0201b6a4 g     F .text	00000120 pbuf_memcmp
02011b9c g     F .text	00000090 vTimerSetReloadMode
02030c14 g     F .text	0000003c mem_free_callback
0202808c g     F .text	00000058 alt_tse_phy_wr_mdio_addr
0202471c g     F .text	00000060 altera_avalon_jtag_uart_read_fd
0202c89c g     F .text	000000e0 alt_get_fd
020101a8 g     F .text	00000064 vTaskPlaceOnEventListRestricted
0203c2a8 g     F .text	000001d8 do_getaddr
02038de4 g     F .text	00000158 alt_busy_sleep
0203c8e4 g     F .text	000000c0 netbuf_chain
0201b950 g     F .text	00000020 tcp_init
0201c6c4 g     F .text	00000398 tcp_connect
0203193c g     F .text	00000238 inet_chksum_pseudo_partial
02008cb0 g     F .text	00000054 _close_r
020196b4 g     F .text	00000330 mem_malloc
02011120 g     F .text	00000114 xTaskNotifyWait
0202a544 g     F .text	00000328 alt_tse_phy_get_common_speed
0203cc10 g     F .text	0000007c memcmp
020247dc g     F .text	00000050 altera_avalon_jtag_uart_close_fd
0216a6a4 g       *ABS*	00000000 __alt_stack_base
0202482c g     F .text	00000054 altera_avalon_jtag_uart_ioctl_fd
020478f1 g     O .bss	00000001 mac_group_count
0201a1a8 g     F .text	00000078 netif_set_link_down
02016b88 g     F .text	00000164 dhcp_renew
02011a70 g     F .text	000000dc xTimerGenericCommand
020105c0 g     F .text	00000044 vTaskSetTaskNumber
0203b8c4 g     F .text	00000084 do_disconnect
02002ebc g     F .text	00000154 __swsetup_r
02000478 g     F .text	00000030 vApplicationStackOverflowHook
02014920 g     F .text	000000a4 tse_sgdma_read_init
0200f648 g     F .text	0000011c vTaskSuspend
0200b610 g     F .text	000008e8 .hidden __divdf3
02004d60 g     F .text	00000118 __sfp
0200fe20 g     F .text	0000004c xTaskCatchUpTicks
0200718c g     F .text	00000078 __copybits
0200fc38 g     F .text	00000020 uxTaskGetNumberOfTasks
0201dd38 g     F .text	0000008c tcp_eff_send_mss
02043f6c g     O .rwdata	00000408 __malloc_av_
02004eac g     F .text	00000004 __sinit_lock_release
0200c150 g     F .text	00000718 .hidden __muldf3
02162240 g     O .bss	00000044 eth_tse
02007358 g     F .text	00000054 __sread
02028e28 g     F .text	00000424 alt_tse_mac_get_phy
0202c794 g     F .text	00000108 alt_find_file
0202fdb0 g     F .text	00000294 lwip_setsockopt
0202c660 g     F .text	000000a4 alt_dev_llist_insert
0200d4e4 g     F .text	00000060 __malloc_lock
020130d4 g     F .text	000000b0 sbrk
0203d114 g     F .text	000021d8 ___svfprintf_internal_r
0200d920 g     F .text	0000009c xQueueTakeMutexRecursive
02025824 g     F .text	00000058 alt_avalon_sgdma_start
02016304 g     F .text	000001ac dhcp_inform
020308a4 g     F .text	0000009c tcpip_timeout
02004ab4 g     F .text	0000005c _fflush_r
0202753c g     F .text	0000008c alt_tse_mac_set_duplex
02008d04 g     F .text	000000c4 _calloc_r
0203485c g     F .text	00000048 raw_connect
020399e8 g     F .text	00000074 netconn_recv_tcp_pbuf
02011234 g     F .text	000001bc xTaskGenericNotify
0202c97c g     F .text	000001f4 gettimeofday
02015208 g     F .text	000000d0 sys_mbox_new
02013ee4 g     F .text	000001f0 lwip_initialize_phys
02047800 g       *ABS*	00000000 __bss_start
02010578 g     F .text	00000048 uxTaskGetTaskNumber
0200616c g     F .text	00000128 memset
02000a9c g     F .text	00000040 main
02047834 g     O .bss	00000004 alt_envp
0204781c g     O .bss	00000004 __malloc_max_total_mem
0202477c g     F .text	00000060 altera_avalon_jtag_uart_write_fd
02009f00 g     F .text	00000018 __swbuf
0202bdec g     F .text	000000d8 vListInsert
02031298 g     F .text	00000048 icmp_dest_unreach
0204594c g     O .rwdata	00000008 alt_sgdma_list
0201d9a8 g     F .text	00000034 tcp_sent
0200748c g     F .text	00000008 __sclose
0201b5f4 g     F .text	000000b0 pbuf_get_at
04000000 g       *ABS*	00000000 __alt_heap_limit
05020000 g       *ABS*	00000000 __alt_mem_mem_0
02008eb8 g     F .text	00000014 fclose
020118ec g     F .text	00000068 xTimerCreateTimerTask
02003210 g     F .text	00001688 _dtoa_r
02034b54 g     F .text	00000080 raw_new
02005734 g     F .text	0000080c _malloc_r
02026328 g     F .text	00000088 tse_mac_SwReset
0200a074 g     F .text	00000030 __ascii_wctomb
0202f6ac g     F .text	00000044 lwip_getsockname
0200e6c4 g     F .text	00000028 ucQueueGetQueueType
02013464 g     F .text	000000fc ethernetif_input
02045958 g     O .rwdata	00000004 alt_errno
0200f174 g     F .text	000000f0 vTaskDelayUntil
02030bd8 g     F .text	0000003c pbuf_free_callback
0202bb48 g     F .text	00000044 __env_unlock
0201a0a8 g     F .text	0000003c netif_set_status_callback
02005314 g     F .text	000000c4 _fwalk
02039d04 g     F .text	000000c8 netconn_send
0200e3e0 g     F .text	000000e4 xQueueReceiveFromISR
02038fcc g     F .text	000000bc netconn_new_with_proto_and_callback
02010b40 g     F .text	00000028 xTaskGetCurrentTaskHandle
02039dcc g     F .text	000001a4 netconn_write_partly
0203cd2c g     F .text	000000c8 putc
0200abb0 g     F .text	00000084 .hidden __divsi3
020271dc g     F .text	00000048 alt_tse_mac_set_common_speed
02034ab4 g     F .text	000000a0 raw_remove
0200d6ac g     F .text	00000098 xQueueGenericCreate
02004ee0 g     F .text	00000124 _malloc_trim_r
02040a20 g       *ABS*	00000000 __CTOR_END__
02013b2c g     F .text	0000004c get_mac_base
020478c4 g     O .bss	00000001 pbuf_free_ooseq_pending
02022784 g     F .text	0000015c udp_bind
0201b970 g     F .text	0000004c tcp_tmr
02023d48 g     F .text	000003b4 etharp_query
02007494 g     F .text	000000dc strcmp
02030c50 g     F .text	0000004c lwip_init
0200d9bc g     F .text	00000058 xQueueCreateCountingSemaphore
02040a20 g       *ABS*	00000000 __flash_rodata_start
02015560 g     F .text	0000007c sys_thread_new
02040a20 g       *ABS*	00000000 __DTOR_LIST__
02023a5c g     F .text	000002ec etharp_output
02022218 g     F .text	000000b8 udp_sendto_chksum
020113f0 g     F .text	000001e4 xTaskGenericNotifyFromISR
0200bef8 g     F .text	00000088 .hidden __nedf2
0200e690 g     F .text	00000034 vQueueSetQueueNumber
02024638 g     F .text	00000038 alt_irq_init
0202719c g     F .text	00000040 alt_tse_mac_get_common_speed
02013070 g     F .text	00000064 alt_release_fd
0200fa7c g     F .text	00000168 xTaskResumeAll
020309cc g     F .text	00000070 tcpip_apimsg
0201a718 g     F .text	00000140 pbuf_alloced_custom
0200e590 g     F .text	00000064 uxQueueSpacesAvailable
02019ea8 g     F .text	00000048 netif_set_gw
020410dc g     O .rodata	00000100 .hidden __clz_tab
0200f98c g     F .text	00000090 vTaskStartScheduler
0201acac g     F .text	0000004c pbuf_clen
02047810 g     O .bss	00000004 _PathLocale
0203cb9c g     F .text	00000014 atexit
02013b0c g     F .text	00000020 get_mac_count
02008c50 g     F .text	00000060 _write_r
0201d48c g     F .text	00000038 tcp_setprio
020220f8 g     F .text	00000054 udp_send
0202f6f0 g     F .text	000002c4 lwip_getsockopt
02005554 g     F .text	00000018 setlocale
0200eb88 g     F .text	00000050 xQueueIsQueueFullFromISR
0201b45c g     F .text	0000008c pbuf_coalesce
020348a4 g     F .text	00000044 raw_recv
020124b0 g     F .text	00000058 pvTimerGetTimerID
02015168 g     F .text	00000048 sys_mutex_unlock
02000adc g     F .text	000000a4 main_thread
02019bc8 g     F .text	000000d8 netif_remove
0201511c g     F .text	0000004c sys_mutex_lock
02014f80 g     F .text	000000dc sys_arch_sem_wait
020458f4 g     O .rwdata	00000004 _impure_ptr
0204782c g     O .bss	00000004 alt_argc
0201ca5c g     F .text	00000738 tcp_slowtmr
02011c9c g     F .text	00000038 xTimerGetExpiryTime
02004898 g     F .text	0000021c __sflush_r
0201264c g     F .text	00000060 _do_dtors
02005540 g     F .text	00000008 __locale_cjk_lang
02006db8 g     F .text	00000064 __ulp
0201da10 g     F .text	00000034 tcp_accept
02004ec8 g     F .text	00000018 __fp_unlock_all
0203b948 g     F .text	00000200 do_listen
02010550 g     F .text	00000028 vTaskMissedYield
02013560 g     F .text	000001b0 ethernetif_init
02045908 g     O .rwdata	00000008 alt_fs_list
0200e540 g     F .text	00000050 uxQueueMessagesWaiting
0204790c g     O .bss	00000008 alt_resettime
0200fe6c g     F .text	000001b0 xTaskIncrementTick
02000020 g       *ABS*	00000000 __ram_exceptions_start
0200556c g     F .text	0000000c localeconv
02030724 g     F .text	000000b0 tcpip_input
020478e0 g     O .bss	00000004 tcp_tw_pcbs
0202a39c g     F .text	000001a8 alt_tse_phy_set_adv_10
0200059c g     F .text	00000048 InitNetwork
0202cba4 g     F .text	00000050 alt_ic_isr_register
02014da8 g     F .text	00000054 sys_now
02021b78 g     F .text	00000580 udp_input
0200d588 g     F .text	00000124 xQueueGenericReset
02012508 g     F .text	0000005c vTimerSetTimerID
02045968 g       *ABS*	00000000 _edata
0202b0e8 g     F .text	00000060 altera_avalon_uart_read_fd
0216a6a4 g       *ABS*	00000000 _end
0202924c g     F .text	00000248 alt_tse_mac_associate_phy
02019a5c g     F .text	00000020 netif_init
02008ecc g     F .text	00000164 __fputwc
02000414 g       *ABS*	00000000 __ram_exceptions_end
02024cdc g     F .text	000000f0 altera_avalon_jtag_uart_ioctl
02031d1c g     F .text	000000f0 ip_route
0201c1ec g     F .text	00000268 tcp_listen_with_backlog
0216a2f0 g     O .bss	00000274 lwip_stats
0200eca0 g     F .text	000000e0 xTaskCreate
0203bd8c g     F .text	000000fc do_recv
0202bc7c g     F .text	00000024 vPortInitialiseBlocks
0201a9b8 g     F .text	000001b0 pbuf_header
02012440 g     F .text	00000070 xTimerIsTimerActive
020478c0 g     O .bss	00000004 netif_default
0202cc7c g     F .text	0000008c alt_ic_irq_disable
0201dbfc g     F .text	0000010c tcp_pcb_remove
0204780c g     O .bss	00000004 lwipStaticIp
020478a0 g     O .bss	00000004 rx_missed_packets
02025990 g     F .text	0000008c alt_avalon_sgdma_construct_descriptor
020073b4 g     F .text	0000007c __swrite
02031cc4 g     F .text	00000058 lwip_chksum_copy
02045900 g     O .rwdata	00000004 __malloc_trim_threshold
0201ae30 g     F .text	00000044 pbuf_chain
02005534 g     F .text	0000000c __locale_msgcharset
0201be54 g     F .text	00000160 tcp_abandon
0203cbb0 g     F .text	00000038 exit
0201ddc4 g     F .text	0000003c tcp_debug_state_str
02021554 g     F .text	0000005c tcp_timer_needed
020053d8 g     F .text	000000c4 _fwalk_reent
02034270 g     F .text	000001c4 memp_init
0201607c g     F .text	0000004c dhcp_set_struct
020199e4 g     F .text	00000078 mem_calloc
02006bbc g     F .text	000001fc __mdiff
0201d194 g     F .text	000000f8 tcp_fasttmr
0200ac34 g     F .text	00000074 .hidden __modsi3
0201d28c g     F .text	00000150 tcp_process_refused_data
02026404 g     F .text	00000050 tse_mac_setGMIImode
0200f264 g     F .text	0000005c vTaskDelay
0202adb8 g     F .text	000000e4 marvell_cfg_gmii
04000000 g       *ABS*	00000000 __alt_data_end
02004ea4 g     F .text	00000004 __sfp_lock_release
02039224 g     F .text	000000d8 netconn_bind
0202e790 g     F .text	00000044 lwip_write
02029494 g     F .text	00000128 alt_tse_phy_cfg_pcs
021622b4 g     O .bss	00000028 dhcp_rx_options_val
04000000 g       *ABS*	00000000 __alt_mem_tse_descriptor_memory_0
02010b68 g     F .text	0000004c xTaskGetSchedulerState
0202e2bc g     F .text	00000050 lwip_recv
02010df0 g     F .text	00000140 vTaskPriorityDisinheritAfterTimeout
0202b61c g     F .text	00000054 altera_avalon_uart_close
0203037c g     F .text	000000e4 lwip_ioctl
020409f0 g     F .text	00000030 _exit
02015a74 g     F .text	000000a8 dhcp_coarse_tmr
0202c3a4 g     F .text	0000012c alt_alarm_start
0201d4c4 g     F .text	00000068 tcp_seg_copy
02040990 g     F .text	00000060 .hidden __muldi3
02005578 g     F .text	000001bc __smakebuf_r
02010f78 g     F .text	0000005c vTaskExitCritical
0201da44 g     F .text	00000048 tcp_poll
02007570 g     F .text	00000098 strlen
0202c014 g     F .text	000000e0 pxPortInitialiseStack
02030460 g     F .text	00000104 lwip_fcntl
02012cb4 g     F .text	00000154 open
02021abc g     F .text	00000020 udp_init
021622dc g     O .bss	00008014 ram_heap
0200bf80 g     F .text	000000dc .hidden __gedf2
02022b1c g     F .text	00000058 udp_new
02013034 g     F .text	0000003c alt_putchar
02045904 g     O .rwdata	00000004 __wctomb
0202da80 g     F .text	0000008c lwip_close
0202bf88 g     F .text	00000050 enh_alt_irq_disable_all
02007704 g     F .text	00000018 __sprint_r
02026280 g     F .text	000000a8 tse_mac_aRxRead
0202cb70 g     F .text	00000034 alt_icache_flush_all
0203c7ec g     F .text	000000f8 netbuf_ref
0204593e g     O .rwdata	00000006 ethbroadcast
020103c8 g     F .text	0000005c vTaskSetTimeOutState
02011b4c g     F .text	00000020 xTimerGetTimerDaemonTaskHandle
02041700 g     O .rodata	0000000d tcp_backoff
0201258c g     F .text	00000034 vTimerSetTimerNumber
0204595c g     O .rwdata	00000004 alt_priority_mask
020154f8 g     F .text	00000068 sys_arch_mbox_tryfetch
0202cbf4 g     F .text	00000088 alt_ic_irq_enable
02002de4 g     F .text	0000001c __vfprintf_internal
0202d628 g     F .text	00000304 lwip_accept
0202b6ac g     F .text	00000218 altera_avalon_uart_read
0200e5f4 g     F .text	00000038 uxQueueMessagesWaitingFromISR
0200a0a4 g     F .text	0000005c _wctomb_r
0202bae8 g     F .text	00000060 __env_lock
02039a5c g     F .text	000001a8 netconn_recv
0200ead8 g     F .text	00000048 xQueueIsQueueEmptyFromISR
0203abf8 g     F .text	00000060 do_newconn
0202745c g     F .text	000000e0 alt_tse_mac_set_speed
02015348 g     F .text	00000050 sys_mbox_post
02025568 g     F .text	00000084 alt_avalon_sgdma_construct_mem_to_mem_desc_burst
0200c868 g     F .text	000008fc .hidden __subdf3
020065f0 g     F .text	000000b0 __lo0bits
0203b678 g     F .text	0000024c do_connect
02045960 g     O .rwdata	00000008 alt_alarm_list
020125ec g     F .text	00000060 _do_ctors
0202a148 g     F .text	00000254 alt_tse_phy_set_adv_100
02010fd4 g     F .text	00000044 uxTaskResetEventItemValue
020218b4 g     F .text	000000f4 sys_untimeout
02009fb4 g     F .text	000000c0 wcrtomb
02034bd4 g     F .text	00000e7c tcp_input
0200d834 g     F .text	0000005c xQueueCreateMutex
02013184 g     F .text	00000048 close
020478f4 g     O .bss	00000004 alt_envsem
02031e0c g     F .text	0000053c ip_input
020115d4 g     F .text	00000120 vTaskNotifyGiveFromISR
020009f8 g     F .text	00000038 get_hostname
0203bb48 g     F .text	00000244 do_send
02012a20 g     F .text	00000084 alt_load
02045944 g     O .rwdata	00000006 ethzero
0201b930 g     F .text	00000020 stats_init
02027224 g     F .text	0000006c alt_tse_get_system_index
02025f70 g     F .text	000000a8 alt_avalon_sgdma_init
0200dcec g     F .text	000000dc xQueueGiveFromISR
02009054 g     F .text	00000080 fputwc
0203cbfc g     F .text	00000014 free
02019ca0 g     F .text	000000e0 netif_find
02004ea8 g     F .text	00000004 __sinit_lock_acquire
020007b0 g     F .text	00000074 xEthernetRun
02006364 g     F .text	00000120 __multadd
020307d4 g     F .text	000000d0 tcpip_callback_with_block
0200633c g     F .text	00000028 _Bfree
0202610c g     F .text	00000030 no_printf
0201ae74 g     F .text	0000009c pbuf_dechain



Disassembly of section .entry:

02000000 <__reset>:
#if NIOS2_ICACHE_SIZE > 0 && defined(ALT_ALLOW_CODE_AT_RESET) && (!defined(ALT_SIM_OPTIMIZE) || defined(NIOS2_ECC_PRESENT))
    /* Assume the instruction cache size is always a power of two. */
#if NIOS2_ICACHE_SIZE > 0x8000
    movhi r2, %hi(NIOS2_ICACHE_SIZE)
#else
    movui r2, NIOS2_ICACHE_SIZE
 2000000:	00900014 	movui	r2,16384
#endif

0:
    initi r2
 2000004:	1001483a 	initi	r2
    addi r2, r2, -NIOS2_ICACHE_LINE_SIZE
 2000008:	10bff804 	addi	r2,r2,-32
    bgt r2, zero, 0b
 200000c:	00bffd16 	blt	zero,r2,2000004 <__alt_mem_mem_0+0xfcfe0004>
 * Jump to the _start entry point in the .text section if reset code
 * is allowed or if optimizing for RTL simulation.
 */
#if defined(ALT_ALLOW_CODE_AT_RESET) || defined(ALT_SIM_OPTIMIZE)
    /* Jump to the _start entry point in the .text section. */
    movhi r1, %hi(_start)
 2000010:	00408034 	movhi	at,512
    ori r1, r1, %lo(_start)
 2000014:	08410514 	ori	at,at,1044
    jmp r1
 2000018:	0800683a 	jmp	at
 200001c:	00000000 	call	0 <alt_exception_muldiv>

Disassembly of section .exceptions:

02000020 <save_context>:
# Entry point for exceptions.
.section .exceptions.entry, "xa"		

# Save the entire context of a task.
save_context:
	addi	ea, ea, -4			# Point to the next instruction.
 2000020:	ef7fff04 	addi	ea,ea,-4
	addi	sp,	sp, -116		# Create space on the stack.
 2000024:	deffe304 	addi	sp,sp,-116
	stw		ra, 0(sp)
 2000028:	dfc00015 	stw	ra,0(sp)
								# Leave a gap for muldiv 0
	stw		at, 8(sp)		 
 200002c:	d8400215 	stw	at,8(sp)
	stw		r2, 12(sp)
 2000030:	d8800315 	stw	r2,12(sp)
	stw		r3, 16(sp)
 2000034:	d8c00415 	stw	r3,16(sp)
	stw		r4, 20(sp)
 2000038:	d9000515 	stw	r4,20(sp)
	stw		r5, 24(sp) 
 200003c:	d9400615 	stw	r5,24(sp)
	stw		r6, 28(sp) 
 2000040:	d9800715 	stw	r6,28(sp)
	stw		r7, 32(sp) 
 2000044:	d9c00815 	stw	r7,32(sp)
	stw		r8, 36(sp) 
 2000048:	da000915 	stw	r8,36(sp)
	stw		r9, 40(sp) 
 200004c:	da400a15 	stw	r9,40(sp)
	stw		r10, 44(sp)
 2000050:	da800b15 	stw	r10,44(sp)
	stw		r11, 48(sp)
 2000054:	dac00c15 	stw	r11,48(sp)
	stw		r12, 52(sp)
 2000058:	db000d15 	stw	r12,52(sp)
	stw		r13, 56(sp)
 200005c:	db400e15 	stw	r13,56(sp)
	stw		r14, 60(sp)
 2000060:	db800f15 	stw	r14,60(sp)
	stw		r15, 64(sp)
 2000064:	dbc01015 	stw	r15,64(sp)
	rdctl	r5, estatus 		# Save the eStatus
 2000068:	000b307a 	rdctl	r5,estatus
	stw		r5, 68(sp)
 200006c:	d9401115 	stw	r5,68(sp)
	stw		ea, 72(sp)			# Save the PC
 2000070:	df401215 	stw	ea,72(sp)
	stw		r16, 76(sp)			# Save the remaining registers
 2000074:	dc001315 	stw	r16,76(sp)
	stw		r17, 80(sp)
 2000078:	dc401415 	stw	r17,80(sp)
	stw		r18, 84(sp)
 200007c:	dc801515 	stw	r18,84(sp)
	stw		r19, 88(sp)
 2000080:	dcc01615 	stw	r19,88(sp)
	stw		r20, 92(sp)
 2000084:	dd001715 	stw	r20,92(sp)
	stw		r21, 96(sp)
 2000088:	dd401815 	stw	r21,96(sp)
	stw		r22, 100(sp)
 200008c:	dd801915 	stw	r22,100(sp)
	stw		r23, 104(sp)
 2000090:	ddc01a15 	stw	r23,104(sp)
	stw		gp, 108(sp)
 2000094:	de801b15 	stw	gp,108(sp)
	stw		fp, 112(sp)
 2000098:	df001c15 	stw	fp,112(sp)

0200009c <save_sp_to_pxCurrentTCB>:
 200009c:	06008134 	movhi	et,516

save_sp_to_pxCurrentTCB:
	movia	et, pxCurrentTCB	# Load the address of the pxCurrentTCB pointer
 20000a0:	c61e0f04 	addi	et,et,30780
	ldw		et, (et)			# Load the value of the pxCurrentTCB pointer
 20000a4:	c6000017 	ldw	et,0(et)
	stw		sp, (et)			# Store the stack pointer into the top of the TCB
 20000a8:	c6c00015 	stw	sp,0(et)

020000ac <hw_irq_test>:
hw_irq_test:
	/*
     * Test to see if the exception was a software exception or caused 
     * by an external interrupt, and vector accordingly.
     */
    rdctl	r4, ipending		# Load the Pending Interrupts indication
 20000ac:	0009313a 	rdctl	r4,ipending
	rdctl	r5, estatus 		# Load the eStatus (enabled interrupts).
 20000b0:	000b307a 	rdctl	r5,estatus
    andi	r2, r5, 1			# Are interrupts enabled globally.
 20000b4:	2880004c 	andi	r2,r5,1
    beq		r2, zero, soft_exceptions		# Interrupts are not enabled.
 20000b8:	10009826 	beq	r2,zero,200031c <soft_exceptions>
    beq		r4, zero, soft_exceptions		# There are no interrupts triggered.
 20000bc:	20009726 	beq	r4,zero,200031c <soft_exceptions>

020000c0 <hw_irq_handler>:

	.section .exceptions.irqhandler, "xa"
hw_irq_handler:
	call	alt_irq_handler					# Call the alt_irq_handler to deliver to the registered interrupt handler.
 20000c0:	20003480 	call	2000348 <alt_irq_handler>

020000c4 <restore_sp_from_pxCurrentTCB>:
 20000c4:	06008134 	movhi	et,516

    .section .exceptions.irqreturn, "xa"
restore_sp_from_pxCurrentTCB:
	movia	et, pxCurrentTCB		# Load the address of the pxCurrentTCB pointer
 20000c8:	c61e0f04 	addi	et,et,30780
	ldw		et, (et)				# Load the value of the pxCurrentTCB pointer
 20000cc:	c6000017 	ldw	et,0(et)
	ldw		sp, (et)				# Load the stack pointer with the top value of the TCB
 20000d0:	c6c00017 	ldw	sp,0(et)

020000d4 <restore_context>:

restore_context:
	ldw		ra, 0(sp)		# Restore the registers.
 20000d4:	dfc00017 	ldw	ra,0(sp)
							# Leave a gap for muldiv 0.
	ldw		at, 8(sp)
 20000d8:	d8400217 	ldw	at,8(sp)
	ldw		r2, 12(sp)
 20000dc:	d8800317 	ldw	r2,12(sp)
	ldw		r3, 16(sp)
 20000e0:	d8c00417 	ldw	r3,16(sp)
	ldw		r4, 20(sp)
 20000e4:	d9000517 	ldw	r4,20(sp)
	ldw		r5, 24(sp) 
 20000e8:	d9400617 	ldw	r5,24(sp)
	ldw		r6, 28(sp) 
 20000ec:	d9800717 	ldw	r6,28(sp)
	ldw		r7, 32(sp) 
 20000f0:	d9c00817 	ldw	r7,32(sp)
	ldw		r8, 36(sp) 
 20000f4:	da000917 	ldw	r8,36(sp)
	ldw		r9, 40(sp) 
 20000f8:	da400a17 	ldw	r9,40(sp)
	ldw		r10, 44(sp)
 20000fc:	da800b17 	ldw	r10,44(sp)
	ldw		r11, 48(sp)
 2000100:	dac00c17 	ldw	r11,48(sp)
	ldw		r12, 52(sp)
 2000104:	db000d17 	ldw	r12,52(sp)
	ldw		r13, 56(sp)
 2000108:	db400e17 	ldw	r13,56(sp)
	ldw		r14, 60(sp)
 200010c:	db800f17 	ldw	r14,60(sp)
	ldw		r15, 64(sp)
 2000110:	dbc01017 	ldw	r15,64(sp)
	ldw		et, 68(sp)		# Load the eStatus
 2000114:	de001117 	ldw	et,68(sp)
	wrctl	estatus, et 	# Write the eStatus
 2000118:	c001707a 	wrctl	estatus,et
	ldw		ea, 72(sp)		# Load the Program Counter
 200011c:	df401217 	ldw	ea,72(sp)
	ldw		r16, 76(sp)
 2000120:	dc001317 	ldw	r16,76(sp)
	ldw		r17, 80(sp)
 2000124:	dc401417 	ldw	r17,80(sp)
	ldw		r18, 84(sp)
 2000128:	dc801517 	ldw	r18,84(sp)
	ldw		r19, 88(sp)
 200012c:	dcc01617 	ldw	r19,88(sp)
	ldw		r20, 92(sp)
 2000130:	dd001717 	ldw	r20,92(sp)
	ldw		r21, 96(sp)
 2000134:	dd401817 	ldw	r21,96(sp)
	ldw		r22, 100(sp)
 2000138:	dd801917 	ldw	r22,100(sp)
	ldw		r23, 104(sp)
 200013c:	ddc01a17 	ldw	r23,104(sp)
	ldw		gp, 108(sp)
 2000140:	de801b17 	ldw	gp,108(sp)
	ldw		fp, 112(sp)
 2000144:	df001c17 	ldw	fp,112(sp)
	addi	sp,	sp, 116		# Release stack space
 2000148:	dec01d04 	addi	sp,sp,116

    eret					# Return to address ea, loading eStatus into Status.
 200014c:	ef80083a 	eret
        /*
         * Split the instruction into its fields.  We need 4*A, 4*B, and 4*C as
         * offsets to the stack pointer for access to the stored register values.
         */
                             /* r2 = AAAAA,BBBBB,IIIIIIIIIIIIIIII,PPPPPP    */
        roli  r3, r2, 7      /* r3 = BBB,IIIIIIIIIIIIIIII,PPPPPP,AAAAA,BB   */
 2000150:	100611fa 	roli	r3,r2,7
        roli  r4, r3, 3      /* r4 = IIIIIIIIIIIIIIII,PPPPPP,AAAAA,BBBBB    */
 2000154:	180810fa 	roli	r4,r3,3
        roli  r6, r4, 2      /* r6 = IIIIIIIIIIIIII,PPPPPP,AAAAA,BBBBB,II   */
 2000158:	200c10ba 	roli	r6,r4,2
        srai  r4, r4, 16     /* r4 = (sign-extended) IMM16                  */
 200015c:	2009d43a 	srai	r4,r4,16
        xori  r6, r6, 0x42   /* r6 = CCC,XXXXXX,NNNNN,PPPPPP,AAAAA,bBBBB,cC */
 2000160:	3180109c 	xori	r6,r6,66
        roli  r7, r6, 5      /* r7 = XXXX,NNNNN,PPPPPP,AAAAA,bBBBB,cCCCC,XX */
 2000164:	300e117a 	roli	r7,r6,5
        andi  r5, r2, 0x3f   /* r5 = 00000000000000000000000000,PPPPPP      */
 2000168:	11400fcc 	andi	r5,r2,63
        xori  r3, r3, 0x40
 200016c:	18c0101c 	xori	r3,r3,64
        andi  r3, r3, 0x7c   /* r3 = 0000000000000000000000000,aAAAA,00     */
 2000170:	18c01f0c 	andi	r3,r3,124
        andi  r6, r6, 0x7c   /* r6 = 0000000000000000000000000,bBBBB,00     */
 2000174:	31801f0c 	andi	r6,r6,124
        andi  r7, r7, 0x7c   /* r7 = 0000000000000000000000000,cCCCC,00     */
 2000178:	39c01f0c 	andi	r7,r7,124
         * Save everything on the stack to make it easy for the emulation routines
         * to retrieve the source register operands.  The exception entry code has
         * already saved some of this so we don't need to do it all again.
         */

        addi  sp, sp, -60
 200017c:	defff104 	addi	sp,sp,-60
        stw   zero, 64(sp)   /* Save zero on stack to avoid special case for r0. */
 2000180:	d8001015 	stw	zero,64(sp)
                             /* Register at and r2-r15 have already been saved.  */

        stw   r16,  0(sp)
 2000184:	dc000015 	stw	r16,0(sp)
        stw   r17,  4(sp)
 2000188:	dc400115 	stw	r17,4(sp)
        stw   r18,  8(sp)
 200018c:	dc800215 	stw	r18,8(sp)
        stw   r19, 12(sp)
 2000190:	dcc00315 	stw	r19,12(sp)
        stw   r20, 16(sp)
 2000194:	dd000415 	stw	r20,16(sp)
        stw   r21, 20(sp)
 2000198:	dd400515 	stw	r21,20(sp)
        stw   r22, 24(sp)
 200019c:	dd800615 	stw	r22,24(sp)
        stw   r23, 28(sp)
 20001a0:	ddc00715 	stw	r23,28(sp)
                            /* et @ 32 - Has already been changed.*/
                            /* bt @ 36 - Usually isn't an operand.   */
        stw   gp,  40(sp)
 20001a4:	de800a15 	stw	gp,40(sp)
        stw   sp,  44(sp)
 20001a8:	dec00b15 	stw	sp,44(sp)
        stw   fp,  48(sp)
 20001ac:	df000c15 	stw	fp,48(sp)

        /*
         *  Prepare for either multiplication or division loop.
         *  They both loop 32 times.
         */
        movi   r14, 32
 20001b0:	03800804 	movi	r14,32
         * Get the operands.
         *
         * It is necessary to check for muli because it uses an I-type instruction
         * format, while the other instructions are have an R-type format.
         */
        add    r3, r3, sp     /* r3 = address of A-operand. */
 20001b4:	1ec7883a 	add	r3,r3,sp
        ldw    r3, 0(r3)      /* r3 = A-operand. */
 20001b8:	18c00017 	ldw	r3,0(r3)
        movi   r15, 0x24      /* muli opcode (I-type instruction format) */
 20001bc:	03c00904 	movi	r15,36
        beq    r5, r15, .Lmul_immed /* muli doesn't use the B register as a source */
 20001c0:	2bc02726 	beq	r5,r15,2000260 <restore_context+0x18c>

        add    r6, r6, sp     /* r6 = address of B-operand.               */
 20001c4:	36cd883a 	add	r6,r6,sp
        ldw    r6, 0(r6)      /* r6 = B-operand.                          */
 20001c8:	31800017 	ldw	r6,0(r6)
                              /* r4 = SSSSSSSSSSSSSSSS,-----IMM16------   */
                              /* IMM16 not needed, align OPX portion      */
                              /* r4 = SSSSSSSSSSSSSSSS,CCCCC,-OPX--,00000 */
        srli   r4, r4, 5      /* r4 = 00000,SSSSSSSSSSSSSSSS,CCCCC,-OPX-- */
 20001cc:	2008d17a 	srli	r4,r4,5
        andi   r4, r4, 0x3f   /* r4 = 00000000000000000000000000,-OPX--   */
 20001d0:	21000fcc 	andi	r4,r4,63
         *
         *  This code assumes that OP is not muli (because muli was tested above).
         *  All other multiplies and divides are legal.  Anything else is illegal.
         */

        movi  r8, 0x3a                        /* OP for R-type mul* and div* */
 20001d4:	02000e84 	movi	r8,58
        bne   r5, r8, .Lnot_muldiv
 20001d8:	2a004f1e 	bne	r5,r8,2000318 <restore_context+0x244>

        /* r15 already is 0x24 */            /* OPX of divu */
        beq   r4, r15, .Ldivide
 20001dc:	23c00a26 	beq	r4,r15,2000208 <restore_context+0x134>

        movi  r15,0x27                        /* OPX of mul */
 20001e0:	03c009c4 	movi	r15,39
        beq   r4, r15, .Lmultiply
 20001e4:	23c02126 	beq	r4,r15,200026c <restore_context+0x198>

        movi  r15,0x07                        /* OPX of mulxuu */
 20001e8:	03c001c4 	movi	r15,7
        beq   r4, r15, .Lmultiply
 20001ec:	23c01f26 	beq	r4,r15,200026c <restore_context+0x198>

        movi  r15,0x17                        /* OPX of mulxsu */
 20001f0:	03c005c4 	movi	r15,23
        beq   r4, r15, .Lmultiply
 20001f4:	23c01d26 	beq	r4,r15,200026c <restore_context+0x198>

        movi  r15,0x1f                        /* OPX of mulxss */
 20001f8:	03c007c4 	movi	r15,31
        beq   r4, r15, .Lmultiply
 20001fc:	23c01b26 	beq	r4,r15,200026c <restore_context+0x198>

        movi  r15,0x25                        /* OPX of div */
 2000200:	03c00944 	movi	r15,37
        bne   r4, r15, .Lnot_muldiv
 2000204:	23c0441e 	bne	r4,r15,2000318 <restore_context+0x244>
.Ldivide:
        /*
         *  Prepare for division by assuming the result
         *  is unsigned, and storing its "sign" as 0.
         */
        movi   r17, 0
 2000208:	04400004 	movi	r17,0


        /* Which division opcode? */
        xori   r15, r4, 0x25         /* OPX of div */
 200020c:	23c0095c 	xori	r15,r4,37
        bne    r15, zero, .Lunsigned_division
 2000210:	7800051e 	bne	r15,zero,2000228 <restore_context+0x154>

        /*
         *  OPX is div.  Determine and store the sign of the quotient.
         *  Then take the absolute value of both operands.
         */
        xor   r17, r3, r6      /* MSB contains sign of quotient */
 2000214:	19a2f03a 	xor	r17,r3,r6
        bge   r3, zero, 0f
 2000218:	1800010e 	bge	r3,zero,2000220 <restore_context+0x14c>
        sub   r3, zero, r3     /* -r3 */
 200021c:	00c7c83a 	sub	r3,zero,r3
0:
        bge   r6, zero, 0f
 2000220:	3000010e 	bge	r6,zero,2000228 <restore_context+0x154>
        sub   r6, zero, r6     /* -r6 */
 2000224:	018dc83a 	sub	r6,zero,r6
0:


.Lunsigned_division:
        /* Initialize the unsigned-division loop. */
        movi  r13, 0          /* remainder = 0 */
 2000228:	03400004 	movi	r13,0
        /*
        *       Division:
        *
        *       (remainder:dividend:quotient) <<= 1;
        */
        slli  r13, r13, 1
 200022c:	681a907a 	slli	r13,r13,1
        cmplt r15, r3, zero        /* r15 = MSB of r3 */
 2000230:	181e803a 	cmplt	r15,r3,zero
        or    r13, r13, r15
 2000234:	6bdab03a 	or	r13,r13,r15
        slli  r3, r3, 1
 2000238:	1806907a 	slli	r3,r3,1
        *       {
        *           set LSB of quotient
        *           remainder -= divisor;
        *       }
        */
        bltu  r13, r6, .Ldiv_skip
 200023c:	69800236 	bltu	r13,r6,2000248 <restore_context+0x174>
        ori   r3, r3, 1
 2000240:	18c00054 	ori	r3,r3,1
        sub   r13, r13, r6
 2000244:	699bc83a 	sub	r13,r13,r6
.Ldiv_skip:

        /*
        *   }
        */
        subi  r14, r14, 1
 2000248:	73bfffc4 	addi	r14,r14,-1
        bne   r14, zero, .Ldivide_loop
 200024c:	703ff71e 	bne	r14,zero,200022c <__alt_mem_mem_0+0xfcfe022c>

        mov   r9, r3
 2000250:	1813883a 	mov	r9,r3
    
        /*
        *  Conditionally negate signed quotient.  If quotient is unsigned,
        *  the sign already is initialized to 0.
        */
        bge   r17, zero, .Lstore_result
 2000254:	8800230e 	bge	r17,zero,20002e4 <restore_context+0x210>
        sub   r9, zero, r9     /* -r9 */
 2000258:	0253c83a 	sub	r9,zero,r9

        br    .Lstore_result
 200025c:	00002106 	br	20002e4 <restore_context+0x210>
        *
        */

.Lmul_immed:
        /* Opcode is muli.  Change it into mul for remainder of algorithm. */
        mov   r7, r6         /* Field B is dest register, not field C. */
 2000260:	300f883a 	mov	r7,r6
        mov   r6, r4         /* Field IMM16 is src2, not field B. */
 2000264:	200d883a 	mov	r6,r4
        movi  r4, 0x27       /* OPX of mul is 0x27 */
 2000268:	010009c4 	movi	r4,39

.Lmultiply:
        /* Initialize the multiplication loop. */
        movi  r9, 0          /* mul_product    = 0 */
 200026c:	02400004 	movi	r9,0
        movi  r10, 0         /* mulxuu_product = 0 */
 2000270:	02800004 	movi	r10,0
        mov   r11, r6        /* save original multiplier for mulxsu and mulxss */
 2000274:	3017883a 	mov	r11,r6
        mov   r12, r6        /* mulxuu_multiplier (will be shifted) */
 2000278:	3019883a 	mov	r12,r6
        movi  r16, 1         /* used to create "rori B,A,1" from "ror B,A,r16" */
 200027c:	04000044 	movi	r16,1

        /*
        *       mul_product <<= 1;
        *       lsb = multiplier & 1;
        */
        slli   r9, r9, 1
 2000280:	4812907a 	slli	r9,r9,1
        andi   r15, r12, 1
 2000284:	63c0004c 	andi	r15,r12,1
        *       if (lsb == 1)
        *       {
        *           mulxuu_product += multiplicand;
        *       }
        */
        beq   r15, zero, .Lmulx_skip
 2000288:	78000326 	beq	r15,zero,2000298 <restore_context+0x1c4>
        add   r10, r10, r3
 200028c:	50d5883a 	add	r10,r10,r3
        cmpltu r15, r10, r3  /* Save the carry from the MSB of mulxuu_product. */
 2000290:	50df803a 	cmpltu	r15,r10,r3
        ror   r15, r15, r16  /* r15 = 0x80000000 on carry, or else 0x00000000 */
 2000294:	7c1e583a 	ror	r15,r15,r16
        *       if (MSB of mul_multiplier == 1)
        *       {
        *           mul_product += multiplicand;
        *       }
        */
        bge   r6, zero, .Lmul_skip
 2000298:	3000010e 	bge	r6,zero,20002a0 <restore_context+0x1cc>
        add   r9, r9, r3
 200029c:	48d3883a 	add	r9,r9,r3
        /*
        *       mulxuu_product >>= 1;           logical shift
        *       mul_multiplier <<= 1;           done with MSB
        *       mulx_multiplier >>= 1;          done with LSB
        */
        srli   r10, r10, 1
 20002a0:	5014d07a 	srli	r10,r10,1
        or     r10, r10, r15           /* OR in the saved carry bit. */
 20002a4:	53d4b03a 	or	r10,r10,r15
        slli   r6, r6, 1
 20002a8:	300c907a 	slli	r6,r6,1
        srli   r12, r12, 1
 20002ac:	6018d07a 	srli	r12,r12,1


        /*
        *   }
        */
        subi   r14, r14, 1
 20002b0:	73bfffc4 	addi	r14,r14,-1
        bne    r14, zero, .Lmultiply_loop
 20002b4:	703ff21e 	bne	r14,zero,2000280 <__alt_mem_mem_0+0xfcfe0280>
        *  Select/compute the result based on OPX.
        */


        /* OPX == mul?  Then store. */
        xori  r15, r4, 0x27
 20002b8:	23c009dc 	xori	r15,r4,39
        beq   r15, zero, .Lstore_result
 20002bc:	78000926 	beq	r15,zero,20002e4 <restore_context+0x210>

        /* It's one of the mulx.. opcodes.  Move over the result. */
        mov   r9, r10
 20002c0:	5013883a 	mov	r9,r10

        /* OPX == mulxuu?  Then store. */
        xori  r15, r4, 0x07
 20002c4:	23c001dc 	xori	r15,r4,7
        beq   r15, zero, .Lstore_result
 20002c8:	78000626 	beq	r15,zero,20002e4 <restore_context+0x210>

        /* Compute mulxsu
         *
         * mulxsu = mulxuu - ((rA < 0) ? rB : 0);
         */
        bge   r3, zero, .Lmulxsu_skip
 20002cc:	1800010e 	bge	r3,zero,20002d4 <restore_context+0x200>
        sub   r9, r9, r11
 20002d0:	4ad3c83a 	sub	r9,r9,r11
.Lmulxsu_skip:

        /* OPX == mulxsu?  Then store. */
        xori  r15, r4, 0x17
 20002d4:	23c005dc 	xori	r15,r4,23
        beq   r15, zero, .Lstore_result
 20002d8:	78000226 	beq	r15,zero,20002e4 <restore_context+0x210>

        /* Compute mulxss
         *
         * mulxss = mulxsu - ((rB < 0) ? rA : 0);
         */
        bge   r11, zero, .Lmulxss_skip
 20002dc:	5800010e 	bge	r11,zero,20002e4 <restore_context+0x210>
        sub   r9, r9, r3
 20002e0:	48d3c83a 	sub	r9,r9,r3
.Lmulxss_skip:
        /* At this point, assume that OPX is mulxss, so store */


.Lstore_result:
        add   r7, r7, sp
 20002e4:	3ecf883a 	add	r7,r7,sp
        stw   r9, 0(r7)
 20002e8:	3a400015 	stw	r9,0(r7)

        ldw   r16,  0(sp)
 20002ec:	dc000017 	ldw	r16,0(sp)
        ldw   r17,  4(sp)
 20002f0:	dc400117 	ldw	r17,4(sp)
        ldw   r18,  8(sp)
 20002f4:	dc800217 	ldw	r18,8(sp)
        ldw   r19, 12(sp)
 20002f8:	dcc00317 	ldw	r19,12(sp)
        ldw   r20, 16(sp)
 20002fc:	dd000417 	ldw	r20,16(sp)
        ldw   r21, 20(sp)
 2000300:	dd400517 	ldw	r21,20(sp)
        ldw   r22, 24(sp)
 2000304:	dd800617 	ldw	r22,24(sp)
        ldw   r23, 28(sp)
 2000308:	ddc00717 	ldw	r23,28(sp)

                            /* bt @ 32 - Breakpoint register usually isn't an operand. */
                            /* et @ 36 - Don't corrupt et. */
                            /* gp @ 40 - Don't corrupt gp. */
                            /* sp @ 44 - Don't corrupt sp. */
        ldw   fp,  48(sp)
 200030c:	df000c17 	ldw	fp,48(sp)
                            /* ea @ 52 - Don't corrupt ea. */
                            /* ba @ 56 - Breakpoint register usually isn't an operand. */

        addi  sp, sp, 60
 2000310:	dec00f04 	addi	sp,sp,60

        br    .Lexception_exit
 2000314:	00000c06 	br	2000348 <alt_irq_handler>


.Lnot_muldiv:

        addi  sp, sp, 60
 2000318:	dec00f04 	addi	sp,sp,60

0200031c <soft_exceptions>:
   
	.section .exceptions.soft, "xa"
soft_exceptions:
	ldw		et, 0(ea)				# Load the instruction where the interrupt occured.
 200031c:	ee000017 	ldw	et,0(ea)
	movhi	at, %hi(0x003B683A)		# Load the registers with the trap instruction code
 2000320:	00400ef4 	movhi	at,59
	ori		at, at, %lo(0x003B683A)
 2000324:	085a0e94 	ori	at,at,26682
   	cmpne	et, et, at				# Compare the trap instruction code to the last excuted instruction
 2000328:	c070c03a 	cmpne	et,et,at
  	beq		et, r0, call_scheduler	# its a trap so switchcontext
 200032c:	c0000226 	beq	et,zero,2000338 <call_scheduler>
  	break							# This is an un-implemented instruction or muldiv problem.
 2000330:	003da03a 	break	0
  	br		restore_context			# its something else
 2000334:	003f6706 	br	20000d4 <__alt_mem_mem_0+0xfcfe00d4>

02000338 <call_scheduler>:

call_scheduler:
	addi	ea, ea, 4						# A trap was called, increment the program counter so it is not called again.
 2000338:	ef400104 	addi	ea,ea,4
	stw		ea, 72(sp)						# Save the new program counter to the context.
 200033c:	df401215 	stw	ea,72(sp)
	call	vTaskSwitchContext				# Pick the next context.
 2000340:	201001c0 	call	201001c <vTaskSwitchContext>
	br		restore_sp_from_pxCurrentTCB	# Switch in the task context and restore. 
 2000344:	003f5f06 	br	20000c4 <__alt_mem_mem_0+0xfcfe00c4>

02000348 <alt_irq_handler>:
 * instruction is present if the macro ALT_CI_INTERRUPT_VECTOR defined.
 */

void alt_irq_handler (void) __attribute__ ((section (".exceptions")));
void alt_irq_handler (void)
{
 2000348:	defff904 	addi	sp,sp,-28
 200034c:	dfc00615 	stw	ra,24(sp)
 2000350:	df000515 	stw	fp,20(sp)
 2000354:	df000504 	addi	fp,sp,20
#ifndef NIOS2_EIC_PRESENT
static ALT_INLINE alt_u32 ALT_ALWAYS_INLINE alt_irq_pending (void)
{
  alt_u32 active;

  NIOS2_READ_IPENDING (active);
 2000358:	0005313a 	rdctl	r2,ipending
 200035c:	e0bffe15 	stw	r2,-8(fp)

  return active;
 2000360:	e0bffe17 	ldw	r2,-8(fp)
   * Consider the case where the high priority interupt is asserted during
   * the interrupt entry sequence for a lower priority interrupt to see why
   * this is the case.
   */

  active = alt_irq_pending ();
 2000364:	e0bffb15 	stw	r2,-20(fp)

  do
  {
    i = 0;
 2000368:	e03ffd15 	stw	zero,-12(fp)
    mask = 1;
 200036c:	00800044 	movi	r2,1
 2000370:	e0bffc15 	stw	r2,-16(fp)
     * called to clear the interrupt condition.
     */

    do
    {
      if (active & mask)
 2000374:	e0fffb17 	ldw	r3,-20(fp)
 2000378:	e0bffc17 	ldw	r2,-16(fp)
 200037c:	1884703a 	and	r2,r3,r2
 2000380:	10001426 	beq	r2,zero,20003d4 <alt_irq_handler+0x8c>
      { 
#ifdef ALT_ENHANCED_INTERRUPT_API_PRESENT
        alt_irq[i].handler(alt_irq[i].context); 
 2000384:	008085f4 	movhi	r2,535
 2000388:	10a96904 	addi	r2,r2,-23132
 200038c:	e0fffd17 	ldw	r3,-12(fp)
 2000390:	180690fa 	slli	r3,r3,3
 2000394:	10c5883a 	add	r2,r2,r3
 2000398:	10c00017 	ldw	r3,0(r2)
 200039c:	008085f4 	movhi	r2,535
 20003a0:	10a96904 	addi	r2,r2,-23132
 20003a4:	e13ffd17 	ldw	r4,-12(fp)
 20003a8:	200890fa 	slli	r4,r4,3
 20003ac:	1105883a 	add	r2,r2,r4
 20003b0:	10800104 	addi	r2,r2,4
 20003b4:	10800017 	ldw	r2,0(r2)
 20003b8:	1009883a 	mov	r4,r2
 20003bc:	183ee83a 	callr	r3
#else
        alt_irq[i].handler(alt_irq[i].context, i); 
#endif
        break;
 20003c0:	0001883a 	nop
#ifndef NIOS2_EIC_PRESENT
static ALT_INLINE alt_u32 ALT_ALWAYS_INLINE alt_irq_pending (void)
{
  alt_u32 active;

  NIOS2_READ_IPENDING (active);
 20003c4:	0005313a 	rdctl	r2,ipending
 20003c8:	e0bfff15 	stw	r2,-4(fp)

  return active;
 20003cc:	e0bfff17 	ldw	r2,-4(fp)
 20003d0:	00000706 	br	20003f0 <alt_irq_handler+0xa8>
      }
      mask <<= 1;
 20003d4:	e0bffc17 	ldw	r2,-16(fp)
 20003d8:	1085883a 	add	r2,r2,r2
 20003dc:	e0bffc15 	stw	r2,-16(fp)
      i++;
 20003e0:	e0bffd17 	ldw	r2,-12(fp)
 20003e4:	10800044 	addi	r2,r2,1
 20003e8:	e0bffd15 	stw	r2,-12(fp)

    } while (1);
 20003ec:	003fe106 	br	2000374 <__alt_mem_mem_0+0xfcfe0374>

    active = alt_irq_pending ();
 20003f0:	e0bffb15 	stw	r2,-20(fp)
    
  } while (active);
 20003f4:	e0bffb17 	ldw	r2,-20(fp)
 20003f8:	103fdb1e 	bne	r2,zero,2000368 <__alt_mem_mem_0+0xfcfe0368>
  /*
   * Notify the operating system that interrupt processing is complete.
   */ 

  ALT_OS_INT_EXIT();
}
 20003fc:	0001883a 	nop
 2000400:	e037883a 	mov	sp,fp
 2000404:	dfc00117 	ldw	ra,4(sp)
 2000408:	df000017 	ldw	fp,0(sp)
 200040c:	dec00204 	addi	sp,sp,8
 2000410:	f800283a 	ret

Disassembly of section .text:

02000414 <_start>:

    /*
     * Now that the caches are initialized, set up the stack pointer and global pointer.
     * The values provided by the linker are assumed to be correctly aligned.
     */
    movhi sp, %hi(__alt_stack_pointer)
 2000414:	06c10034 	movhi	sp,1024
    ori sp, sp, %lo(__alt_stack_pointer)
 2000418:	dec00014 	ori	sp,sp,0
    movhi gp, %hi(_gp)
 200041c:	06808134 	movhi	gp,516
    ori gp, gp, %lo(_gp)
 2000420:	d6b63c14 	ori	gp,gp,55536
 */
#ifndef ALT_SIM_OPTIMIZE
    /* Log that the BSS is about to be cleared. */
    ALT_LOG_PUTS(alt_log_msg_bss)

    movhi r2, %hi(__bss_start)
 2000424:	00808134 	movhi	r2,516
    ori r2, r2, %lo(__bss_start)
 2000428:	109e0014 	ori	r2,r2,30720

    movhi r3, %hi(__bss_end)
 200042c:	00c085b4 	movhi	r3,534
    ori r3, r3, %lo(__bss_end)
 2000430:	18e9a914 	ori	r3,r3,42660

    beq r2, r3, 1f
 2000434:	10c00326 	beq	r2,r3,2000444 <_start+0x30>

0:
    stw zero, (r2)
 2000438:	10000015 	stw	zero,0(r2)
    addi r2, r2, 4
 200043c:	10800104 	addi	r2,r2,4
    bltu r2, r3, 0b
 2000440:	10fffd36 	bltu	r2,r3,2000438 <__alt_mem_mem_0+0xfcfe0438>
     * section aren't defined until alt_load() has been called).
     */
    mov   et, zero
#endif

    call alt_load
 2000444:	2012a200 	call	2012a20 <alt_load>

    /* Log that alt_main is about to be called. */
    ALT_LOG_PUTS(alt_log_msg_alt_main)

    /* Call the C entry point. It should never return. */
    call alt_main
 2000448:	200d40c0 	call	200d40c <alt_main>

0200044c <alt_after_alt_main>:

    /* Wait in infinite loop in case alt_main does return. */
alt_after_alt_main:
    br alt_after_alt_main
 200044c:	003fff06 	br	200044c <__alt_mem_mem_0+0xfcfe044c>

02000450 <vApplicationMallocFailedHook>:

static int nw_ready;
static sys_thread_t main_thread_handle;

// hook functions
void vApplicationMallocFailedHook(){
 2000450:	defffe04 	addi	sp,sp,-8
 2000454:	dfc00115 	stw	ra,4(sp)
 2000458:	df000015 	stw	fp,0(sp)
 200045c:	d839883a 	mov	fp,sp
    for(;;){
        vTaskDelay(pdMS_TO_TICKS(1000));
 2000460:	0100fa04 	movi	r4,1000
 2000464:	200f2640 	call	200f264 <vTaskDelay>
        alt_printf("vApplicationMallocFailedHook \r\n");
 2000468:	01008134 	movhi	r4,516
 200046c:	21028804 	addi	r4,r4,2592
 2000470:	2012e080 	call	2012e08 <alt_printf>
    }
 2000474:	003ffa06 	br	2000460 <__alt_mem_mem_0+0xfcfe0460>

02000478 <vApplicationStackOverflowHook>:
}

void vApplicationStackOverflowHook( TaskHandle_t xTask, char *pcTaskName ){
 2000478:	defffc04 	addi	sp,sp,-16
 200047c:	dfc00315 	stw	ra,12(sp)
 2000480:	df000215 	stw	fp,8(sp)
 2000484:	df000204 	addi	fp,sp,8
 2000488:	e13ffe15 	stw	r4,-8(fp)
 200048c:	e17fff15 	stw	r5,-4(fp)
    for(;;){
        vTaskDelay(pdMS_TO_TICKS(1000));
 2000490:	0100fa04 	movi	r4,1000
 2000494:	200f2640 	call	200f264 <vTaskDelay>
        alt_printf("vApplicationStackOverflowHook \r\n");
 2000498:	01008134 	movhi	r4,516
 200049c:	21029004 	addi	r4,r4,2624
 20004a0:	2012e080 	call	2012e08 <alt_printf>
    }
 20004a4:	003ffa06 	br	2000490 <__alt_mem_mem_0+0xfcfe0490>

020004a8 <StatusCallback>:
}

// callback function for when the DHCP subsystem acquires an IP address.
static void StatusCallback(struct netif* netif)
{
 20004a8:	deffbd04 	addi	sp,sp,-268
 20004ac:	dfc04215 	stw	ra,264(sp)
 20004b0:	df004115 	stw	fp,260(sp)
 20004b4:	df004104 	addi	fp,sp,260
 20004b8:	e13fff15 	stw	r4,-4(fp)
	// get IP and stuff
	printf("[ethernet] Acquired IP address via DHCP client for interface: %s\n", netif->name);
 20004bc:	e0bfff17 	ldw	r2,-4(fp)
 20004c0:	10800e84 	addi	r2,r2,58
 20004c4:	100b883a 	mov	r5,r2
 20004c8:	01008134 	movhi	r4,516
 20004cc:	21029904 	addi	r4,r4,2660
 20004d0:	2000bb00 	call	2000bb0 <printf>

	char buf[255];

	print_ipad(netif->ip_addr.addr, buf);
 20004d4:	e0bfff17 	ldw	r2,-4(fp)
 20004d8:	10800117 	ldw	r2,4(r2)
 20004dc:	e17fbf04 	addi	r5,fp,-260
 20004e0:	1009883a 	mov	r4,r2
 20004e4:	2013dec0 	call	2013dec <print_ipad>
	printf("[ethernet] IP address : %s\n", buf);
 20004e8:	e17fbf04 	addi	r5,fp,-260
 20004ec:	01008134 	movhi	r4,516
 20004f0:	2102aa04 	addi	r4,r4,2728
 20004f4:	2000bb00 	call	2000bb0 <printf>

	print_ipad(netif->netmask.addr, buf);
 20004f8:	e0bfff17 	ldw	r2,-4(fp)
 20004fc:	10800217 	ldw	r2,8(r2)
 2000500:	e17fbf04 	addi	r5,fp,-260
 2000504:	1009883a 	mov	r4,r2
 2000508:	2013dec0 	call	2013dec <print_ipad>
	printf("[ethernet] Subnet     : %s\n", buf);
 200050c:	e17fbf04 	addi	r5,fp,-260
 2000510:	01008134 	movhi	r4,516
 2000514:	2102b104 	addi	r4,r4,2756
 2000518:	2000bb00 	call	2000bb0 <printf>

    print_ipad(netif->gw.addr, buf);
 200051c:	e0bfff17 	ldw	r2,-4(fp)
 2000520:	10800317 	ldw	r2,12(r2)
 2000524:	e17fbf04 	addi	r5,fp,-260
 2000528:	1009883a 	mov	r4,r2
 200052c:	2013dec0 	call	2013dec <print_ipad>
	printf("[ethernet] Gateway    : %s\n", buf);
 2000530:	e17fbf04 	addi	r5,fp,-260
 2000534:	01008134 	movhi	r4,516
 2000538:	2102b804 	addi	r4,r4,2784
 200053c:	2000bb00 	call	2000bb0 <printf>
}
 2000540:	0001883a 	nop
 2000544:	e037883a 	mov	sp,fp
 2000548:	dfc00117 	ldw	ra,4(sp)
 200054c:	df000017 	ldw	fp,0(sp)
 2000550:	dec00204 	addi	sp,sp,8
 2000554:	f800283a 	ret

02000558 <LinkCallback>:

static void LinkCallback(struct netif* netif)
{
 2000558:	defffd04 	addi	sp,sp,-12
 200055c:	dfc00215 	stw	ra,8(sp)
 2000560:	df000115 	stw	fp,4(sp)
 2000564:	df000104 	addi	fp,sp,4
 2000568:	e13fff15 	stw	r4,-4(fp)
	// link change callback
	// TODO release semaphore
	// TODO switch context

	alt_printf("[ethernet] Link Callback for interface: %s\n", netif->name);
 200056c:	e0bfff17 	ldw	r2,-4(fp)
 2000570:	10800e84 	addi	r2,r2,58
 2000574:	100b883a 	mov	r5,r2
 2000578:	01008134 	movhi	r4,516
 200057c:	2102bf04 	addi	r4,r4,2812
 2000580:	2012e080 	call	2012e08 <alt_printf>
}
 2000584:	0001883a 	nop
 2000588:	e037883a 	mov	sp,fp
 200058c:	dfc00117 	ldw	ra,4(sp)
 2000590:	df000017 	ldw	fp,0(sp)
 2000594:	dec00204 	addi	sp,sp,8
 2000598:	f800283a 	ret

0200059c <InitNetwork>:

int InitNetwork(void)
{
 200059c:	defffe04 	addi	sp,sp,-8
 20005a0:	dfc00115 	stw	ra,4(sp)
 20005a4:	df000015 	stw	fp,0(sp)
 20005a8:	d839883a 	mov	fp,sp
	// register new DHCP "IP attained" callback function.
	// if DHCP is acquired, ws_ipset will be called instead of dhc_main_ipset().
	lwip_set_status_callback(StatusCallback);
 20005ac:	01008034 	movhi	r4,512
 20005b0:	21012a04 	addi	r4,r4,1192
 20005b4:	2013bc00 	call	2013bc0 <lwip_set_status_callback>
	lwip_set_link_callback(LinkCallback);
 20005b8:	01008034 	movhi	r4,512
 20005bc:	21015604 	addi	r4,r4,1368
 20005c0:	2013bf40 	call	2013bf4 <lwip_set_link_callback>

	// Initialize LwIP TCP/IP stack.
	// This function is blocking till the the interface is up.
	lwip_initialize(1);
 20005c4:	01000044 	movi	r4,1
 20005c8:	20137100 	call	2013710 <lwip_initialize>

	return EXIT_SUCCESS;
 20005cc:	0005883a 	mov	r2,zero
}
 20005d0:	e037883a 	mov	sp,fp
 20005d4:	dfc00117 	ldw	ra,4(sp)
 20005d8:	df000017 	ldw	fp,0(sp)
 20005dc:	dec00204 	addi	sp,sp,8
 20005e0:	f800283a 	ret

020005e4 <WaitOnPHY>:

static int WaitOnPHY(void)
{
 20005e4:	defff904 	addi	sp,sp,-28
 20005e8:	dfc00615 	stw	ra,24(sp)
 20005ec:	df000515 	stw	fp,20(sp)
 20005f0:	df000504 	addi	fp,sp,20
	int phyadd;
	int phyid;
	int phyid2 = 0;
 20005f4:	e03ffd15 	stw	zero,-12(fp)

	np_tse_mac* pmac;
	bool bInitialized = false;
 20005f8:	e03fff05 	stb	zero,-4(fp)

	while (!bInitialized) {
 20005fc:	00003606 	br	20006d8 <WaitOnPHY+0xf4>
		alt_printf("[ethernet] PHY INFO: Interface: %d Waiting for PHY\n", 0);
 2000600:	000b883a 	mov	r5,zero
 2000604:	01008134 	movhi	r4,516
 2000608:	2102ca04 	addi	r4,r4,2856
 200060c:	2012e080 	call	2012e08 <alt_printf>

		// initialize the structure necessary for "pmac" to function.
		pmac = (np_tse_mac*)TSE_MAC_0_BASE;
 2000610:	00810034 	movhi	r2,1024
 2000614:	10880004 	addi	r2,r2,8192
 2000618:	e0bffe15 	stw	r2,-8(fp)


		for (phyadd = 0x00; phyadd < 0xff; phyadd++) {
 200061c:	e03ffb15 	stw	zero,-20(fp)
 2000620:	00001a06 	br	200068c <WaitOnPHY+0xa8>
			IOWR(&pmac->MDIO_ADDR0, 0, phyadd);
 2000624:	e0bffe17 	ldw	r2,-8(fp)
 2000628:	10800f04 	addi	r2,r2,60
 200062c:	e0fffb17 	ldw	r3,-20(fp)
 2000630:	10c00035 	stwio	r3,0(r2)

			phyid = IORD(&pmac->MDIO_IFACE.PHY_ID1, 0);
 2000634:	e0bffe17 	ldw	r2,-8(fp)
 2000638:	1080a204 	addi	r2,r2,648
 200063c:	10800037 	ldwio	r2,0(r2)
 2000640:	e0bffc15 	stw	r2,-16(fp)
			phyid2 = IORD(&pmac->MDIO_IFACE.PHY_ID2, 0);
 2000644:	e0bffe17 	ldw	r2,-8(fp)
 2000648:	1080a304 	addi	r2,r2,652
 200064c:	10800037 	ldwio	r2,0(r2)
 2000650:	e0bffd15 	stw	r2,-12(fp)

			if (phyid != phyid2) {
 2000654:	e0fffc17 	ldw	r3,-16(fp)
 2000658:	e0bffd17 	ldw	r2,-12(fp)
 200065c:	18800826 	beq	r3,r2,2000680 <WaitOnPHY+0x9c>
				alt_printf("[ethernet] PHY INFO: [PHY ID] 0x%x %x %x\n", phyadd, phyid, phyid2);
 2000660:	e1fffd17 	ldw	r7,-12(fp)
 2000664:	e1bffc17 	ldw	r6,-16(fp)
 2000668:	e17ffb17 	ldw	r5,-20(fp)
 200066c:	01008134 	movhi	r4,516
 2000670:	2102d704 	addi	r4,r4,2908
 2000674:	2012e080 	call	2012e08 <alt_printf>
				phyadd = 0xff;
 2000678:	00803fc4 	movi	r2,255
 200067c:	e0bffb15 	stw	r2,-20(fp)

		// initialize the structure necessary for "pmac" to function.
		pmac = (np_tse_mac*)TSE_MAC_0_BASE;


		for (phyadd = 0x00; phyadd < 0xff; phyadd++) {
 2000680:	e0bffb17 	ldw	r2,-20(fp)
 2000684:	10800044 	addi	r2,r2,1
 2000688:	e0bffb15 	stw	r2,-20(fp)
 200068c:	e0bffb17 	ldw	r2,-20(fp)
 2000690:	10803fd0 	cmplti	r2,r2,255
 2000694:	103fe31e 	bne	r2,zero,2000624 <__alt_mem_mem_0+0xfcfe0624>
				alt_printf("[ethernet] PHY INFO: [PHY ID] 0x%x %x %x\n", phyadd, phyid, phyid2);
				phyadd = 0xff;
			}
		}

		if ((phyadd == 0xff) && (phyid == phyid2)) {
 2000698:	e0bffb17 	ldw	r2,-20(fp)
 200069c:	10803fd8 	cmpnei	r2,r2,255
 20006a0:	10000b1e 	bne	r2,zero,20006d0 <WaitOnPHY+0xec>
 20006a4:	e0fffc17 	ldw	r3,-16(fp)
 20006a8:	e0bffd17 	ldw	r2,-12(fp)
 20006ac:	1880081e 	bne	r3,r2,20006d0 <WaitOnPHY+0xec>
			alt_printf("[ethernet] PHY INFO: No PHY found... restart detect\n");
 20006b0:	01008134 	movhi	r4,516
 20006b4:	2102e204 	addi	r4,r4,2952
 20006b8:	2012e080 	call	2012e08 <alt_printf>
			bInitialized = true;
 20006bc:	00800044 	movi	r2,1
 20006c0:	e0bfff05 	stb	r2,-4(fp)
			mssleep(1000);
 20006c4:	0100fa04 	movi	r4,1000
 20006c8:	200f2640 	call	200f264 <vTaskDelay>
 20006cc:	00000206 	br	20006d8 <WaitOnPHY+0xf4>
		}
		else
			bInitialized = true;
 20006d0:	00800044 	movi	r2,1
 20006d4:	e0bfff05 	stb	r2,-4(fp)
	int phyid2 = 0;

	np_tse_mac* pmac;
	bool bInitialized = false;

	while (!bInitialized) {
 20006d8:	e0bfff03 	ldbu	r2,-4(fp)
 20006dc:	1080005c 	xori	r2,r2,1
 20006e0:	10803fcc 	andi	r2,r2,255
 20006e4:	103fc61e 	bne	r2,zero,2000600 <__alt_mem_mem_0+0xfcfe0600>
		else
			bInitialized = true;
	}

	// issue a PHY reset.
	IOWR(&pmac->MDIO_IFACE.CONTROL, 0, PCS_CTL_an_enable | PCS_CTL_sw_reset);
 20006e8:	e0bffe17 	ldw	r2,-8(fp)
 20006ec:	1080a004 	addi	r2,r2,640
 20006f0:	00e40014 	movui	r3,36864
 20006f4:	10c00035 	stwio	r3,0(r2)
	if (((IORD(&pmac->MDIO_IFACE.CONTROL, 0) & PCS_CTL_rx_slpbk) != 0) || ((IORD(&pmac->MDIO_IFACE.STATUS, 0) & PCS_ST_an_done) == 0)) {
 20006f8:	e0bffe17 	ldw	r2,-8(fp)
 20006fc:	1080a004 	addi	r2,r2,640
 2000700:	10800037 	ldwio	r2,0(r2)
 2000704:	1090000c 	andi	r2,r2,16384
 2000708:	1000051e 	bne	r2,zero,2000720 <WaitOnPHY+0x13c>
 200070c:	e0bffe17 	ldw	r2,-8(fp)
 2000710:	1080a104 	addi	r2,r2,644
 2000714:	10800037 	ldwio	r2,0(r2)
 2000718:	1080080c 	andi	r2,r2,32
 200071c:	1000071e 	bne	r2,zero,200073c <WaitOnPHY+0x158>
		IOWR(&pmac->MDIO_IFACE.CONTROL, 0, PCS_CTL_an_enable | PCS_CTL_sw_reset);
 2000720:	e0bffe17 	ldw	r2,-8(fp)
 2000724:	1080a004 	addi	r2,r2,640
 2000728:	00e40014 	movui	r3,36864
 200072c:	10c00035 	stwio	r3,0(r2)
		alt_printf("[ethernet] PHY INFO: Issuing PHY Reset\n");
 2000730:	01008134 	movhi	r4,516
 2000734:	2102f004 	addi	r4,r4,3008
 2000738:	2012e080 	call	2012e08 <alt_printf>
	}

	// holding pattern until autonegotiation completes.
	if ((IORD(&pmac->MDIO_IFACE.STATUS, 0) & PCS_ST_an_done) == 0) {
 200073c:	e0bffe17 	ldw	r2,-8(fp)
 2000740:	1080a104 	addi	r2,r2,644
 2000744:	10800037 	ldwio	r2,0(r2)
 2000748:	1080080c 	andi	r2,r2,32
 200074c:	1000101e 	bne	r2,zero,2000790 <WaitOnPHY+0x1ac>
		alt_printf("[ethernet] PHY INFO: Waiting on PHY link...\n");
 2000750:	01008134 	movhi	r4,516
 2000754:	2102fa04 	addi	r4,r4,3048
 2000758:	2012e080 	call	2012e08 <alt_printf>

		while ((IORD(&pmac->MDIO_IFACE.STATUS, 0) & PCS_ST_an_done) == 0)
 200075c:	00000206 	br	2000768 <WaitOnPHY+0x184>
			mssleep(10);
 2000760:	01000284 	movi	r4,10
 2000764:	200f2640 	call	200f264 <vTaskDelay>

	// holding pattern until autonegotiation completes.
	if ((IORD(&pmac->MDIO_IFACE.STATUS, 0) & PCS_ST_an_done) == 0) {
		alt_printf("[ethernet] PHY INFO: Waiting on PHY link...\n");

		while ((IORD(&pmac->MDIO_IFACE.STATUS, 0) & PCS_ST_an_done) == 0)
 2000768:	e0bffe17 	ldw	r2,-8(fp)
 200076c:	1080a104 	addi	r2,r2,644
 2000770:	10800037 	ldwio	r2,0(r2)
 2000774:	1080080c 	andi	r2,r2,32
 2000778:	103ff926 	beq	r2,zero,2000760 <__alt_mem_mem_0+0xfcfe0760>
			mssleep(10);

		alt_printf("[ethernet] PHY INFO: PHY link detected, allowing network to start.\n");
 200077c:	01008134 	movhi	r4,516
 2000780:	21030604 	addi	r4,r4,3096
 2000784:	2012e080 	call	2012e08 <alt_printf>
		
		mssleep(1000);
 2000788:	0100fa04 	movi	r4,1000
 200078c:	200f2640 	call	200f264 <vTaskDelay>
	}

	mssleep(10);
 2000790:	01000284 	movi	r4,10
 2000794:	200f2640 	call	200f264 <vTaskDelay>

	return 0;
 2000798:	0005883a 	mov	r2,zero
}
 200079c:	e037883a 	mov	sp,fp
 20007a0:	dfc00117 	ldw	ra,4(sp)
 20007a4:	df000017 	ldw	fp,0(sp)
 20007a8:	dec00204 	addi	sp,sp,8
 20007ac:	f800283a 	ret

020007b0 <xEthernetRun>:


void xEthernetRun()
{
 20007b0:	defffd04 	addi	sp,sp,-12
 20007b4:	dfc00215 	stw	ra,8(sp)
 20007b8:	df000115 	stw	fp,4(sp)
 20007bc:	df000104 	addi	fp,sp,4
    alt_printf("--------- Init Network ---------\r\n");
 20007c0:	01008134 	movhi	r4,516
 20007c4:	21031704 	addi	r4,r4,3164
 20007c8:	2012e080 	call	2012e08 <alt_printf>

	// initialize PHY
	WaitOnPHY();
 20007cc:	20005e40 	call	20005e4 <WaitOnPHY>

	if (InitNetwork() != EXIT_SUCCESS) {
 20007d0:	200059c0 	call	200059c <InitNetwork>
 20007d4:	10000326 	beq	r2,zero,20007e4 <xEthernetRun+0x34>
		// the network initialization has failed.
		alt_printf("[ethernet] Network initialize failed!\n");
 20007d8:	01008134 	movhi	r4,516
 20007dc:	21032004 	addi	r4,r4,3200
 20007e0:	2012e080 	call	2012e08 <alt_printf>
	}

    nw_ready = 1;
 20007e4:	00800044 	movi	r2,1
 20007e8:	d0a7c415 	stw	r2,-24816(gp)
	alt_printf("--------- Init Done ---------\r\n");
 20007ec:	01008134 	movhi	r4,516
 20007f0:	21032a04 	addi	r4,r4,3240
 20007f4:	2012e080 	call	2012e08 <alt_printf>
    /*sys_thread_new("ping", PingThread, NULL,
    		THREAD_STACKSIZE,
            DEFAULT_THREAD_PRIO);*/

	struct netif* ethif;
	ethif = get_netif(0);
 20007f8:	0009883a 	mov	r4,zero
 20007fc:	2013b780 	call	2013b78 <get_netif>
 2000800:	e0bfff15 	stw	r2,-4(fp)

	IP4_ADDR(&PingIp, 192, 168, 1, 100);
 2000804:	009900b4 	movhi	r2,25602
 2000808:	10aa3004 	addi	r2,r2,-22336
 200080c:	d0a7c615 	stw	r2,-24808(gp)
	while(1) {

        //lwip_ping_target(PingIp.addr, 1, 0, 100);
		// sleep for 1 second
		//lwip_ping_target(PingIp.addr, 10, 0, 100);
        ethernetif_input(ethif);
 2000810:	e13fff17 	ldw	r4,-4(fp)
 2000814:	20134640 	call	2013464 <ethernetif_input>
        vTaskDelay(10);
 2000818:	01000284 	movi	r4,10
 200081c:	200f2640 	call	200f264 <vTaskDelay>
	}
 2000820:	003ffb06 	br	2000810 <__alt_mem_mem_0+0xfcfe0810>

02000824 <get_mac_addr>:
    //vTaskDelete(NULL);
}

// callback wrapper for lwip to get the interface configurations
int get_mac_addr(int iface, struct netif* ethif, unsigned char mac_addr[6])
{
 2000824:	defff704 	addi	sp,sp,-36
 2000828:	dfc00815 	stw	ra,32(sp)
 200082c:	df000715 	stw	fp,28(sp)
 2000830:	df000704 	addi	fp,sp,28
 2000834:	e13ffd15 	stw	r4,-12(fp)
 2000838:	e17ffe15 	stw	r5,-8(fp)
 200083c:	e1bfff15 	stw	r6,-4(fp)
	mac_addr[0] = 0x12;
 2000840:	e0bfff17 	ldw	r2,-4(fp)
 2000844:	00c00484 	movi	r3,18
 2000848:	10c00005 	stb	r3,0(r2)
	mac_addr[1] = 0x23;
 200084c:	e0bfff17 	ldw	r2,-4(fp)
 2000850:	10800044 	addi	r2,r2,1
 2000854:	00c008c4 	movi	r3,35
 2000858:	10c00005 	stb	r3,0(r2)
	mac_addr[2] = 0x45;
 200085c:	e0bfff17 	ldw	r2,-4(fp)
 2000860:	10800084 	addi	r2,r2,2
 2000864:	00c01144 	movi	r3,69
 2000868:	10c00005 	stb	r3,0(r2)
	mac_addr[3] = 0xFF;
 200086c:	e0bfff17 	ldw	r2,-4(fp)
 2000870:	108000c4 	addi	r2,r2,3
 2000874:	00ffffc4 	movi	r3,-1
 2000878:	10c00005 	stb	r3,0(r2)
	mac_addr[4] = 0xFF;
 200087c:	e0bfff17 	ldw	r2,-4(fp)
 2000880:	10800104 	addi	r2,r2,4
 2000884:	00ffffc4 	movi	r3,-1
 2000888:	10c00005 	stb	r3,0(r2)
	mac_addr[5] = 0xF0 + iface;
 200088c:	e0bfff17 	ldw	r2,-4(fp)
 2000890:	10800144 	addi	r2,r2,5
 2000894:	e0fffd17 	ldw	r3,-12(fp)
 2000898:	18fffc04 	addi	r3,r3,-16
 200089c:	10c00005 	stb	r3,0(r2)

	// only show info if net is not NULL
	if (ethif)
 20008a0:	e0bffe17 	ldw	r2,-8(fp)
 20008a4:	10002026 	beq	r2,zero,2000928 <get_mac_addr+0x104>
		printf("[ethernet] Using Ethernet MAC address %02x:%02x:%02x:%02x:%02x:%02x for interface: %d\n",
				mac_addr[0], mac_addr[1], mac_addr[2], mac_addr[3], mac_addr[4], mac_addr[5], iface);
 20008a8:	e0bfff17 	ldw	r2,-4(fp)
 20008ac:	10800003 	ldbu	r2,0(r2)
	mac_addr[4] = 0xFF;
	mac_addr[5] = 0xF0 + iface;

	// only show info if net is not NULL
	if (ethif)
		printf("[ethernet] Using Ethernet MAC address %02x:%02x:%02x:%02x:%02x:%02x for interface: %d\n",
 20008b0:	12003fcc 	andi	r8,r2,255
				mac_addr[0], mac_addr[1], mac_addr[2], mac_addr[3], mac_addr[4], mac_addr[5], iface);
 20008b4:	e0bfff17 	ldw	r2,-4(fp)
 20008b8:	10800044 	addi	r2,r2,1
 20008bc:	10800003 	ldbu	r2,0(r2)
	mac_addr[4] = 0xFF;
	mac_addr[5] = 0xF0 + iface;

	// only show info if net is not NULL
	if (ethif)
		printf("[ethernet] Using Ethernet MAC address %02x:%02x:%02x:%02x:%02x:%02x for interface: %d\n",
 20008c0:	11803fcc 	andi	r6,r2,255
				mac_addr[0], mac_addr[1], mac_addr[2], mac_addr[3], mac_addr[4], mac_addr[5], iface);
 20008c4:	e0bfff17 	ldw	r2,-4(fp)
 20008c8:	10800084 	addi	r2,r2,2
 20008cc:	10800003 	ldbu	r2,0(r2)
	mac_addr[4] = 0xFF;
	mac_addr[5] = 0xF0 + iface;

	// only show info if net is not NULL
	if (ethif)
		printf("[ethernet] Using Ethernet MAC address %02x:%02x:%02x:%02x:%02x:%02x for interface: %d\n",
 20008d0:	11c03fcc 	andi	r7,r2,255
				mac_addr[0], mac_addr[1], mac_addr[2], mac_addr[3], mac_addr[4], mac_addr[5], iface);
 20008d4:	e0bfff17 	ldw	r2,-4(fp)
 20008d8:	108000c4 	addi	r2,r2,3
 20008dc:	10800003 	ldbu	r2,0(r2)
	mac_addr[4] = 0xFF;
	mac_addr[5] = 0xF0 + iface;

	// only show info if net is not NULL
	if (ethif)
		printf("[ethernet] Using Ethernet MAC address %02x:%02x:%02x:%02x:%02x:%02x for interface: %d\n",
 20008e0:	10803fcc 	andi	r2,r2,255
				mac_addr[0], mac_addr[1], mac_addr[2], mac_addr[3], mac_addr[4], mac_addr[5], iface);
 20008e4:	e0ffff17 	ldw	r3,-4(fp)
 20008e8:	18c00104 	addi	r3,r3,4
 20008ec:	18c00003 	ldbu	r3,0(r3)
	mac_addr[4] = 0xFF;
	mac_addr[5] = 0xF0 + iface;

	// only show info if net is not NULL
	if (ethif)
		printf("[ethernet] Using Ethernet MAC address %02x:%02x:%02x:%02x:%02x:%02x for interface: %d\n",
 20008f0:	18c03fcc 	andi	r3,r3,255
				mac_addr[0], mac_addr[1], mac_addr[2], mac_addr[3], mac_addr[4], mac_addr[5], iface);
 20008f4:	e13fff17 	ldw	r4,-4(fp)
 20008f8:	21000144 	addi	r4,r4,5
 20008fc:	21000003 	ldbu	r4,0(r4)
	mac_addr[4] = 0xFF;
	mac_addr[5] = 0xF0 + iface;

	// only show info if net is not NULL
	if (ethif)
		printf("[ethernet] Using Ethernet MAC address %02x:%02x:%02x:%02x:%02x:%02x for interface: %d\n",
 2000900:	21003fcc 	andi	r4,r4,255
 2000904:	e17ffd17 	ldw	r5,-12(fp)
 2000908:	d9400315 	stw	r5,12(sp)
 200090c:	d9000215 	stw	r4,8(sp)
 2000910:	d8c00115 	stw	r3,4(sp)
 2000914:	d8800015 	stw	r2,0(sp)
 2000918:	400b883a 	mov	r5,r8
 200091c:	01008134 	movhi	r4,516
 2000920:	21033204 	addi	r4,r4,3272
 2000924:	2000bb00 	call	2000bb0 <printf>
				mac_addr[0], mac_addr[1], mac_addr[2], mac_addr[3], mac_addr[4], mac_addr[5], iface);

	return EXIT_SUCCESS;
 2000928:	0005883a 	mov	r2,zero
}
 200092c:	e037883a 	mov	sp,fp
 2000930:	dfc00117 	ldw	ra,4(sp)
 2000934:	df000017 	ldw	fp,0(sp)
 2000938:	dec00204 	addi	sp,sp,8
 200093c:	f800283a 	ret

02000940 <get_ip_addr>:

// callback wrapper for lwip to get the IP configurations
int get_ip_addr(int iface, ip_addr_t* ipaddr, ip_addr_t* netmask, ip_addr_t* gw, int* use_dhcp)
{
 2000940:	deffba04 	addi	sp,sp,-280
 2000944:	dfc04515 	stw	ra,276(sp)
 2000948:	df004415 	stw	fp,272(sp)
 200094c:	df004404 	addi	fp,sp,272
 2000950:	e13ffc15 	stw	r4,-16(fp)
 2000954:	e17ffd15 	stw	r5,-12(fp)
 2000958:	e1bffe15 	stw	r6,-8(fp)
 200095c:	e1ffff15 	stw	r7,-4(fp)
	// set configuration
	IP4_ADDR(ipaddr, 192, 168, 1, 218);
 2000960:	e0fffd17 	ldw	r3,-12(fp)
 2000964:	00b680b4 	movhi	r2,55810
 2000968:	10aa3004 	addi	r2,r2,-22336
 200096c:	18800015 	stw	r2,0(r3)
	IP4_ADDR(netmask, 255, 255, 255, 0);
 2000970:	e0fffe17 	ldw	r3,-8(fp)
 2000974:	00804034 	movhi	r2,256
 2000978:	10bfffc4 	addi	r2,r2,-1
 200097c:	18800015 	stw	r2,0(r3)
	IP4_ADDR(gw, 192, 168, 1, 1);
 2000980:	e0ffff17 	ldw	r3,-4(fp)
 2000984:	008040b4 	movhi	r2,258
 2000988:	10aa3004 	addi	r2,r2,-22336
 200098c:	18800015 	stw	r2,0(r3)
	*use_dhcp = 0;
 2000990:	e0800217 	ldw	r2,8(fp)
 2000994:	10000015 	stw	zero,0(r2)

	if (*use_dhcp == 0){
 2000998:	e0800217 	ldw	r2,8(fp)
 200099c:	10800017 	ldw	r2,0(r2)
 20009a0:	10000b1e 	bne	r2,zero,20009d0 <get_ip_addr+0x90>
		char buf[255];
		print_ipad(ipaddr->addr, buf);
 20009a4:	e0bffd17 	ldw	r2,-12(fp)
 20009a8:	10800017 	ldw	r2,0(r2)
 20009ac:	e17fbc04 	addi	r5,fp,-272
 20009b0:	1009883a 	mov	r4,r2
 20009b4:	2013dec0 	call	2013dec <print_ipad>
		printf("[ethernet] Static IP Address for interface %d %s\n", iface, buf);
 20009b8:	e1bfbc04 	addi	r6,fp,-272
 20009bc:	e17ffc17 	ldw	r5,-16(fp)
 20009c0:	01008134 	movhi	r4,516
 20009c4:	21034804 	addi	r4,r4,3360
 20009c8:	2000bb00 	call	2000bb0 <printf>
 20009cc:	00000406 	br	20009e0 <get_ip_addr+0xa0>
	}
	else
		printf("[ethernet] Starting get IP via DHCP for interface %d\n", iface);
 20009d0:	e17ffc17 	ldw	r5,-16(fp)
 20009d4:	01008134 	movhi	r4,516
 20009d8:	21035504 	addi	r4,r4,3412
 20009dc:	2000bb00 	call	2000bb0 <printf>

	return EXIT_SUCCESS;
 20009e0:	0005883a 	mov	r2,zero
}
 20009e4:	e037883a 	mov	sp,fp
 20009e8:	dfc00117 	ldw	ra,4(sp)
 20009ec:	df000017 	ldw	fp,0(sp)
 20009f0:	dec00204 	addi	sp,sp,8
 20009f4:	f800283a 	ret

020009f8 <get_hostname>:

int get_hostname(int iface, const char **hostname)
{
 20009f8:	defffd04 	addi	sp,sp,-12
 20009fc:	df000215 	stw	fp,8(sp)
 2000a00:	df000204 	addi	fp,sp,8
 2000a04:	e13ffe15 	stw	r4,-8(fp)
 2000a08:	e17fff15 	stw	r5,-4(fp)
	*hostname = "LwIP";
 2000a0c:	e0ffff17 	ldw	r3,-4(fp)
 2000a10:	00808134 	movhi	r2,516
 2000a14:	10836304 	addi	r2,r2,3468
 2000a18:	18800015 	stw	r2,0(r3)

	return ERR_OK;
 2000a1c:	0005883a 	mov	r2,zero
}
 2000a20:	e037883a 	mov	sp,fp
 2000a24:	df000017 	ldw	fp,0(sp)
 2000a28:	dec00104 	addi	sp,sp,4
 2000a2c:	f800283a 	ret

02000a30 <get_iface_name>:

int get_iface_name(int iface, char name[ETH_IFACE_NAME_LENGTH])
{
 2000a30:	defffd04 	addi	sp,sp,-12
 2000a34:	df000215 	stw	fp,8(sp)
 2000a38:	df000204 	addi	fp,sp,8
 2000a3c:	e13ffe15 	stw	r4,-8(fp)
 2000a40:	e17fff15 	stw	r5,-4(fp)
	name[0] = 'e';
 2000a44:	e0bfff17 	ldw	r2,-4(fp)
 2000a48:	00c01944 	movi	r3,101
 2000a4c:	10c00005 	stb	r3,0(r2)
	name[1] = (iface + 0x30);
 2000a50:	e0bfff17 	ldw	r2,-4(fp)
 2000a54:	10800044 	addi	r2,r2,1
 2000a58:	e0fffe17 	ldw	r3,-8(fp)
 2000a5c:	18c00c04 	addi	r3,r3,48
 2000a60:	10c00005 	stb	r3,0(r2)

	return ERR_OK;
 2000a64:	0005883a 	mov	r2,zero
}
 2000a68:	e037883a 	mov	sp,fp
 2000a6c:	df000017 	ldw	fp,0(sp)
 2000a70:	dec00104 	addi	sp,sp,4
 2000a74:	f800283a 	ret

02000a78 <is_interface_active>:

int is_interface_active(int iface)
{
 2000a78:	defffe04 	addi	sp,sp,-8
 2000a7c:	df000115 	stw	fp,4(sp)
 2000a80:	df000104 	addi	fp,sp,4
 2000a84:	e13fff15 	stw	r4,-4(fp)
	return 1;
 2000a88:	00800044 	movi	r2,1
}
 2000a8c:	e037883a 	mov	sp,fp
 2000a90:	df000017 	ldw	fp,0(sp)
 2000a94:	dec00104 	addi	sp,sp,4
 2000a98:	f800283a 	ret

02000a9c <main>:


int main(){
 2000a9c:	defffd04 	addi	sp,sp,-12
 2000aa0:	dfc00215 	stw	ra,8(sp)
 2000aa4:	df000115 	stw	fp,4(sp)
 2000aa8:	df000104 	addi	fp,sp,4
    main_thread_handle = sys_thread_new("main_thrd", (void(*)(void*))main_thread, 0,
 2000aac:	008000c4 	movi	r2,3
 2000ab0:	d8800015 	stw	r2,0(sp)
 2000ab4:	01c40004 	movi	r7,4096
 2000ab8:	000d883a 	mov	r6,zero
 2000abc:	01408034 	movhi	r5,512
 2000ac0:	2942b704 	addi	r5,r5,2780
 2000ac4:	01008134 	movhi	r4,516
 2000ac8:	21036504 	addi	r4,r4,3476
 2000acc:	20155600 	call	2015560 <sys_thread_new>
 2000ad0:	d0a7c515 	stw	r2,-24812(gp)
                    THREAD_STACKSIZE,
					DEFAULT_THREAD_PRIO);
    vTaskStartScheduler();
 2000ad4:	200f98c0 	call	200f98c <vTaskStartScheduler>
    while(1);
 2000ad8:	003fff06 	br	2000ad8 <__alt_mem_mem_0+0xfcfe0ad8>

02000adc <main_thread>:
    return 0;
}


int main_thread(){
 2000adc:	defffd04 	addi	sp,sp,-12
 2000ae0:	dfc00215 	stw	ra,8(sp)
 2000ae4:	df000115 	stw	fp,4(sp)
 2000ae8:	df000104 	addi	fp,sp,4
	alt_printf("------------------------------------------------------\r\n");
 2000aec:	01008134 	movhi	r4,516
 2000af0:	21036804 	addi	r4,r4,3488
 2000af4:	2012e080 	call	2012e08 <alt_printf>
	alt_printf("--------- Starting OPC UA Server application ---------\r\n");
 2000af8:	01008134 	movhi	r4,516
 2000afc:	21037704 	addi	r4,r4,3548
 2000b00:	2012e080 	call	2012e08 <alt_printf>
	alt_printf("------------------------------------------------------\r\n");
 2000b04:	01008134 	movhi	r4,516
 2000b08:	21036804 	addi	r4,r4,3488
 2000b0c:	2012e080 	call	2012e08 <alt_printf>
	alt_printf("--------- open62541 example created for a    ---------\r\n");
 2000b10:	01008134 	movhi	r4,516
 2000b14:	21038604 	addi	r4,r4,3608
 2000b18:	2012e080 	call	2012e08 <alt_printf>
    alt_printf("--------- MicroBlaze design on a Artix7 FPGA ---------\r\n");
 2000b1c:	01008134 	movhi	r4,516
 2000b20:	21039504 	addi	r4,r4,3668
 2000b24:	2012e080 	call	2012e08 <alt_printf>
    alt_printf("------------------------------------------------------\r\n");
 2000b28:	01008134 	movhi	r4,516
 2000b2c:	21036804 	addi	r4,r4,3488
 2000b30:	2012e080 	call	2012e08 <alt_printf>
    alt_printf("--------- NetTImeLogic GmbH, Switzerland     ---------\r\n");
 2000b34:	01008134 	movhi	r4,516
 2000b38:	2103a404 	addi	r4,r4,3728
 2000b3c:	2012e080 	call	2012e08 <alt_printf>
    alt_printf("--------- contact@nettimelogic.com           ---------\r\n");
 2000b40:	01008134 	movhi	r4,516
 2000b44:	2103b304 	addi	r4,r4,3788
 2000b48:	2012e080 	call	2012e08 <alt_printf>
    alt_printf("------------------------------------------------------\r\n");
 2000b4c:	01008134 	movhi	r4,516
 2000b50:	21036804 	addi	r4,r4,3488
 2000b54:	2012e080 	call	2012e08 <alt_printf>

	//xTaskCreate(xEthernetRun, "eth0", KB(4), NULL, tskIDLE_PRIORITY + 2, NULL);

	sys_thread_new("NetworkInit", xEthernetRun, NULL,
 2000b58:	008000c4 	movi	r2,3
 2000b5c:	d8800015 	stw	r2,0(sp)
 2000b60:	01c40004 	movi	r7,4096
 2000b64:	000d883a 	mov	r6,zero
 2000b68:	01408034 	movhi	r5,512
 2000b6c:	2941ec04 	addi	r5,r5,1968
 2000b70:	01008134 	movhi	r4,516
 2000b74:	2103c204 	addi	r4,r4,3848
 2000b78:	20155600 	call	2015560 <sys_thread_new>
            DEFAULT_THREAD_PRIO);



    //vTaskStartScheduler();
    while(1);
 2000b7c:	003fff06 	br	2000b7c <__alt_mem_mem_0+0xfcfe0b7c>

02000b80 <_printf_r>:
 2000b80:	defffd04 	addi	sp,sp,-12
 2000b84:	2805883a 	mov	r2,r5
 2000b88:	dfc00015 	stw	ra,0(sp)
 2000b8c:	d9800115 	stw	r6,4(sp)
 2000b90:	d9c00215 	stw	r7,8(sp)
 2000b94:	21400217 	ldw	r5,8(r4)
 2000b98:	d9c00104 	addi	r7,sp,4
 2000b9c:	100d883a 	mov	r6,r2
 2000ba0:	2000bec0 	call	2000bec <___vfprintf_internal_r>
 2000ba4:	dfc00017 	ldw	ra,0(sp)
 2000ba8:	dec00304 	addi	sp,sp,12
 2000bac:	f800283a 	ret

02000bb0 <printf>:
 2000bb0:	defffc04 	addi	sp,sp,-16
 2000bb4:	dfc00015 	stw	ra,0(sp)
 2000bb8:	d9400115 	stw	r5,4(sp)
 2000bbc:	d9800215 	stw	r6,8(sp)
 2000bc0:	d9c00315 	stw	r7,12(sp)
 2000bc4:	00808134 	movhi	r2,516
 2000bc8:	10963d04 	addi	r2,r2,22772
 2000bcc:	10800017 	ldw	r2,0(r2)
 2000bd0:	200b883a 	mov	r5,r4
 2000bd4:	d9800104 	addi	r6,sp,4
 2000bd8:	11000217 	ldw	r4,8(r2)
 2000bdc:	2002de40 	call	2002de4 <__vfprintf_internal>
 2000be0:	dfc00017 	ldw	ra,0(sp)
 2000be4:	dec00404 	addi	sp,sp,16
 2000be8:	f800283a 	ret

02000bec <___vfprintf_internal_r>:
 2000bec:	deffb804 	addi	sp,sp,-288
 2000bf0:	dfc04715 	stw	ra,284(sp)
 2000bf4:	ddc04515 	stw	r23,276(sp)
 2000bf8:	dd404315 	stw	r21,268(sp)
 2000bfc:	d9002c15 	stw	r4,176(sp)
 2000c00:	282f883a 	mov	r23,r5
 2000c04:	302b883a 	mov	r21,r6
 2000c08:	d9c02d15 	stw	r7,180(sp)
 2000c0c:	df004615 	stw	fp,280(sp)
 2000c10:	dd804415 	stw	r22,272(sp)
 2000c14:	dd004215 	stw	r20,264(sp)
 2000c18:	dcc04115 	stw	r19,260(sp)
 2000c1c:	dc804015 	stw	r18,256(sp)
 2000c20:	dc403f15 	stw	r17,252(sp)
 2000c24:	dc003e15 	stw	r16,248(sp)
 2000c28:	20055480 	call	2005548 <_localeconv_r>
 2000c2c:	10800017 	ldw	r2,0(r2)
 2000c30:	1009883a 	mov	r4,r2
 2000c34:	d8803415 	stw	r2,208(sp)
 2000c38:	20075700 	call	2007570 <strlen>
 2000c3c:	d8803715 	stw	r2,220(sp)
 2000c40:	d8802c17 	ldw	r2,176(sp)
 2000c44:	10000226 	beq	r2,zero,2000c50 <___vfprintf_internal_r+0x64>
 2000c48:	10800e17 	ldw	r2,56(r2)
 2000c4c:	1000f926 	beq	r2,zero,2001034 <___vfprintf_internal_r+0x448>
 2000c50:	b880030b 	ldhu	r2,12(r23)
 2000c54:	10c8000c 	andi	r3,r2,8192
 2000c58:	1800061e 	bne	r3,zero,2000c74 <___vfprintf_internal_r+0x88>
 2000c5c:	b9001917 	ldw	r4,100(r23)
 2000c60:	00f7ffc4 	movi	r3,-8193
 2000c64:	10880014 	ori	r2,r2,8192
 2000c68:	20c6703a 	and	r3,r4,r3
 2000c6c:	b880030d 	sth	r2,12(r23)
 2000c70:	b8c01915 	stw	r3,100(r23)
 2000c74:	10c0020c 	andi	r3,r2,8
 2000c78:	1800c126 	beq	r3,zero,2000f80 <___vfprintf_internal_r+0x394>
 2000c7c:	b8c00417 	ldw	r3,16(r23)
 2000c80:	1800bf26 	beq	r3,zero,2000f80 <___vfprintf_internal_r+0x394>
 2000c84:	1080068c 	andi	r2,r2,26
 2000c88:	00c00284 	movi	r3,10
 2000c8c:	10c0c426 	beq	r2,r3,2000fa0 <___vfprintf_internal_r+0x3b4>
 2000c90:	d8c00404 	addi	r3,sp,16
 2000c94:	05008134 	movhi	r20,516
 2000c98:	d9001e04 	addi	r4,sp,120
 2000c9c:	a503d584 	addi	r20,r20,3926
 2000ca0:	d8c01e15 	stw	r3,120(sp)
 2000ca4:	d8002015 	stw	zero,128(sp)
 2000ca8:	d8001f15 	stw	zero,124(sp)
 2000cac:	d8003315 	stw	zero,204(sp)
 2000cb0:	d8003615 	stw	zero,216(sp)
 2000cb4:	d8003815 	stw	zero,224(sp)
 2000cb8:	1811883a 	mov	r8,r3
 2000cbc:	d8003915 	stw	zero,228(sp)
 2000cc0:	d8003a15 	stw	zero,232(sp)
 2000cc4:	d8002f15 	stw	zero,188(sp)
 2000cc8:	d9002815 	stw	r4,160(sp)
 2000ccc:	a8800007 	ldb	r2,0(r21)
 2000cd0:	10027b26 	beq	r2,zero,20016c0 <___vfprintf_internal_r+0xad4>
 2000cd4:	00c00944 	movi	r3,37
 2000cd8:	a821883a 	mov	r16,r21
 2000cdc:	10c0021e 	bne	r2,r3,2000ce8 <___vfprintf_internal_r+0xfc>
 2000ce0:	00001406 	br	2000d34 <___vfprintf_internal_r+0x148>
 2000ce4:	10c00326 	beq	r2,r3,2000cf4 <___vfprintf_internal_r+0x108>
 2000ce8:	84000044 	addi	r16,r16,1
 2000cec:	80800007 	ldb	r2,0(r16)
 2000cf0:	103ffc1e 	bne	r2,zero,2000ce4 <__alt_mem_mem_0+0xfcfe0ce4>
 2000cf4:	8563c83a 	sub	r17,r16,r21
 2000cf8:	88000e26 	beq	r17,zero,2000d34 <___vfprintf_internal_r+0x148>
 2000cfc:	d8c02017 	ldw	r3,128(sp)
 2000d00:	d8801f17 	ldw	r2,124(sp)
 2000d04:	45400015 	stw	r21,0(r8)
 2000d08:	1c47883a 	add	r3,r3,r17
 2000d0c:	10800044 	addi	r2,r2,1
 2000d10:	d8c02015 	stw	r3,128(sp)
 2000d14:	44400115 	stw	r17,4(r8)
 2000d18:	d8801f15 	stw	r2,124(sp)
 2000d1c:	00c001c4 	movi	r3,7
 2000d20:	1880a716 	blt	r3,r2,2000fc0 <___vfprintf_internal_r+0x3d4>
 2000d24:	42000204 	addi	r8,r8,8
 2000d28:	d9402f17 	ldw	r5,188(sp)
 2000d2c:	2c4b883a 	add	r5,r5,r17
 2000d30:	d9402f15 	stw	r5,188(sp)
 2000d34:	80800007 	ldb	r2,0(r16)
 2000d38:	1000a826 	beq	r2,zero,2000fdc <___vfprintf_internal_r+0x3f0>
 2000d3c:	84400047 	ldb	r17,1(r16)
 2000d40:	00bfffc4 	movi	r2,-1
 2000d44:	85400044 	addi	r21,r16,1
 2000d48:	d8002785 	stb	zero,158(sp)
 2000d4c:	0007883a 	mov	r3,zero
 2000d50:	000f883a 	mov	r7,zero
 2000d54:	d8802915 	stw	r2,164(sp)
 2000d58:	d8003115 	stw	zero,196(sp)
 2000d5c:	0025883a 	mov	r18,zero
 2000d60:	01401604 	movi	r5,88
 2000d64:	01800244 	movi	r6,9
 2000d68:	02800a84 	movi	r10,42
 2000d6c:	02401b04 	movi	r9,108
 2000d70:	ad400044 	addi	r21,r21,1
 2000d74:	88bff804 	addi	r2,r17,-32
 2000d78:	28830436 	bltu	r5,r2,200198c <___vfprintf_internal_r+0xda0>
 2000d7c:	100490ba 	slli	r2,r2,2
 2000d80:	01008034 	movhi	r4,512
 2000d84:	21036504 	addi	r4,r4,3476
 2000d88:	1105883a 	add	r2,r2,r4
 2000d8c:	10800017 	ldw	r2,0(r2)
 2000d90:	1000683a 	jmp	r2
 2000d94:	020018ac 	andhi	r8,zero,98
 2000d98:	0200198c 	andi	r8,zero,102
 2000d9c:	0200198c 	andi	r8,zero,102
 2000da0:	020018cc 	andi	r8,zero,99
 2000da4:	0200198c 	andi	r8,zero,102
 2000da8:	0200198c 	andi	r8,zero,102
 2000dac:	0200198c 	andi	r8,zero,102
 2000db0:	0200198c 	andi	r8,zero,102
 2000db4:	0200198c 	andi	r8,zero,102
 2000db8:	0200198c 	andi	r8,zero,102
 2000dbc:	02001040 	call	200104 <alt_exception_muldiv+0x200104>
 2000dc0:	020017e8 	cmpgeui	r8,zero,95
 2000dc4:	0200198c 	andi	r8,zero,102
 2000dc8:	02000f08 	cmpgei	r8,zero,60
 2000dcc:	02001068 	cmpgeui	r8,zero,65
 2000dd0:	0200198c 	andi	r8,zero,102
 2000dd4:	020010a8 	cmpgeui	r8,zero,66
 2000dd8:	020010b4 	movhi	r8,66
 2000ddc:	020010b4 	movhi	r8,66
 2000de0:	020010b4 	movhi	r8,66
 2000de4:	020010b4 	movhi	r8,66
 2000de8:	020010b4 	movhi	r8,66
 2000dec:	020010b4 	movhi	r8,66
 2000df0:	020010b4 	movhi	r8,66
 2000df4:	020010b4 	movhi	r8,66
 2000df8:	020010b4 	movhi	r8,66
 2000dfc:	0200198c 	andi	r8,zero,102
 2000e00:	0200198c 	andi	r8,zero,102
 2000e04:	0200198c 	andi	r8,zero,102
 2000e08:	0200198c 	andi	r8,zero,102
 2000e0c:	0200198c 	andi	r8,zero,102
 2000e10:	0200198c 	andi	r8,zero,102
 2000e14:	0200198c 	andi	r8,zero,102
 2000e18:	0200198c 	andi	r8,zero,102
 2000e1c:	0200198c 	andi	r8,zero,102
 2000e20:	0200198c 	andi	r8,zero,102
 2000e24:	020010e8 	cmpgeui	r8,zero,67
 2000e28:	020011a4 	muli	r8,zero,70
 2000e2c:	0200198c 	andi	r8,zero,102
 2000e30:	020011a4 	muli	r8,zero,70
 2000e34:	0200198c 	andi	r8,zero,102
 2000e38:	0200198c 	andi	r8,zero,102
 2000e3c:	0200198c 	andi	r8,zero,102
 2000e40:	0200198c 	andi	r8,zero,102
 2000e44:	02001244 	movi	r8,73
 2000e48:	0200198c 	andi	r8,zero,102
 2000e4c:	0200198c 	andi	r8,zero,102
 2000e50:	02001250 	cmplti	r8,zero,73
 2000e54:	0200198c 	andi	r8,zero,102
 2000e58:	0200198c 	andi	r8,zero,102
 2000e5c:	0200198c 	andi	r8,zero,102
 2000e60:	0200198c 	andi	r8,zero,102
 2000e64:	0200198c 	andi	r8,zero,102
 2000e68:	020016c8 	cmpgei	r8,zero,91
 2000e6c:	0200198c 	andi	r8,zero,102
 2000e70:	0200198c 	andi	r8,zero,102
 2000e74:	02001728 	cmpgeui	r8,zero,92
 2000e78:	0200198c 	andi	r8,zero,102
 2000e7c:	0200198c 	andi	r8,zero,102
 2000e80:	0200198c 	andi	r8,zero,102
 2000e84:	0200198c 	andi	r8,zero,102
 2000e88:	0200198c 	andi	r8,zero,102
 2000e8c:	0200198c 	andi	r8,zero,102
 2000e90:	0200198c 	andi	r8,zero,102
 2000e94:	0200198c 	andi	r8,zero,102
 2000e98:	0200198c 	andi	r8,zero,102
 2000e9c:	0200198c 	andi	r8,zero,102
 2000ea0:	02001938 	rdprs	r8,zero,100
 2000ea4:	020018d8 	cmpnei	r8,zero,99
 2000ea8:	020011a4 	muli	r8,zero,70
 2000eac:	020011a4 	muli	r8,zero,70
 2000eb0:	020011a4 	muli	r8,zero,70
 2000eb4:	020018e8 	cmpgeui	r8,zero,99
 2000eb8:	020018d8 	cmpnei	r8,zero,99
 2000ebc:	0200198c 	andi	r8,zero,102
 2000ec0:	0200198c 	andi	r8,zero,102
 2000ec4:	020018f4 	movhi	r8,99
 2000ec8:	0200198c 	andi	r8,zero,102
 2000ecc:	02001904 	movi	r8,100
 2000ed0:	020017d8 	cmpnei	r8,zero,95
 2000ed4:	02000f14 	movui	r8,60
 2000ed8:	020017f8 	rdprs	r8,zero,95
 2000edc:	0200198c 	andi	r8,zero,102
 2000ee0:	02001804 	movi	r8,96
 2000ee4:	0200198c 	andi	r8,zero,102
 2000ee8:	02001860 	cmpeqi	r8,zero,97
 2000eec:	0200198c 	andi	r8,zero,102
 2000ef0:	0200198c 	andi	r8,zero,102
 2000ef4:	02001870 	cmpltui	r8,zero,97
 2000ef8:	d9003117 	ldw	r4,196(sp)
 2000efc:	d8802d15 	stw	r2,180(sp)
 2000f00:	0109c83a 	sub	r4,zero,r4
 2000f04:	d9003115 	stw	r4,196(sp)
 2000f08:	94800114 	ori	r18,r18,4
 2000f0c:	ac400007 	ldb	r17,0(r21)
 2000f10:	003f9706 	br	2000d70 <__alt_mem_mem_0+0xfcfe0d70>
 2000f14:	00800c04 	movi	r2,48
 2000f18:	d9002d17 	ldw	r4,180(sp)
 2000f1c:	d9402917 	ldw	r5,164(sp)
 2000f20:	d8802705 	stb	r2,156(sp)
 2000f24:	00801e04 	movi	r2,120
 2000f28:	d8802745 	stb	r2,157(sp)
 2000f2c:	d8002785 	stb	zero,158(sp)
 2000f30:	20c00104 	addi	r3,r4,4
 2000f34:	24c00017 	ldw	r19,0(r4)
 2000f38:	002d883a 	mov	r22,zero
 2000f3c:	90800094 	ori	r2,r18,2
 2000f40:	28029a16 	blt	r5,zero,20019ac <___vfprintf_internal_r+0xdc0>
 2000f44:	00bfdfc4 	movi	r2,-129
 2000f48:	90a4703a 	and	r18,r18,r2
 2000f4c:	d8c02d15 	stw	r3,180(sp)
 2000f50:	94800094 	ori	r18,r18,2
 2000f54:	9802871e 	bne	r19,zero,2001974 <___vfprintf_internal_r+0xd88>
 2000f58:	00808134 	movhi	r2,516
 2000f5c:	1083ce04 	addi	r2,r2,3896
 2000f60:	d8803915 	stw	r2,228(sp)
 2000f64:	04401e04 	movi	r17,120
 2000f68:	d8802917 	ldw	r2,164(sp)
 2000f6c:	0039883a 	mov	fp,zero
 2000f70:	1001e926 	beq	r2,zero,2001718 <___vfprintf_internal_r+0xb2c>
 2000f74:	0027883a 	mov	r19,zero
 2000f78:	002d883a 	mov	r22,zero
 2000f7c:	00020506 	br	2001794 <___vfprintf_internal_r+0xba8>
 2000f80:	d9002c17 	ldw	r4,176(sp)
 2000f84:	b80b883a 	mov	r5,r23
 2000f88:	2002ebc0 	call	2002ebc <__swsetup_r>
 2000f8c:	1005ac1e 	bne	r2,zero,2002640 <___vfprintf_internal_r+0x1a54>
 2000f90:	b880030b 	ldhu	r2,12(r23)
 2000f94:	00c00284 	movi	r3,10
 2000f98:	1080068c 	andi	r2,r2,26
 2000f9c:	10ff3c1e 	bne	r2,r3,2000c90 <__alt_mem_mem_0+0xfcfe0c90>
 2000fa0:	b880038f 	ldh	r2,14(r23)
 2000fa4:	103f3a16 	blt	r2,zero,2000c90 <__alt_mem_mem_0+0xfcfe0c90>
 2000fa8:	d9c02d17 	ldw	r7,180(sp)
 2000fac:	d9002c17 	ldw	r4,176(sp)
 2000fb0:	a80d883a 	mov	r6,r21
 2000fb4:	b80b883a 	mov	r5,r23
 2000fb8:	2002e000 	call	2002e00 <__sbprintf>
 2000fbc:	00001106 	br	2001004 <___vfprintf_internal_r+0x418>
 2000fc0:	d9002c17 	ldw	r4,176(sp)
 2000fc4:	d9801e04 	addi	r6,sp,120
 2000fc8:	b80b883a 	mov	r5,r23
 2000fcc:	20077040 	call	2007704 <__sprint_r>
 2000fd0:	1000081e 	bne	r2,zero,2000ff4 <___vfprintf_internal_r+0x408>
 2000fd4:	da000404 	addi	r8,sp,16
 2000fd8:	003f5306 	br	2000d28 <__alt_mem_mem_0+0xfcfe0d28>
 2000fdc:	d8802017 	ldw	r2,128(sp)
 2000fe0:	10000426 	beq	r2,zero,2000ff4 <___vfprintf_internal_r+0x408>
 2000fe4:	d9002c17 	ldw	r4,176(sp)
 2000fe8:	d9801e04 	addi	r6,sp,120
 2000fec:	b80b883a 	mov	r5,r23
 2000ff0:	20077040 	call	2007704 <__sprint_r>
 2000ff4:	b880030b 	ldhu	r2,12(r23)
 2000ff8:	1080100c 	andi	r2,r2,64
 2000ffc:	1005901e 	bne	r2,zero,2002640 <___vfprintf_internal_r+0x1a54>
 2001000:	d8802f17 	ldw	r2,188(sp)
 2001004:	dfc04717 	ldw	ra,284(sp)
 2001008:	df004617 	ldw	fp,280(sp)
 200100c:	ddc04517 	ldw	r23,276(sp)
 2001010:	dd804417 	ldw	r22,272(sp)
 2001014:	dd404317 	ldw	r21,268(sp)
 2001018:	dd004217 	ldw	r20,264(sp)
 200101c:	dcc04117 	ldw	r19,260(sp)
 2001020:	dc804017 	ldw	r18,256(sp)
 2001024:	dc403f17 	ldw	r17,252(sp)
 2001028:	dc003e17 	ldw	r16,248(sp)
 200102c:	dec04804 	addi	sp,sp,288
 2001030:	f800283a 	ret
 2001034:	d9002c17 	ldw	r4,176(sp)
 2001038:	2004e900 	call	2004e90 <__sinit>
 200103c:	003f0406 	br	2000c50 <__alt_mem_mem_0+0xfcfe0c50>
 2001040:	d8802d17 	ldw	r2,180(sp)
 2001044:	d9002d17 	ldw	r4,180(sp)
 2001048:	10800017 	ldw	r2,0(r2)
 200104c:	d8803115 	stw	r2,196(sp)
 2001050:	20800104 	addi	r2,r4,4
 2001054:	d9003117 	ldw	r4,196(sp)
 2001058:	203fa716 	blt	r4,zero,2000ef8 <__alt_mem_mem_0+0xfcfe0ef8>
 200105c:	d8802d15 	stw	r2,180(sp)
 2001060:	ac400007 	ldb	r17,0(r21)
 2001064:	003f4206 	br	2000d70 <__alt_mem_mem_0+0xfcfe0d70>
 2001068:	ac400007 	ldb	r17,0(r21)
 200106c:	aac00044 	addi	r11,r21,1
 2001070:	8a872826 	beq	r17,r10,2002d14 <___vfprintf_internal_r+0x2128>
 2001074:	88bff404 	addi	r2,r17,-48
 2001078:	0009883a 	mov	r4,zero
 200107c:	30867d36 	bltu	r6,r2,2002a74 <___vfprintf_internal_r+0x1e88>
 2001080:	5c400007 	ldb	r17,0(r11)
 2001084:	210002a4 	muli	r4,r4,10
 2001088:	5d400044 	addi	r21,r11,1
 200108c:	a817883a 	mov	r11,r21
 2001090:	2089883a 	add	r4,r4,r2
 2001094:	88bff404 	addi	r2,r17,-48
 2001098:	30bff92e 	bgeu	r6,r2,2001080 <__alt_mem_mem_0+0xfcfe1080>
 200109c:	2005c916 	blt	r4,zero,20027c4 <___vfprintf_internal_r+0x1bd8>
 20010a0:	d9002915 	stw	r4,164(sp)
 20010a4:	003f3306 	br	2000d74 <__alt_mem_mem_0+0xfcfe0d74>
 20010a8:	94802014 	ori	r18,r18,128
 20010ac:	ac400007 	ldb	r17,0(r21)
 20010b0:	003f2f06 	br	2000d70 <__alt_mem_mem_0+0xfcfe0d70>
 20010b4:	a809883a 	mov	r4,r21
 20010b8:	d8003115 	stw	zero,196(sp)
 20010bc:	88bff404 	addi	r2,r17,-48
 20010c0:	0017883a 	mov	r11,zero
 20010c4:	24400007 	ldb	r17,0(r4)
 20010c8:	5ac002a4 	muli	r11,r11,10
 20010cc:	ad400044 	addi	r21,r21,1
 20010d0:	a809883a 	mov	r4,r21
 20010d4:	12d7883a 	add	r11,r2,r11
 20010d8:	88bff404 	addi	r2,r17,-48
 20010dc:	30bff92e 	bgeu	r6,r2,20010c4 <__alt_mem_mem_0+0xfcfe10c4>
 20010e0:	dac03115 	stw	r11,196(sp)
 20010e4:	003f2306 	br	2000d74 <__alt_mem_mem_0+0xfcfe0d74>
 20010e8:	18c03fcc 	andi	r3,r3,255
 20010ec:	18072b1e 	bne	r3,zero,2002d9c <___vfprintf_internal_r+0x21b0>
 20010f0:	94800414 	ori	r18,r18,16
 20010f4:	9080080c 	andi	r2,r18,32
 20010f8:	10037b26 	beq	r2,zero,2001ee8 <___vfprintf_internal_r+0x12fc>
 20010fc:	d9402d17 	ldw	r5,180(sp)
 2001100:	28800117 	ldw	r2,4(r5)
 2001104:	2cc00017 	ldw	r19,0(r5)
 2001108:	29400204 	addi	r5,r5,8
 200110c:	d9402d15 	stw	r5,180(sp)
 2001110:	102d883a 	mov	r22,r2
 2001114:	10044b16 	blt	r2,zero,2002244 <___vfprintf_internal_r+0x1658>
 2001118:	d9402917 	ldw	r5,164(sp)
 200111c:	df002783 	ldbu	fp,158(sp)
 2001120:	2803bc16 	blt	r5,zero,2002014 <___vfprintf_internal_r+0x1428>
 2001124:	00ffdfc4 	movi	r3,-129
 2001128:	9d84b03a 	or	r2,r19,r22
 200112c:	90e4703a 	and	r18,r18,r3
 2001130:	10017726 	beq	r2,zero,2001710 <___vfprintf_internal_r+0xb24>
 2001134:	b0038326 	beq	r22,zero,2001f44 <___vfprintf_internal_r+0x1358>
 2001138:	dc402a15 	stw	r17,168(sp)
 200113c:	dc001e04 	addi	r16,sp,120
 2001140:	b023883a 	mov	r17,r22
 2001144:	402d883a 	mov	r22,r8
 2001148:	9809883a 	mov	r4,r19
 200114c:	880b883a 	mov	r5,r17
 2001150:	01800284 	movi	r6,10
 2001154:	000f883a 	mov	r7,zero
 2001158:	200a6780 	call	200a678 <__umoddi3>
 200115c:	10800c04 	addi	r2,r2,48
 2001160:	843fffc4 	addi	r16,r16,-1
 2001164:	9809883a 	mov	r4,r19
 2001168:	880b883a 	mov	r5,r17
 200116c:	80800005 	stb	r2,0(r16)
 2001170:	01800284 	movi	r6,10
 2001174:	000f883a 	mov	r7,zero
 2001178:	200a1000 	call	200a100 <__udivdi3>
 200117c:	1027883a 	mov	r19,r2
 2001180:	10c4b03a 	or	r2,r2,r3
 2001184:	1823883a 	mov	r17,r3
 2001188:	103fef1e 	bne	r2,zero,2001148 <__alt_mem_mem_0+0xfcfe1148>
 200118c:	d8c02817 	ldw	r3,160(sp)
 2001190:	dc402a17 	ldw	r17,168(sp)
 2001194:	b011883a 	mov	r8,r22
 2001198:	1c07c83a 	sub	r3,r3,r16
 200119c:	d8c02e15 	stw	r3,184(sp)
 20011a0:	00005906 	br	2001308 <___vfprintf_internal_r+0x71c>
 20011a4:	18c03fcc 	andi	r3,r3,255
 20011a8:	1806fa1e 	bne	r3,zero,2002d94 <___vfprintf_internal_r+0x21a8>
 20011ac:	9080020c 	andi	r2,r18,8
 20011b0:	10048a26 	beq	r2,zero,20023dc <___vfprintf_internal_r+0x17f0>
 20011b4:	d8c02d17 	ldw	r3,180(sp)
 20011b8:	d9002d17 	ldw	r4,180(sp)
 20011bc:	d9402d17 	ldw	r5,180(sp)
 20011c0:	18c00017 	ldw	r3,0(r3)
 20011c4:	21000117 	ldw	r4,4(r4)
 20011c8:	29400204 	addi	r5,r5,8
 20011cc:	d8c03615 	stw	r3,216(sp)
 20011d0:	d9003815 	stw	r4,224(sp)
 20011d4:	d9402d15 	stw	r5,180(sp)
 20011d8:	d9003617 	ldw	r4,216(sp)
 20011dc:	d9403817 	ldw	r5,224(sp)
 20011e0:	da003d15 	stw	r8,244(sp)
 20011e4:	04000044 	movi	r16,1
 20011e8:	20072900 	call	2007290 <__fpclassifyd>
 20011ec:	da003d17 	ldw	r8,244(sp)
 20011f0:	14041f1e 	bne	r2,r16,2002270 <___vfprintf_internal_r+0x1684>
 20011f4:	d9003617 	ldw	r4,216(sp)
 20011f8:	d9403817 	ldw	r5,224(sp)
 20011fc:	000d883a 	mov	r6,zero
 2001200:	000f883a 	mov	r7,zero
 2001204:	200c05c0 	call	200c05c <__ledf2>
 2001208:	da003d17 	ldw	r8,244(sp)
 200120c:	1005be16 	blt	r2,zero,2002908 <___vfprintf_internal_r+0x1d1c>
 2001210:	df002783 	ldbu	fp,158(sp)
 2001214:	008011c4 	movi	r2,71
 2001218:	1445330e 	bge	r2,r17,20026e8 <___vfprintf_internal_r+0x1afc>
 200121c:	04008134 	movhi	r16,516
 2001220:	8403c604 	addi	r16,r16,3864
 2001224:	00c000c4 	movi	r3,3
 2001228:	00bfdfc4 	movi	r2,-129
 200122c:	d8c02a15 	stw	r3,168(sp)
 2001230:	90a4703a 	and	r18,r18,r2
 2001234:	d8c02e15 	stw	r3,184(sp)
 2001238:	d8002915 	stw	zero,164(sp)
 200123c:	d8003215 	stw	zero,200(sp)
 2001240:	00003706 	br	2001320 <___vfprintf_internal_r+0x734>
 2001244:	94800214 	ori	r18,r18,8
 2001248:	ac400007 	ldb	r17,0(r21)
 200124c:	003ec806 	br	2000d70 <__alt_mem_mem_0+0xfcfe0d70>
 2001250:	18c03fcc 	andi	r3,r3,255
 2001254:	1806db1e 	bne	r3,zero,2002dc4 <___vfprintf_internal_r+0x21d8>
 2001258:	94800414 	ori	r18,r18,16
 200125c:	9080080c 	andi	r2,r18,32
 2001260:	1002d826 	beq	r2,zero,2001dc4 <___vfprintf_internal_r+0x11d8>
 2001264:	d9402d17 	ldw	r5,180(sp)
 2001268:	d8c02917 	ldw	r3,164(sp)
 200126c:	d8002785 	stb	zero,158(sp)
 2001270:	28800204 	addi	r2,r5,8
 2001274:	2cc00017 	ldw	r19,0(r5)
 2001278:	2d800117 	ldw	r22,4(r5)
 200127c:	18048f16 	blt	r3,zero,20024bc <___vfprintf_internal_r+0x18d0>
 2001280:	013fdfc4 	movi	r4,-129
 2001284:	9d86b03a 	or	r3,r19,r22
 2001288:	d8802d15 	stw	r2,180(sp)
 200128c:	9124703a 	and	r18,r18,r4
 2001290:	1802d91e 	bne	r3,zero,2001df8 <___vfprintf_internal_r+0x120c>
 2001294:	d8c02917 	ldw	r3,164(sp)
 2001298:	0039883a 	mov	fp,zero
 200129c:	1805c326 	beq	r3,zero,20029ac <___vfprintf_internal_r+0x1dc0>
 20012a0:	0027883a 	mov	r19,zero
 20012a4:	002d883a 	mov	r22,zero
 20012a8:	dc001e04 	addi	r16,sp,120
 20012ac:	9806d0fa 	srli	r3,r19,3
 20012b0:	b008977a 	slli	r4,r22,29
 20012b4:	b02cd0fa 	srli	r22,r22,3
 20012b8:	9cc001cc 	andi	r19,r19,7
 20012bc:	98800c04 	addi	r2,r19,48
 20012c0:	843fffc4 	addi	r16,r16,-1
 20012c4:	20e6b03a 	or	r19,r4,r3
 20012c8:	80800005 	stb	r2,0(r16)
 20012cc:	9d86b03a 	or	r3,r19,r22
 20012d0:	183ff61e 	bne	r3,zero,20012ac <__alt_mem_mem_0+0xfcfe12ac>
 20012d4:	90c0004c 	andi	r3,r18,1
 20012d8:	18013b26 	beq	r3,zero,20017c8 <___vfprintf_internal_r+0xbdc>
 20012dc:	10803fcc 	andi	r2,r2,255
 20012e0:	1080201c 	xori	r2,r2,128
 20012e4:	10bfe004 	addi	r2,r2,-128
 20012e8:	00c00c04 	movi	r3,48
 20012ec:	10c13626 	beq	r2,r3,20017c8 <___vfprintf_internal_r+0xbdc>
 20012f0:	80ffffc5 	stb	r3,-1(r16)
 20012f4:	d8c02817 	ldw	r3,160(sp)
 20012f8:	80bfffc4 	addi	r2,r16,-1
 20012fc:	1021883a 	mov	r16,r2
 2001300:	1887c83a 	sub	r3,r3,r2
 2001304:	d8c02e15 	stw	r3,184(sp)
 2001308:	d8802e17 	ldw	r2,184(sp)
 200130c:	d9002917 	ldw	r4,164(sp)
 2001310:	1100010e 	bge	r2,r4,2001318 <___vfprintf_internal_r+0x72c>
 2001314:	2005883a 	mov	r2,r4
 2001318:	d8802a15 	stw	r2,168(sp)
 200131c:	d8003215 	stw	zero,200(sp)
 2001320:	e7003fcc 	andi	fp,fp,255
 2001324:	e700201c 	xori	fp,fp,128
 2001328:	e73fe004 	addi	fp,fp,-128
 200132c:	e0000326 	beq	fp,zero,200133c <___vfprintf_internal_r+0x750>
 2001330:	d8c02a17 	ldw	r3,168(sp)
 2001334:	18c00044 	addi	r3,r3,1
 2001338:	d8c02a15 	stw	r3,168(sp)
 200133c:	90c0008c 	andi	r3,r18,2
 2001340:	d8c02b15 	stw	r3,172(sp)
 2001344:	18000326 	beq	r3,zero,2001354 <___vfprintf_internal_r+0x768>
 2001348:	d8c02a17 	ldw	r3,168(sp)
 200134c:	18c00084 	addi	r3,r3,2
 2001350:	d8c02a15 	stw	r3,168(sp)
 2001354:	90c0210c 	andi	r3,r18,132
 2001358:	d8c03015 	stw	r3,192(sp)
 200135c:	1801a31e 	bne	r3,zero,20019ec <___vfprintf_internal_r+0xe00>
 2001360:	d9003117 	ldw	r4,196(sp)
 2001364:	d8c02a17 	ldw	r3,168(sp)
 2001368:	20e7c83a 	sub	r19,r4,r3
 200136c:	04c19f0e 	bge	zero,r19,20019ec <___vfprintf_internal_r+0xe00>
 2001370:	02400404 	movi	r9,16
 2001374:	d8c02017 	ldw	r3,128(sp)
 2001378:	d8801f17 	ldw	r2,124(sp)
 200137c:	4cc50d0e 	bge	r9,r19,20027b4 <___vfprintf_internal_r+0x1bc8>
 2001380:	01408134 	movhi	r5,516
 2001384:	2943d984 	addi	r5,r5,3942
 2001388:	dc403b15 	stw	r17,236(sp)
 200138c:	d9403515 	stw	r5,212(sp)
 2001390:	9823883a 	mov	r17,r19
 2001394:	482d883a 	mov	r22,r9
 2001398:	9027883a 	mov	r19,r18
 200139c:	070001c4 	movi	fp,7
 20013a0:	8025883a 	mov	r18,r16
 20013a4:	dc002c17 	ldw	r16,176(sp)
 20013a8:	00000306 	br	20013b8 <___vfprintf_internal_r+0x7cc>
 20013ac:	8c7ffc04 	addi	r17,r17,-16
 20013b0:	42000204 	addi	r8,r8,8
 20013b4:	b440130e 	bge	r22,r17,2001404 <___vfprintf_internal_r+0x818>
 20013b8:	01008134 	movhi	r4,516
 20013bc:	18c00404 	addi	r3,r3,16
 20013c0:	10800044 	addi	r2,r2,1
 20013c4:	2103d984 	addi	r4,r4,3942
 20013c8:	41000015 	stw	r4,0(r8)
 20013cc:	45800115 	stw	r22,4(r8)
 20013d0:	d8c02015 	stw	r3,128(sp)
 20013d4:	d8801f15 	stw	r2,124(sp)
 20013d8:	e0bff40e 	bge	fp,r2,20013ac <__alt_mem_mem_0+0xfcfe13ac>
 20013dc:	d9801e04 	addi	r6,sp,120
 20013e0:	b80b883a 	mov	r5,r23
 20013e4:	8009883a 	mov	r4,r16
 20013e8:	20077040 	call	2007704 <__sprint_r>
 20013ec:	103f011e 	bne	r2,zero,2000ff4 <__alt_mem_mem_0+0xfcfe0ff4>
 20013f0:	8c7ffc04 	addi	r17,r17,-16
 20013f4:	d8c02017 	ldw	r3,128(sp)
 20013f8:	d8801f17 	ldw	r2,124(sp)
 20013fc:	da000404 	addi	r8,sp,16
 2001400:	b47fed16 	blt	r22,r17,20013b8 <__alt_mem_mem_0+0xfcfe13b8>
 2001404:	9021883a 	mov	r16,r18
 2001408:	9825883a 	mov	r18,r19
 200140c:	8827883a 	mov	r19,r17
 2001410:	dc403b17 	ldw	r17,236(sp)
 2001414:	d9403517 	ldw	r5,212(sp)
 2001418:	98c7883a 	add	r3,r19,r3
 200141c:	10800044 	addi	r2,r2,1
 2001420:	41400015 	stw	r5,0(r8)
 2001424:	44c00115 	stw	r19,4(r8)
 2001428:	d8c02015 	stw	r3,128(sp)
 200142c:	d8801f15 	stw	r2,124(sp)
 2001430:	010001c4 	movi	r4,7
 2001434:	2082a316 	blt	r4,r2,2001ec4 <___vfprintf_internal_r+0x12d8>
 2001438:	df002787 	ldb	fp,158(sp)
 200143c:	42000204 	addi	r8,r8,8
 2001440:	e0000c26 	beq	fp,zero,2001474 <___vfprintf_internal_r+0x888>
 2001444:	d8801f17 	ldw	r2,124(sp)
 2001448:	d9002784 	addi	r4,sp,158
 200144c:	18c00044 	addi	r3,r3,1
 2001450:	10800044 	addi	r2,r2,1
 2001454:	41000015 	stw	r4,0(r8)
 2001458:	01000044 	movi	r4,1
 200145c:	41000115 	stw	r4,4(r8)
 2001460:	d8c02015 	stw	r3,128(sp)
 2001464:	d8801f15 	stw	r2,124(sp)
 2001468:	010001c4 	movi	r4,7
 200146c:	20823c16 	blt	r4,r2,2001d60 <___vfprintf_internal_r+0x1174>
 2001470:	42000204 	addi	r8,r8,8
 2001474:	d8802b17 	ldw	r2,172(sp)
 2001478:	10000c26 	beq	r2,zero,20014ac <___vfprintf_internal_r+0x8c0>
 200147c:	d8801f17 	ldw	r2,124(sp)
 2001480:	d9002704 	addi	r4,sp,156
 2001484:	18c00084 	addi	r3,r3,2
 2001488:	10800044 	addi	r2,r2,1
 200148c:	41000015 	stw	r4,0(r8)
 2001490:	01000084 	movi	r4,2
 2001494:	41000115 	stw	r4,4(r8)
 2001498:	d8c02015 	stw	r3,128(sp)
 200149c:	d8801f15 	stw	r2,124(sp)
 20014a0:	010001c4 	movi	r4,7
 20014a4:	20823616 	blt	r4,r2,2001d80 <___vfprintf_internal_r+0x1194>
 20014a8:	42000204 	addi	r8,r8,8
 20014ac:	d9003017 	ldw	r4,192(sp)
 20014b0:	00802004 	movi	r2,128
 20014b4:	20819926 	beq	r4,r2,2001b1c <___vfprintf_internal_r+0xf30>
 20014b8:	d9402917 	ldw	r5,164(sp)
 20014bc:	d8802e17 	ldw	r2,184(sp)
 20014c0:	28adc83a 	sub	r22,r5,r2
 20014c4:	0580310e 	bge	zero,r22,200158c <___vfprintf_internal_r+0x9a0>
 20014c8:	07000404 	movi	fp,16
 20014cc:	d8801f17 	ldw	r2,124(sp)
 20014d0:	e584140e 	bge	fp,r22,2002524 <___vfprintf_internal_r+0x1938>
 20014d4:	01408134 	movhi	r5,516
 20014d8:	2943d584 	addi	r5,r5,3926
 20014dc:	dc402915 	stw	r17,164(sp)
 20014e0:	d9402b15 	stw	r5,172(sp)
 20014e4:	b023883a 	mov	r17,r22
 20014e8:	04c001c4 	movi	r19,7
 20014ec:	a82d883a 	mov	r22,r21
 20014f0:	902b883a 	mov	r21,r18
 20014f4:	8025883a 	mov	r18,r16
 20014f8:	dc002c17 	ldw	r16,176(sp)
 20014fc:	00000306 	br	200150c <___vfprintf_internal_r+0x920>
 2001500:	8c7ffc04 	addi	r17,r17,-16
 2001504:	42000204 	addi	r8,r8,8
 2001508:	e440110e 	bge	fp,r17,2001550 <___vfprintf_internal_r+0x964>
 200150c:	18c00404 	addi	r3,r3,16
 2001510:	10800044 	addi	r2,r2,1
 2001514:	45000015 	stw	r20,0(r8)
 2001518:	47000115 	stw	fp,4(r8)
 200151c:	d8c02015 	stw	r3,128(sp)
 2001520:	d8801f15 	stw	r2,124(sp)
 2001524:	98bff60e 	bge	r19,r2,2001500 <__alt_mem_mem_0+0xfcfe1500>
 2001528:	d9801e04 	addi	r6,sp,120
 200152c:	b80b883a 	mov	r5,r23
 2001530:	8009883a 	mov	r4,r16
 2001534:	20077040 	call	2007704 <__sprint_r>
 2001538:	103eae1e 	bne	r2,zero,2000ff4 <__alt_mem_mem_0+0xfcfe0ff4>
 200153c:	8c7ffc04 	addi	r17,r17,-16
 2001540:	d8c02017 	ldw	r3,128(sp)
 2001544:	d8801f17 	ldw	r2,124(sp)
 2001548:	da000404 	addi	r8,sp,16
 200154c:	e47fef16 	blt	fp,r17,200150c <__alt_mem_mem_0+0xfcfe150c>
 2001550:	9021883a 	mov	r16,r18
 2001554:	a825883a 	mov	r18,r21
 2001558:	b02b883a 	mov	r21,r22
 200155c:	882d883a 	mov	r22,r17
 2001560:	dc402917 	ldw	r17,164(sp)
 2001564:	d9002b17 	ldw	r4,172(sp)
 2001568:	1d87883a 	add	r3,r3,r22
 200156c:	10800044 	addi	r2,r2,1
 2001570:	41000015 	stw	r4,0(r8)
 2001574:	45800115 	stw	r22,4(r8)
 2001578:	d8c02015 	stw	r3,128(sp)
 200157c:	d8801f15 	stw	r2,124(sp)
 2001580:	010001c4 	movi	r4,7
 2001584:	2081ee16 	blt	r4,r2,2001d40 <___vfprintf_internal_r+0x1154>
 2001588:	42000204 	addi	r8,r8,8
 200158c:	9080400c 	andi	r2,r18,256
 2001590:	1001181e 	bne	r2,zero,20019f4 <___vfprintf_internal_r+0xe08>
 2001594:	d9402e17 	ldw	r5,184(sp)
 2001598:	d8801f17 	ldw	r2,124(sp)
 200159c:	44000015 	stw	r16,0(r8)
 20015a0:	1947883a 	add	r3,r3,r5
 20015a4:	10800044 	addi	r2,r2,1
 20015a8:	41400115 	stw	r5,4(r8)
 20015ac:	d8c02015 	stw	r3,128(sp)
 20015b0:	d8801f15 	stw	r2,124(sp)
 20015b4:	010001c4 	movi	r4,7
 20015b8:	2081d316 	blt	r4,r2,2001d08 <___vfprintf_internal_r+0x111c>
 20015bc:	42000204 	addi	r8,r8,8
 20015c0:	9480010c 	andi	r18,r18,4
 20015c4:	90003226 	beq	r18,zero,2001690 <___vfprintf_internal_r+0xaa4>
 20015c8:	d9403117 	ldw	r5,196(sp)
 20015cc:	d8802a17 	ldw	r2,168(sp)
 20015d0:	28a1c83a 	sub	r16,r5,r2
 20015d4:	04002e0e 	bge	zero,r16,2001690 <___vfprintf_internal_r+0xaa4>
 20015d8:	04400404 	movi	r17,16
 20015dc:	d8801f17 	ldw	r2,124(sp)
 20015e0:	8c04a20e 	bge	r17,r16,200286c <___vfprintf_internal_r+0x1c80>
 20015e4:	01408134 	movhi	r5,516
 20015e8:	2943d984 	addi	r5,r5,3942
 20015ec:	d9403515 	stw	r5,212(sp)
 20015f0:	048001c4 	movi	r18,7
 20015f4:	dcc02c17 	ldw	r19,176(sp)
 20015f8:	00000306 	br	2001608 <___vfprintf_internal_r+0xa1c>
 20015fc:	843ffc04 	addi	r16,r16,-16
 2001600:	42000204 	addi	r8,r8,8
 2001604:	8c00130e 	bge	r17,r16,2001654 <___vfprintf_internal_r+0xa68>
 2001608:	01008134 	movhi	r4,516
 200160c:	18c00404 	addi	r3,r3,16
 2001610:	10800044 	addi	r2,r2,1
 2001614:	2103d984 	addi	r4,r4,3942
 2001618:	41000015 	stw	r4,0(r8)
 200161c:	44400115 	stw	r17,4(r8)
 2001620:	d8c02015 	stw	r3,128(sp)
 2001624:	d8801f15 	stw	r2,124(sp)
 2001628:	90bff40e 	bge	r18,r2,20015fc <__alt_mem_mem_0+0xfcfe15fc>
 200162c:	d9801e04 	addi	r6,sp,120
 2001630:	b80b883a 	mov	r5,r23
 2001634:	9809883a 	mov	r4,r19
 2001638:	20077040 	call	2007704 <__sprint_r>
 200163c:	103e6d1e 	bne	r2,zero,2000ff4 <__alt_mem_mem_0+0xfcfe0ff4>
 2001640:	843ffc04 	addi	r16,r16,-16
 2001644:	d8c02017 	ldw	r3,128(sp)
 2001648:	d8801f17 	ldw	r2,124(sp)
 200164c:	da000404 	addi	r8,sp,16
 2001650:	8c3fed16 	blt	r17,r16,2001608 <__alt_mem_mem_0+0xfcfe1608>
 2001654:	d9403517 	ldw	r5,212(sp)
 2001658:	1c07883a 	add	r3,r3,r16
 200165c:	10800044 	addi	r2,r2,1
 2001660:	41400015 	stw	r5,0(r8)
 2001664:	44000115 	stw	r16,4(r8)
 2001668:	d8c02015 	stw	r3,128(sp)
 200166c:	d8801f15 	stw	r2,124(sp)
 2001670:	010001c4 	movi	r4,7
 2001674:	2080060e 	bge	r4,r2,2001690 <___vfprintf_internal_r+0xaa4>
 2001678:	d9002c17 	ldw	r4,176(sp)
 200167c:	d9801e04 	addi	r6,sp,120
 2001680:	b80b883a 	mov	r5,r23
 2001684:	20077040 	call	2007704 <__sprint_r>
 2001688:	103e5a1e 	bne	r2,zero,2000ff4 <__alt_mem_mem_0+0xfcfe0ff4>
 200168c:	d8c02017 	ldw	r3,128(sp)
 2001690:	d8803117 	ldw	r2,196(sp)
 2001694:	d9002a17 	ldw	r4,168(sp)
 2001698:	1100010e 	bge	r2,r4,20016a0 <___vfprintf_internal_r+0xab4>
 200169c:	2005883a 	mov	r2,r4
 20016a0:	d9402f17 	ldw	r5,188(sp)
 20016a4:	288b883a 	add	r5,r5,r2
 20016a8:	d9402f15 	stw	r5,188(sp)
 20016ac:	18019e1e 	bne	r3,zero,2001d28 <___vfprintf_internal_r+0x113c>
 20016b0:	a8800007 	ldb	r2,0(r21)
 20016b4:	d8001f15 	stw	zero,124(sp)
 20016b8:	da000404 	addi	r8,sp,16
 20016bc:	103d851e 	bne	r2,zero,2000cd4 <__alt_mem_mem_0+0xfcfe0cd4>
 20016c0:	a821883a 	mov	r16,r21
 20016c4:	003d9b06 	br	2000d34 <__alt_mem_mem_0+0xfcfe0d34>
 20016c8:	18c03fcc 	andi	r3,r3,255
 20016cc:	1805c11e 	bne	r3,zero,2002dd4 <___vfprintf_internal_r+0x21e8>
 20016d0:	94800414 	ori	r18,r18,16
 20016d4:	9080080c 	andi	r2,r18,32
 20016d8:	10020c26 	beq	r2,zero,2001f0c <___vfprintf_internal_r+0x1320>
 20016dc:	d8802d17 	ldw	r2,180(sp)
 20016e0:	d9002917 	ldw	r4,164(sp)
 20016e4:	d8002785 	stb	zero,158(sp)
 20016e8:	10c00204 	addi	r3,r2,8
 20016ec:	14c00017 	ldw	r19,0(r2)
 20016f0:	15800117 	ldw	r22,4(r2)
 20016f4:	20040f16 	blt	r4,zero,2002734 <___vfprintf_internal_r+0x1b48>
 20016f8:	013fdfc4 	movi	r4,-129
 20016fc:	9d84b03a 	or	r2,r19,r22
 2001700:	d8c02d15 	stw	r3,180(sp)
 2001704:	9124703a 	and	r18,r18,r4
 2001708:	0039883a 	mov	fp,zero
 200170c:	103e891e 	bne	r2,zero,2001134 <__alt_mem_mem_0+0xfcfe1134>
 2001710:	d9002917 	ldw	r4,164(sp)
 2001714:	2002c11e 	bne	r4,zero,200221c <___vfprintf_internal_r+0x1630>
 2001718:	d8002915 	stw	zero,164(sp)
 200171c:	d8002e15 	stw	zero,184(sp)
 2001720:	dc001e04 	addi	r16,sp,120
 2001724:	003ef806 	br	2001308 <__alt_mem_mem_0+0xfcfe1308>
 2001728:	18c03fcc 	andi	r3,r3,255
 200172c:	18059d1e 	bne	r3,zero,2002da4 <___vfprintf_internal_r+0x21b8>
 2001730:	01408134 	movhi	r5,516
 2001734:	2943c904 	addi	r5,r5,3876
 2001738:	d9403915 	stw	r5,228(sp)
 200173c:	9080080c 	andi	r2,r18,32
 2001740:	10005226 	beq	r2,zero,200188c <___vfprintf_internal_r+0xca0>
 2001744:	d8802d17 	ldw	r2,180(sp)
 2001748:	14c00017 	ldw	r19,0(r2)
 200174c:	15800117 	ldw	r22,4(r2)
 2001750:	10800204 	addi	r2,r2,8
 2001754:	d8802d15 	stw	r2,180(sp)
 2001758:	9080004c 	andi	r2,r18,1
 200175c:	10019026 	beq	r2,zero,2001da0 <___vfprintf_internal_r+0x11b4>
 2001760:	9d84b03a 	or	r2,r19,r22
 2001764:	10036926 	beq	r2,zero,200250c <___vfprintf_internal_r+0x1920>
 2001768:	d8c02917 	ldw	r3,164(sp)
 200176c:	00800c04 	movi	r2,48
 2001770:	d8802705 	stb	r2,156(sp)
 2001774:	dc402745 	stb	r17,157(sp)
 2001778:	d8002785 	stb	zero,158(sp)
 200177c:	90800094 	ori	r2,r18,2
 2001780:	18045d16 	blt	r3,zero,20028f8 <___vfprintf_internal_r+0x1d0c>
 2001784:	00bfdfc4 	movi	r2,-129
 2001788:	90a4703a 	and	r18,r18,r2
 200178c:	94800094 	ori	r18,r18,2
 2001790:	0039883a 	mov	fp,zero
 2001794:	d9003917 	ldw	r4,228(sp)
 2001798:	dc001e04 	addi	r16,sp,120
 200179c:	988003cc 	andi	r2,r19,15
 20017a0:	b006973a 	slli	r3,r22,28
 20017a4:	2085883a 	add	r2,r4,r2
 20017a8:	9826d13a 	srli	r19,r19,4
 20017ac:	10800003 	ldbu	r2,0(r2)
 20017b0:	b02cd13a 	srli	r22,r22,4
 20017b4:	843fffc4 	addi	r16,r16,-1
 20017b8:	1ce6b03a 	or	r19,r3,r19
 20017bc:	80800005 	stb	r2,0(r16)
 20017c0:	9d84b03a 	or	r2,r19,r22
 20017c4:	103ff51e 	bne	r2,zero,200179c <__alt_mem_mem_0+0xfcfe179c>
 20017c8:	d8c02817 	ldw	r3,160(sp)
 20017cc:	1c07c83a 	sub	r3,r3,r16
 20017d0:	d8c02e15 	stw	r3,184(sp)
 20017d4:	003ecc06 	br	2001308 <__alt_mem_mem_0+0xfcfe1308>
 20017d8:	18c03fcc 	andi	r3,r3,255
 20017dc:	183e9f26 	beq	r3,zero,200125c <__alt_mem_mem_0+0xfcfe125c>
 20017e0:	d9c02785 	stb	r7,158(sp)
 20017e4:	003e9d06 	br	200125c <__alt_mem_mem_0+0xfcfe125c>
 20017e8:	00c00044 	movi	r3,1
 20017ec:	01c00ac4 	movi	r7,43
 20017f0:	ac400007 	ldb	r17,0(r21)
 20017f4:	003d5e06 	br	2000d70 <__alt_mem_mem_0+0xfcfe0d70>
 20017f8:	94800814 	ori	r18,r18,32
 20017fc:	ac400007 	ldb	r17,0(r21)
 2001800:	003d5b06 	br	2000d70 <__alt_mem_mem_0+0xfcfe0d70>
 2001804:	d8c02d17 	ldw	r3,180(sp)
 2001808:	d8002785 	stb	zero,158(sp)
 200180c:	1c000017 	ldw	r16,0(r3)
 2001810:	1cc00104 	addi	r19,r3,4
 2001814:	80041926 	beq	r16,zero,200287c <___vfprintf_internal_r+0x1c90>
 2001818:	d9002917 	ldw	r4,164(sp)
 200181c:	2003d016 	blt	r4,zero,2002760 <___vfprintf_internal_r+0x1b74>
 2001820:	200d883a 	mov	r6,r4
 2001824:	000b883a 	mov	r5,zero
 2001828:	8009883a 	mov	r4,r16
 200182c:	da003d15 	stw	r8,244(sp)
 2001830:	2005f400 	call	2005f40 <memchr>
 2001834:	da003d17 	ldw	r8,244(sp)
 2001838:	10045426 	beq	r2,zero,200298c <___vfprintf_internal_r+0x1da0>
 200183c:	1405c83a 	sub	r2,r2,r16
 2001840:	d8802e15 	stw	r2,184(sp)
 2001844:	1003cc16 	blt	r2,zero,2002778 <___vfprintf_internal_r+0x1b8c>
 2001848:	df002783 	ldbu	fp,158(sp)
 200184c:	d8802a15 	stw	r2,168(sp)
 2001850:	dcc02d15 	stw	r19,180(sp)
 2001854:	d8002915 	stw	zero,164(sp)
 2001858:	d8003215 	stw	zero,200(sp)
 200185c:	003eb006 	br	2001320 <__alt_mem_mem_0+0xfcfe1320>
 2001860:	18c03fcc 	andi	r3,r3,255
 2001864:	183f9b26 	beq	r3,zero,20016d4 <__alt_mem_mem_0+0xfcfe16d4>
 2001868:	d9c02785 	stb	r7,158(sp)
 200186c:	003f9906 	br	20016d4 <__alt_mem_mem_0+0xfcfe16d4>
 2001870:	18c03fcc 	andi	r3,r3,255
 2001874:	1805551e 	bne	r3,zero,2002dcc <___vfprintf_internal_r+0x21e0>
 2001878:	01408134 	movhi	r5,516
 200187c:	2943ce04 	addi	r5,r5,3896
 2001880:	d9403915 	stw	r5,228(sp)
 2001884:	9080080c 	andi	r2,r18,32
 2001888:	103fae1e 	bne	r2,zero,2001744 <__alt_mem_mem_0+0xfcfe1744>
 200188c:	9080040c 	andi	r2,r18,16
 2001890:	1002de26 	beq	r2,zero,200240c <___vfprintf_internal_r+0x1820>
 2001894:	d8c02d17 	ldw	r3,180(sp)
 2001898:	002d883a 	mov	r22,zero
 200189c:	1cc00017 	ldw	r19,0(r3)
 20018a0:	18c00104 	addi	r3,r3,4
 20018a4:	d8c02d15 	stw	r3,180(sp)
 20018a8:	003fab06 	br	2001758 <__alt_mem_mem_0+0xfcfe1758>
 20018ac:	38803fcc 	andi	r2,r7,255
 20018b0:	1080201c 	xori	r2,r2,128
 20018b4:	10bfe004 	addi	r2,r2,-128
 20018b8:	1002d21e 	bne	r2,zero,2002404 <___vfprintf_internal_r+0x1818>
 20018bc:	00c00044 	movi	r3,1
 20018c0:	01c00804 	movi	r7,32
 20018c4:	ac400007 	ldb	r17,0(r21)
 20018c8:	003d2906 	br	2000d70 <__alt_mem_mem_0+0xfcfe0d70>
 20018cc:	94800054 	ori	r18,r18,1
 20018d0:	ac400007 	ldb	r17,0(r21)
 20018d4:	003d2606 	br	2000d70 <__alt_mem_mem_0+0xfcfe0d70>
 20018d8:	18c03fcc 	andi	r3,r3,255
 20018dc:	183e0526 	beq	r3,zero,20010f4 <__alt_mem_mem_0+0xfcfe10f4>
 20018e0:	d9c02785 	stb	r7,158(sp)
 20018e4:	003e0306 	br	20010f4 <__alt_mem_mem_0+0xfcfe10f4>
 20018e8:	94801014 	ori	r18,r18,64
 20018ec:	ac400007 	ldb	r17,0(r21)
 20018f0:	003d1f06 	br	2000d70 <__alt_mem_mem_0+0xfcfe0d70>
 20018f4:	ac400007 	ldb	r17,0(r21)
 20018f8:	8a438726 	beq	r17,r9,2002718 <___vfprintf_internal_r+0x1b2c>
 20018fc:	94800414 	ori	r18,r18,16
 2001900:	003d1b06 	br	2000d70 <__alt_mem_mem_0+0xfcfe0d70>
 2001904:	18c03fcc 	andi	r3,r3,255
 2001908:	1805341e 	bne	r3,zero,2002ddc <___vfprintf_internal_r+0x21f0>
 200190c:	9080080c 	andi	r2,r18,32
 2001910:	1002cd26 	beq	r2,zero,2002448 <___vfprintf_internal_r+0x185c>
 2001914:	d9402d17 	ldw	r5,180(sp)
 2001918:	d9002f17 	ldw	r4,188(sp)
 200191c:	28800017 	ldw	r2,0(r5)
 2001920:	2007d7fa 	srai	r3,r4,31
 2001924:	29400104 	addi	r5,r5,4
 2001928:	d9402d15 	stw	r5,180(sp)
 200192c:	11000015 	stw	r4,0(r2)
 2001930:	10c00115 	stw	r3,4(r2)
 2001934:	003ce506 	br	2000ccc <__alt_mem_mem_0+0xfcfe0ccc>
 2001938:	d8c02d17 	ldw	r3,180(sp)
 200193c:	d9002d17 	ldw	r4,180(sp)
 2001940:	d8002785 	stb	zero,158(sp)
 2001944:	18800017 	ldw	r2,0(r3)
 2001948:	21000104 	addi	r4,r4,4
 200194c:	00c00044 	movi	r3,1
 2001950:	d8c02a15 	stw	r3,168(sp)
 2001954:	d8801405 	stb	r2,80(sp)
 2001958:	d9002d15 	stw	r4,180(sp)
 200195c:	d8c02e15 	stw	r3,184(sp)
 2001960:	d8002915 	stw	zero,164(sp)
 2001964:	d8003215 	stw	zero,200(sp)
 2001968:	dc001404 	addi	r16,sp,80
 200196c:	0039883a 	mov	fp,zero
 2001970:	003e7206 	br	200133c <__alt_mem_mem_0+0xfcfe133c>
 2001974:	01008134 	movhi	r4,516
 2001978:	2103ce04 	addi	r4,r4,3896
 200197c:	0039883a 	mov	fp,zero
 2001980:	d9003915 	stw	r4,228(sp)
 2001984:	04401e04 	movi	r17,120
 2001988:	003f8206 	br	2001794 <__alt_mem_mem_0+0xfcfe1794>
 200198c:	18c03fcc 	andi	r3,r3,255
 2001990:	1805061e 	bne	r3,zero,2002dac <___vfprintf_internal_r+0x21c0>
 2001994:	883d9126 	beq	r17,zero,2000fdc <__alt_mem_mem_0+0xfcfe0fdc>
 2001998:	00c00044 	movi	r3,1
 200199c:	d8c02a15 	stw	r3,168(sp)
 20019a0:	dc401405 	stb	r17,80(sp)
 20019a4:	d8002785 	stb	zero,158(sp)
 20019a8:	003fec06 	br	200195c <__alt_mem_mem_0+0xfcfe195c>
 20019ac:	01408134 	movhi	r5,516
 20019b0:	2943ce04 	addi	r5,r5,3896
 20019b4:	d9403915 	stw	r5,228(sp)
 20019b8:	d8c02d15 	stw	r3,180(sp)
 20019bc:	1025883a 	mov	r18,r2
 20019c0:	04401e04 	movi	r17,120
 20019c4:	9d84b03a 	or	r2,r19,r22
 20019c8:	1000fc1e 	bne	r2,zero,2001dbc <___vfprintf_internal_r+0x11d0>
 20019cc:	0039883a 	mov	fp,zero
 20019d0:	00800084 	movi	r2,2
 20019d4:	10803fcc 	andi	r2,r2,255
 20019d8:	00c00044 	movi	r3,1
 20019dc:	10c20f26 	beq	r2,r3,200221c <___vfprintf_internal_r+0x1630>
 20019e0:	00c00084 	movi	r3,2
 20019e4:	10fd6326 	beq	r2,r3,2000f74 <__alt_mem_mem_0+0xfcfe0f74>
 20019e8:	003e2d06 	br	20012a0 <__alt_mem_mem_0+0xfcfe12a0>
 20019ec:	d8c02017 	ldw	r3,128(sp)
 20019f0:	003e9306 	br	2001440 <__alt_mem_mem_0+0xfcfe1440>
 20019f4:	00801944 	movi	r2,101
 20019f8:	14407e0e 	bge	r2,r17,2001bf4 <___vfprintf_internal_r+0x1008>
 20019fc:	d9003617 	ldw	r4,216(sp)
 2001a00:	d9403817 	ldw	r5,224(sp)
 2001a04:	000d883a 	mov	r6,zero
 2001a08:	000f883a 	mov	r7,zero
 2001a0c:	d8c03c15 	stw	r3,240(sp)
 2001a10:	da003d15 	stw	r8,244(sp)
 2001a14:	200bef80 	call	200bef8 <__eqdf2>
 2001a18:	d8c03c17 	ldw	r3,240(sp)
 2001a1c:	da003d17 	ldw	r8,244(sp)
 2001a20:	1000f71e 	bne	r2,zero,2001e00 <___vfprintf_internal_r+0x1214>
 2001a24:	d8801f17 	ldw	r2,124(sp)
 2001a28:	01008134 	movhi	r4,516
 2001a2c:	2103d504 	addi	r4,r4,3924
 2001a30:	18c00044 	addi	r3,r3,1
 2001a34:	10800044 	addi	r2,r2,1
 2001a38:	41000015 	stw	r4,0(r8)
 2001a3c:	01000044 	movi	r4,1
 2001a40:	41000115 	stw	r4,4(r8)
 2001a44:	d8c02015 	stw	r3,128(sp)
 2001a48:	d8801f15 	stw	r2,124(sp)
 2001a4c:	010001c4 	movi	r4,7
 2001a50:	2082b816 	blt	r4,r2,2002534 <___vfprintf_internal_r+0x1948>
 2001a54:	42000204 	addi	r8,r8,8
 2001a58:	d8802617 	ldw	r2,152(sp)
 2001a5c:	d9403317 	ldw	r5,204(sp)
 2001a60:	11400216 	blt	r2,r5,2001a6c <___vfprintf_internal_r+0xe80>
 2001a64:	9080004c 	andi	r2,r18,1
 2001a68:	103ed526 	beq	r2,zero,20015c0 <__alt_mem_mem_0+0xfcfe15c0>
 2001a6c:	d8803717 	ldw	r2,220(sp)
 2001a70:	d9003417 	ldw	r4,208(sp)
 2001a74:	d9403717 	ldw	r5,220(sp)
 2001a78:	1887883a 	add	r3,r3,r2
 2001a7c:	d8801f17 	ldw	r2,124(sp)
 2001a80:	41000015 	stw	r4,0(r8)
 2001a84:	41400115 	stw	r5,4(r8)
 2001a88:	10800044 	addi	r2,r2,1
 2001a8c:	d8c02015 	stw	r3,128(sp)
 2001a90:	d8801f15 	stw	r2,124(sp)
 2001a94:	010001c4 	movi	r4,7
 2001a98:	20832916 	blt	r4,r2,2002740 <___vfprintf_internal_r+0x1b54>
 2001a9c:	42000204 	addi	r8,r8,8
 2001aa0:	d8803317 	ldw	r2,204(sp)
 2001aa4:	143fffc4 	addi	r16,r2,-1
 2001aa8:	043ec50e 	bge	zero,r16,20015c0 <__alt_mem_mem_0+0xfcfe15c0>
 2001aac:	04400404 	movi	r17,16
 2001ab0:	d8801f17 	ldw	r2,124(sp)
 2001ab4:	8c00880e 	bge	r17,r16,2001cd8 <___vfprintf_internal_r+0x10ec>
 2001ab8:	01408134 	movhi	r5,516
 2001abc:	2943d584 	addi	r5,r5,3926
 2001ac0:	d9402b15 	stw	r5,172(sp)
 2001ac4:	058001c4 	movi	r22,7
 2001ac8:	dcc02c17 	ldw	r19,176(sp)
 2001acc:	00000306 	br	2001adc <___vfprintf_internal_r+0xef0>
 2001ad0:	42000204 	addi	r8,r8,8
 2001ad4:	843ffc04 	addi	r16,r16,-16
 2001ad8:	8c00820e 	bge	r17,r16,2001ce4 <___vfprintf_internal_r+0x10f8>
 2001adc:	18c00404 	addi	r3,r3,16
 2001ae0:	10800044 	addi	r2,r2,1
 2001ae4:	45000015 	stw	r20,0(r8)
 2001ae8:	44400115 	stw	r17,4(r8)
 2001aec:	d8c02015 	stw	r3,128(sp)
 2001af0:	d8801f15 	stw	r2,124(sp)
 2001af4:	b0bff60e 	bge	r22,r2,2001ad0 <__alt_mem_mem_0+0xfcfe1ad0>
 2001af8:	d9801e04 	addi	r6,sp,120
 2001afc:	b80b883a 	mov	r5,r23
 2001b00:	9809883a 	mov	r4,r19
 2001b04:	20077040 	call	2007704 <__sprint_r>
 2001b08:	103d3a1e 	bne	r2,zero,2000ff4 <__alt_mem_mem_0+0xfcfe0ff4>
 2001b0c:	d8c02017 	ldw	r3,128(sp)
 2001b10:	d8801f17 	ldw	r2,124(sp)
 2001b14:	da000404 	addi	r8,sp,16
 2001b18:	003fee06 	br	2001ad4 <__alt_mem_mem_0+0xfcfe1ad4>
 2001b1c:	d9403117 	ldw	r5,196(sp)
 2001b20:	d8802a17 	ldw	r2,168(sp)
 2001b24:	28adc83a 	sub	r22,r5,r2
 2001b28:	05be630e 	bge	zero,r22,20014b8 <__alt_mem_mem_0+0xfcfe14b8>
 2001b2c:	07000404 	movi	fp,16
 2001b30:	d8801f17 	ldw	r2,124(sp)
 2001b34:	e5838f0e 	bge	fp,r22,2002974 <___vfprintf_internal_r+0x1d88>
 2001b38:	01408134 	movhi	r5,516
 2001b3c:	2943d584 	addi	r5,r5,3926
 2001b40:	dc403015 	stw	r17,192(sp)
 2001b44:	d9402b15 	stw	r5,172(sp)
 2001b48:	b023883a 	mov	r17,r22
 2001b4c:	04c001c4 	movi	r19,7
 2001b50:	a82d883a 	mov	r22,r21
 2001b54:	902b883a 	mov	r21,r18
 2001b58:	8025883a 	mov	r18,r16
 2001b5c:	dc002c17 	ldw	r16,176(sp)
 2001b60:	00000306 	br	2001b70 <___vfprintf_internal_r+0xf84>
 2001b64:	8c7ffc04 	addi	r17,r17,-16
 2001b68:	42000204 	addi	r8,r8,8
 2001b6c:	e440110e 	bge	fp,r17,2001bb4 <___vfprintf_internal_r+0xfc8>
 2001b70:	18c00404 	addi	r3,r3,16
 2001b74:	10800044 	addi	r2,r2,1
 2001b78:	45000015 	stw	r20,0(r8)
 2001b7c:	47000115 	stw	fp,4(r8)
 2001b80:	d8c02015 	stw	r3,128(sp)
 2001b84:	d8801f15 	stw	r2,124(sp)
 2001b88:	98bff60e 	bge	r19,r2,2001b64 <__alt_mem_mem_0+0xfcfe1b64>
 2001b8c:	d9801e04 	addi	r6,sp,120
 2001b90:	b80b883a 	mov	r5,r23
 2001b94:	8009883a 	mov	r4,r16
 2001b98:	20077040 	call	2007704 <__sprint_r>
 2001b9c:	103d151e 	bne	r2,zero,2000ff4 <__alt_mem_mem_0+0xfcfe0ff4>
 2001ba0:	8c7ffc04 	addi	r17,r17,-16
 2001ba4:	d8c02017 	ldw	r3,128(sp)
 2001ba8:	d8801f17 	ldw	r2,124(sp)
 2001bac:	da000404 	addi	r8,sp,16
 2001bb0:	e47fef16 	blt	fp,r17,2001b70 <__alt_mem_mem_0+0xfcfe1b70>
 2001bb4:	9021883a 	mov	r16,r18
 2001bb8:	a825883a 	mov	r18,r21
 2001bbc:	b02b883a 	mov	r21,r22
 2001bc0:	882d883a 	mov	r22,r17
 2001bc4:	dc403017 	ldw	r17,192(sp)
 2001bc8:	d9002b17 	ldw	r4,172(sp)
 2001bcc:	1d87883a 	add	r3,r3,r22
 2001bd0:	10800044 	addi	r2,r2,1
 2001bd4:	41000015 	stw	r4,0(r8)
 2001bd8:	45800115 	stw	r22,4(r8)
 2001bdc:	d8c02015 	stw	r3,128(sp)
 2001be0:	d8801f15 	stw	r2,124(sp)
 2001be4:	010001c4 	movi	r4,7
 2001be8:	20818e16 	blt	r4,r2,2002224 <___vfprintf_internal_r+0x1638>
 2001bec:	42000204 	addi	r8,r8,8
 2001bf0:	003e3106 	br	20014b8 <__alt_mem_mem_0+0xfcfe14b8>
 2001bf4:	d9403317 	ldw	r5,204(sp)
 2001bf8:	00800044 	movi	r2,1
 2001bfc:	18c00044 	addi	r3,r3,1
 2001c00:	1141530e 	bge	r2,r5,2002150 <___vfprintf_internal_r+0x1564>
 2001c04:	dc401f17 	ldw	r17,124(sp)
 2001c08:	00800044 	movi	r2,1
 2001c0c:	40800115 	stw	r2,4(r8)
 2001c10:	8c400044 	addi	r17,r17,1
 2001c14:	44000015 	stw	r16,0(r8)
 2001c18:	d8c02015 	stw	r3,128(sp)
 2001c1c:	dc401f15 	stw	r17,124(sp)
 2001c20:	008001c4 	movi	r2,7
 2001c24:	14416b16 	blt	r2,r17,20021d4 <___vfprintf_internal_r+0x15e8>
 2001c28:	42000204 	addi	r8,r8,8
 2001c2c:	d8803717 	ldw	r2,220(sp)
 2001c30:	d9003417 	ldw	r4,208(sp)
 2001c34:	8c400044 	addi	r17,r17,1
 2001c38:	10c7883a 	add	r3,r2,r3
 2001c3c:	40800115 	stw	r2,4(r8)
 2001c40:	41000015 	stw	r4,0(r8)
 2001c44:	d8c02015 	stw	r3,128(sp)
 2001c48:	dc401f15 	stw	r17,124(sp)
 2001c4c:	008001c4 	movi	r2,7
 2001c50:	14416916 	blt	r2,r17,20021f8 <___vfprintf_internal_r+0x160c>
 2001c54:	45800204 	addi	r22,r8,8
 2001c58:	d9003617 	ldw	r4,216(sp)
 2001c5c:	d9403817 	ldw	r5,224(sp)
 2001c60:	000d883a 	mov	r6,zero
 2001c64:	000f883a 	mov	r7,zero
 2001c68:	d8c03c15 	stw	r3,240(sp)
 2001c6c:	200bef80 	call	200bef8 <__eqdf2>
 2001c70:	d8c03c17 	ldw	r3,240(sp)
 2001c74:	1000bc26 	beq	r2,zero,2001f68 <___vfprintf_internal_r+0x137c>
 2001c78:	d9403317 	ldw	r5,204(sp)
 2001c7c:	84000044 	addi	r16,r16,1
 2001c80:	8c400044 	addi	r17,r17,1
 2001c84:	28bfffc4 	addi	r2,r5,-1
 2001c88:	1887883a 	add	r3,r3,r2
 2001c8c:	b0800115 	stw	r2,4(r22)
 2001c90:	b4000015 	stw	r16,0(r22)
 2001c94:	d8c02015 	stw	r3,128(sp)
 2001c98:	dc401f15 	stw	r17,124(sp)
 2001c9c:	008001c4 	movi	r2,7
 2001ca0:	14414316 	blt	r2,r17,20021b0 <___vfprintf_internal_r+0x15c4>
 2001ca4:	b5800204 	addi	r22,r22,8
 2001ca8:	d9003a17 	ldw	r4,232(sp)
 2001cac:	df0022c4 	addi	fp,sp,139
 2001cb0:	8c400044 	addi	r17,r17,1
 2001cb4:	20c7883a 	add	r3,r4,r3
 2001cb8:	b7000015 	stw	fp,0(r22)
 2001cbc:	b1000115 	stw	r4,4(r22)
 2001cc0:	d8c02015 	stw	r3,128(sp)
 2001cc4:	dc401f15 	stw	r17,124(sp)
 2001cc8:	008001c4 	movi	r2,7
 2001ccc:	14400e16 	blt	r2,r17,2001d08 <___vfprintf_internal_r+0x111c>
 2001cd0:	b2000204 	addi	r8,r22,8
 2001cd4:	003e3a06 	br	20015c0 <__alt_mem_mem_0+0xfcfe15c0>
 2001cd8:	01008134 	movhi	r4,516
 2001cdc:	2103d584 	addi	r4,r4,3926
 2001ce0:	d9002b15 	stw	r4,172(sp)
 2001ce4:	d9002b17 	ldw	r4,172(sp)
 2001ce8:	1c07883a 	add	r3,r3,r16
 2001cec:	44000115 	stw	r16,4(r8)
 2001cf0:	41000015 	stw	r4,0(r8)
 2001cf4:	10800044 	addi	r2,r2,1
 2001cf8:	d8c02015 	stw	r3,128(sp)
 2001cfc:	d8801f15 	stw	r2,124(sp)
 2001d00:	010001c4 	movi	r4,7
 2001d04:	20be2d0e 	bge	r4,r2,20015bc <__alt_mem_mem_0+0xfcfe15bc>
 2001d08:	d9002c17 	ldw	r4,176(sp)
 2001d0c:	d9801e04 	addi	r6,sp,120
 2001d10:	b80b883a 	mov	r5,r23
 2001d14:	20077040 	call	2007704 <__sprint_r>
 2001d18:	103cb61e 	bne	r2,zero,2000ff4 <__alt_mem_mem_0+0xfcfe0ff4>
 2001d1c:	d8c02017 	ldw	r3,128(sp)
 2001d20:	da000404 	addi	r8,sp,16
 2001d24:	003e2606 	br	20015c0 <__alt_mem_mem_0+0xfcfe15c0>
 2001d28:	d9002c17 	ldw	r4,176(sp)
 2001d2c:	d9801e04 	addi	r6,sp,120
 2001d30:	b80b883a 	mov	r5,r23
 2001d34:	20077040 	call	2007704 <__sprint_r>
 2001d38:	103e5d26 	beq	r2,zero,20016b0 <__alt_mem_mem_0+0xfcfe16b0>
 2001d3c:	003cad06 	br	2000ff4 <__alt_mem_mem_0+0xfcfe0ff4>
 2001d40:	d9002c17 	ldw	r4,176(sp)
 2001d44:	d9801e04 	addi	r6,sp,120
 2001d48:	b80b883a 	mov	r5,r23
 2001d4c:	20077040 	call	2007704 <__sprint_r>
 2001d50:	103ca81e 	bne	r2,zero,2000ff4 <__alt_mem_mem_0+0xfcfe0ff4>
 2001d54:	d8c02017 	ldw	r3,128(sp)
 2001d58:	da000404 	addi	r8,sp,16
 2001d5c:	003e0b06 	br	200158c <__alt_mem_mem_0+0xfcfe158c>
 2001d60:	d9002c17 	ldw	r4,176(sp)
 2001d64:	d9801e04 	addi	r6,sp,120
 2001d68:	b80b883a 	mov	r5,r23
 2001d6c:	20077040 	call	2007704 <__sprint_r>
 2001d70:	103ca01e 	bne	r2,zero,2000ff4 <__alt_mem_mem_0+0xfcfe0ff4>
 2001d74:	d8c02017 	ldw	r3,128(sp)
 2001d78:	da000404 	addi	r8,sp,16
 2001d7c:	003dbd06 	br	2001474 <__alt_mem_mem_0+0xfcfe1474>
 2001d80:	d9002c17 	ldw	r4,176(sp)
 2001d84:	d9801e04 	addi	r6,sp,120
 2001d88:	b80b883a 	mov	r5,r23
 2001d8c:	20077040 	call	2007704 <__sprint_r>
 2001d90:	103c981e 	bne	r2,zero,2000ff4 <__alt_mem_mem_0+0xfcfe0ff4>
 2001d94:	d8c02017 	ldw	r3,128(sp)
 2001d98:	da000404 	addi	r8,sp,16
 2001d9c:	003dc306 	br	20014ac <__alt_mem_mem_0+0xfcfe14ac>
 2001da0:	d8802917 	ldw	r2,164(sp)
 2001da4:	d8002785 	stb	zero,158(sp)
 2001da8:	103f0616 	blt	r2,zero,20019c4 <__alt_mem_mem_0+0xfcfe19c4>
 2001dac:	00ffdfc4 	movi	r3,-129
 2001db0:	9d84b03a 	or	r2,r19,r22
 2001db4:	90e4703a 	and	r18,r18,r3
 2001db8:	103c6b26 	beq	r2,zero,2000f68 <__alt_mem_mem_0+0xfcfe0f68>
 2001dbc:	0039883a 	mov	fp,zero
 2001dc0:	003e7406 	br	2001794 <__alt_mem_mem_0+0xfcfe1794>
 2001dc4:	9080040c 	andi	r2,r18,16
 2001dc8:	1001b326 	beq	r2,zero,2002498 <___vfprintf_internal_r+0x18ac>
 2001dcc:	d9002d17 	ldw	r4,180(sp)
 2001dd0:	d9402917 	ldw	r5,164(sp)
 2001dd4:	d8002785 	stb	zero,158(sp)
 2001dd8:	20800104 	addi	r2,r4,4
 2001ddc:	24c00017 	ldw	r19,0(r4)
 2001de0:	002d883a 	mov	r22,zero
 2001de4:	2801b516 	blt	r5,zero,20024bc <___vfprintf_internal_r+0x18d0>
 2001de8:	00ffdfc4 	movi	r3,-129
 2001dec:	d8802d15 	stw	r2,180(sp)
 2001df0:	90e4703a 	and	r18,r18,r3
 2001df4:	983d2726 	beq	r19,zero,2001294 <__alt_mem_mem_0+0xfcfe1294>
 2001df8:	0039883a 	mov	fp,zero
 2001dfc:	003d2a06 	br	20012a8 <__alt_mem_mem_0+0xfcfe12a8>
 2001e00:	dc402617 	ldw	r17,152(sp)
 2001e04:	0441d30e 	bge	zero,r17,2002554 <___vfprintf_internal_r+0x1968>
 2001e08:	dc403217 	ldw	r17,200(sp)
 2001e0c:	d8803317 	ldw	r2,204(sp)
 2001e10:	1440010e 	bge	r2,r17,2001e18 <___vfprintf_internal_r+0x122c>
 2001e14:	1023883a 	mov	r17,r2
 2001e18:	04400a0e 	bge	zero,r17,2001e44 <___vfprintf_internal_r+0x1258>
 2001e1c:	d8801f17 	ldw	r2,124(sp)
 2001e20:	1c47883a 	add	r3,r3,r17
 2001e24:	44000015 	stw	r16,0(r8)
 2001e28:	10800044 	addi	r2,r2,1
 2001e2c:	44400115 	stw	r17,4(r8)
 2001e30:	d8c02015 	stw	r3,128(sp)
 2001e34:	d8801f15 	stw	r2,124(sp)
 2001e38:	010001c4 	movi	r4,7
 2001e3c:	20826516 	blt	r4,r2,20027d4 <___vfprintf_internal_r+0x1be8>
 2001e40:	42000204 	addi	r8,r8,8
 2001e44:	88026116 	blt	r17,zero,20027cc <___vfprintf_internal_r+0x1be0>
 2001e48:	d9003217 	ldw	r4,200(sp)
 2001e4c:	2463c83a 	sub	r17,r4,r17
 2001e50:	04407b0e 	bge	zero,r17,2002040 <___vfprintf_internal_r+0x1454>
 2001e54:	05800404 	movi	r22,16
 2001e58:	d8801f17 	ldw	r2,124(sp)
 2001e5c:	b4419d0e 	bge	r22,r17,20024d4 <___vfprintf_internal_r+0x18e8>
 2001e60:	01008134 	movhi	r4,516
 2001e64:	2103d584 	addi	r4,r4,3926
 2001e68:	d9002b15 	stw	r4,172(sp)
 2001e6c:	070001c4 	movi	fp,7
 2001e70:	dcc02c17 	ldw	r19,176(sp)
 2001e74:	00000306 	br	2001e84 <___vfprintf_internal_r+0x1298>
 2001e78:	42000204 	addi	r8,r8,8
 2001e7c:	8c7ffc04 	addi	r17,r17,-16
 2001e80:	b441970e 	bge	r22,r17,20024e0 <___vfprintf_internal_r+0x18f4>
 2001e84:	18c00404 	addi	r3,r3,16
 2001e88:	10800044 	addi	r2,r2,1
 2001e8c:	45000015 	stw	r20,0(r8)
 2001e90:	45800115 	stw	r22,4(r8)
 2001e94:	d8c02015 	stw	r3,128(sp)
 2001e98:	d8801f15 	stw	r2,124(sp)
 2001e9c:	e0bff60e 	bge	fp,r2,2001e78 <__alt_mem_mem_0+0xfcfe1e78>
 2001ea0:	d9801e04 	addi	r6,sp,120
 2001ea4:	b80b883a 	mov	r5,r23
 2001ea8:	9809883a 	mov	r4,r19
 2001eac:	20077040 	call	2007704 <__sprint_r>
 2001eb0:	103c501e 	bne	r2,zero,2000ff4 <__alt_mem_mem_0+0xfcfe0ff4>
 2001eb4:	d8c02017 	ldw	r3,128(sp)
 2001eb8:	d8801f17 	ldw	r2,124(sp)
 2001ebc:	da000404 	addi	r8,sp,16
 2001ec0:	003fee06 	br	2001e7c <__alt_mem_mem_0+0xfcfe1e7c>
 2001ec4:	d9002c17 	ldw	r4,176(sp)
 2001ec8:	d9801e04 	addi	r6,sp,120
 2001ecc:	b80b883a 	mov	r5,r23
 2001ed0:	20077040 	call	2007704 <__sprint_r>
 2001ed4:	103c471e 	bne	r2,zero,2000ff4 <__alt_mem_mem_0+0xfcfe0ff4>
 2001ed8:	d8c02017 	ldw	r3,128(sp)
 2001edc:	df002787 	ldb	fp,158(sp)
 2001ee0:	da000404 	addi	r8,sp,16
 2001ee4:	003d5606 	br	2001440 <__alt_mem_mem_0+0xfcfe1440>
 2001ee8:	9080040c 	andi	r2,r18,16
 2001eec:	10016126 	beq	r2,zero,2002474 <___vfprintf_internal_r+0x1888>
 2001ef0:	d8802d17 	ldw	r2,180(sp)
 2001ef4:	14c00017 	ldw	r19,0(r2)
 2001ef8:	10800104 	addi	r2,r2,4
 2001efc:	d8802d15 	stw	r2,180(sp)
 2001f00:	982dd7fa 	srai	r22,r19,31
 2001f04:	b005883a 	mov	r2,r22
 2001f08:	003c8206 	br	2001114 <__alt_mem_mem_0+0xfcfe1114>
 2001f0c:	9080040c 	andi	r2,r18,16
 2001f10:	10003526 	beq	r2,zero,2001fe8 <___vfprintf_internal_r+0x13fc>
 2001f14:	d9402d17 	ldw	r5,180(sp)
 2001f18:	d8c02917 	ldw	r3,164(sp)
 2001f1c:	d8002785 	stb	zero,158(sp)
 2001f20:	28800104 	addi	r2,r5,4
 2001f24:	2cc00017 	ldw	r19,0(r5)
 2001f28:	002d883a 	mov	r22,zero
 2001f2c:	18003716 	blt	r3,zero,200200c <___vfprintf_internal_r+0x1420>
 2001f30:	00ffdfc4 	movi	r3,-129
 2001f34:	d8802d15 	stw	r2,180(sp)
 2001f38:	90e4703a 	and	r18,r18,r3
 2001f3c:	0039883a 	mov	fp,zero
 2001f40:	983df326 	beq	r19,zero,2001710 <__alt_mem_mem_0+0xfcfe1710>
 2001f44:	00800244 	movi	r2,9
 2001f48:	14fc7b36 	bltu	r2,r19,2001138 <__alt_mem_mem_0+0xfcfe1138>
 2001f4c:	d8c02817 	ldw	r3,160(sp)
 2001f50:	dc001dc4 	addi	r16,sp,119
 2001f54:	9cc00c04 	addi	r19,r19,48
 2001f58:	1c07c83a 	sub	r3,r3,r16
 2001f5c:	dcc01dc5 	stb	r19,119(sp)
 2001f60:	d8c02e15 	stw	r3,184(sp)
 2001f64:	003ce806 	br	2001308 <__alt_mem_mem_0+0xfcfe1308>
 2001f68:	d8803317 	ldw	r2,204(sp)
 2001f6c:	143fffc4 	addi	r16,r2,-1
 2001f70:	043f4d0e 	bge	zero,r16,2001ca8 <__alt_mem_mem_0+0xfcfe1ca8>
 2001f74:	07000404 	movi	fp,16
 2001f78:	e400810e 	bge	fp,r16,2002180 <___vfprintf_internal_r+0x1594>
 2001f7c:	01408134 	movhi	r5,516
 2001f80:	2943d584 	addi	r5,r5,3926
 2001f84:	d9402b15 	stw	r5,172(sp)
 2001f88:	01c001c4 	movi	r7,7
 2001f8c:	dcc02c17 	ldw	r19,176(sp)
 2001f90:	00000306 	br	2001fa0 <___vfprintf_internal_r+0x13b4>
 2001f94:	b5800204 	addi	r22,r22,8
 2001f98:	843ffc04 	addi	r16,r16,-16
 2001f9c:	e4007b0e 	bge	fp,r16,200218c <___vfprintf_internal_r+0x15a0>
 2001fa0:	18c00404 	addi	r3,r3,16
 2001fa4:	8c400044 	addi	r17,r17,1
 2001fa8:	b5000015 	stw	r20,0(r22)
 2001fac:	b7000115 	stw	fp,4(r22)
 2001fb0:	d8c02015 	stw	r3,128(sp)
 2001fb4:	dc401f15 	stw	r17,124(sp)
 2001fb8:	3c7ff60e 	bge	r7,r17,2001f94 <__alt_mem_mem_0+0xfcfe1f94>
 2001fbc:	d9801e04 	addi	r6,sp,120
 2001fc0:	b80b883a 	mov	r5,r23
 2001fc4:	9809883a 	mov	r4,r19
 2001fc8:	d9c03c15 	stw	r7,240(sp)
 2001fcc:	20077040 	call	2007704 <__sprint_r>
 2001fd0:	d9c03c17 	ldw	r7,240(sp)
 2001fd4:	103c071e 	bne	r2,zero,2000ff4 <__alt_mem_mem_0+0xfcfe0ff4>
 2001fd8:	d8c02017 	ldw	r3,128(sp)
 2001fdc:	dc401f17 	ldw	r17,124(sp)
 2001fe0:	dd800404 	addi	r22,sp,16
 2001fe4:	003fec06 	br	2001f98 <__alt_mem_mem_0+0xfcfe1f98>
 2001fe8:	9080100c 	andi	r2,r18,64
 2001fec:	d8002785 	stb	zero,158(sp)
 2001ff0:	10010e26 	beq	r2,zero,200242c <___vfprintf_internal_r+0x1840>
 2001ff4:	d9002d17 	ldw	r4,180(sp)
 2001ff8:	d9402917 	ldw	r5,164(sp)
 2001ffc:	002d883a 	mov	r22,zero
 2002000:	20800104 	addi	r2,r4,4
 2002004:	24c0000b 	ldhu	r19,0(r4)
 2002008:	283fc90e 	bge	r5,zero,2001f30 <__alt_mem_mem_0+0xfcfe1f30>
 200200c:	d8802d15 	stw	r2,180(sp)
 2002010:	0039883a 	mov	fp,zero
 2002014:	9d84b03a 	or	r2,r19,r22
 2002018:	103c461e 	bne	r2,zero,2001134 <__alt_mem_mem_0+0xfcfe1134>
 200201c:	00800044 	movi	r2,1
 2002020:	003e6c06 	br	20019d4 <__alt_mem_mem_0+0xfcfe19d4>
 2002024:	d9002c17 	ldw	r4,176(sp)
 2002028:	d9801e04 	addi	r6,sp,120
 200202c:	b80b883a 	mov	r5,r23
 2002030:	20077040 	call	2007704 <__sprint_r>
 2002034:	103bef1e 	bne	r2,zero,2000ff4 <__alt_mem_mem_0+0xfcfe0ff4>
 2002038:	d8c02017 	ldw	r3,128(sp)
 200203c:	da000404 	addi	r8,sp,16
 2002040:	d9003217 	ldw	r4,200(sp)
 2002044:	d8802617 	ldw	r2,152(sp)
 2002048:	d9403317 	ldw	r5,204(sp)
 200204c:	8123883a 	add	r17,r16,r4
 2002050:	11400216 	blt	r2,r5,200205c <___vfprintf_internal_r+0x1470>
 2002054:	9100004c 	andi	r4,r18,1
 2002058:	20000d26 	beq	r4,zero,2002090 <___vfprintf_internal_r+0x14a4>
 200205c:	d9003717 	ldw	r4,220(sp)
 2002060:	d9403417 	ldw	r5,208(sp)
 2002064:	1907883a 	add	r3,r3,r4
 2002068:	d9001f17 	ldw	r4,124(sp)
 200206c:	41400015 	stw	r5,0(r8)
 2002070:	d9403717 	ldw	r5,220(sp)
 2002074:	21000044 	addi	r4,r4,1
 2002078:	d8c02015 	stw	r3,128(sp)
 200207c:	41400115 	stw	r5,4(r8)
 2002080:	d9001f15 	stw	r4,124(sp)
 2002084:	014001c4 	movi	r5,7
 2002088:	2901e816 	blt	r5,r4,200282c <___vfprintf_internal_r+0x1c40>
 200208c:	42000204 	addi	r8,r8,8
 2002090:	d9003317 	ldw	r4,204(sp)
 2002094:	8121883a 	add	r16,r16,r4
 2002098:	2085c83a 	sub	r2,r4,r2
 200209c:	8461c83a 	sub	r16,r16,r17
 20020a0:	1400010e 	bge	r2,r16,20020a8 <___vfprintf_internal_r+0x14bc>
 20020a4:	1021883a 	mov	r16,r2
 20020a8:	04000a0e 	bge	zero,r16,20020d4 <___vfprintf_internal_r+0x14e8>
 20020ac:	d9001f17 	ldw	r4,124(sp)
 20020b0:	1c07883a 	add	r3,r3,r16
 20020b4:	44400015 	stw	r17,0(r8)
 20020b8:	21000044 	addi	r4,r4,1
 20020bc:	44000115 	stw	r16,4(r8)
 20020c0:	d8c02015 	stw	r3,128(sp)
 20020c4:	d9001f15 	stw	r4,124(sp)
 20020c8:	014001c4 	movi	r5,7
 20020cc:	2901fb16 	blt	r5,r4,20028bc <___vfprintf_internal_r+0x1cd0>
 20020d0:	42000204 	addi	r8,r8,8
 20020d4:	8001f716 	blt	r16,zero,20028b4 <___vfprintf_internal_r+0x1cc8>
 20020d8:	1421c83a 	sub	r16,r2,r16
 20020dc:	043d380e 	bge	zero,r16,20015c0 <__alt_mem_mem_0+0xfcfe15c0>
 20020e0:	04400404 	movi	r17,16
 20020e4:	d8801f17 	ldw	r2,124(sp)
 20020e8:	8c3efb0e 	bge	r17,r16,2001cd8 <__alt_mem_mem_0+0xfcfe1cd8>
 20020ec:	01408134 	movhi	r5,516
 20020f0:	2943d584 	addi	r5,r5,3926
 20020f4:	d9402b15 	stw	r5,172(sp)
 20020f8:	058001c4 	movi	r22,7
 20020fc:	dcc02c17 	ldw	r19,176(sp)
 2002100:	00000306 	br	2002110 <___vfprintf_internal_r+0x1524>
 2002104:	42000204 	addi	r8,r8,8
 2002108:	843ffc04 	addi	r16,r16,-16
 200210c:	8c3ef50e 	bge	r17,r16,2001ce4 <__alt_mem_mem_0+0xfcfe1ce4>
 2002110:	18c00404 	addi	r3,r3,16
 2002114:	10800044 	addi	r2,r2,1
 2002118:	45000015 	stw	r20,0(r8)
 200211c:	44400115 	stw	r17,4(r8)
 2002120:	d8c02015 	stw	r3,128(sp)
 2002124:	d8801f15 	stw	r2,124(sp)
 2002128:	b0bff60e 	bge	r22,r2,2002104 <__alt_mem_mem_0+0xfcfe2104>
 200212c:	d9801e04 	addi	r6,sp,120
 2002130:	b80b883a 	mov	r5,r23
 2002134:	9809883a 	mov	r4,r19
 2002138:	20077040 	call	2007704 <__sprint_r>
 200213c:	103bad1e 	bne	r2,zero,2000ff4 <__alt_mem_mem_0+0xfcfe0ff4>
 2002140:	d8c02017 	ldw	r3,128(sp)
 2002144:	d8801f17 	ldw	r2,124(sp)
 2002148:	da000404 	addi	r8,sp,16
 200214c:	003fee06 	br	2002108 <__alt_mem_mem_0+0xfcfe2108>
 2002150:	9088703a 	and	r4,r18,r2
 2002154:	203eab1e 	bne	r4,zero,2001c04 <__alt_mem_mem_0+0xfcfe1c04>
 2002158:	dc401f17 	ldw	r17,124(sp)
 200215c:	40800115 	stw	r2,4(r8)
 2002160:	44000015 	stw	r16,0(r8)
 2002164:	8c400044 	addi	r17,r17,1
 2002168:	d8c02015 	stw	r3,128(sp)
 200216c:	dc401f15 	stw	r17,124(sp)
 2002170:	008001c4 	movi	r2,7
 2002174:	14400e16 	blt	r2,r17,20021b0 <___vfprintf_internal_r+0x15c4>
 2002178:	45800204 	addi	r22,r8,8
 200217c:	003eca06 	br	2001ca8 <__alt_mem_mem_0+0xfcfe1ca8>
 2002180:	01008134 	movhi	r4,516
 2002184:	2103d584 	addi	r4,r4,3926
 2002188:	d9002b15 	stw	r4,172(sp)
 200218c:	d8802b17 	ldw	r2,172(sp)
 2002190:	1c07883a 	add	r3,r3,r16
 2002194:	8c400044 	addi	r17,r17,1
 2002198:	b0800015 	stw	r2,0(r22)
 200219c:	b4000115 	stw	r16,4(r22)
 20021a0:	d8c02015 	stw	r3,128(sp)
 20021a4:	dc401f15 	stw	r17,124(sp)
 20021a8:	008001c4 	movi	r2,7
 20021ac:	147ebd0e 	bge	r2,r17,2001ca4 <__alt_mem_mem_0+0xfcfe1ca4>
 20021b0:	d9002c17 	ldw	r4,176(sp)
 20021b4:	d9801e04 	addi	r6,sp,120
 20021b8:	b80b883a 	mov	r5,r23
 20021bc:	20077040 	call	2007704 <__sprint_r>
 20021c0:	103b8c1e 	bne	r2,zero,2000ff4 <__alt_mem_mem_0+0xfcfe0ff4>
 20021c4:	d8c02017 	ldw	r3,128(sp)
 20021c8:	dc401f17 	ldw	r17,124(sp)
 20021cc:	dd800404 	addi	r22,sp,16
 20021d0:	003eb506 	br	2001ca8 <__alt_mem_mem_0+0xfcfe1ca8>
 20021d4:	d9002c17 	ldw	r4,176(sp)
 20021d8:	d9801e04 	addi	r6,sp,120
 20021dc:	b80b883a 	mov	r5,r23
 20021e0:	20077040 	call	2007704 <__sprint_r>
 20021e4:	103b831e 	bne	r2,zero,2000ff4 <__alt_mem_mem_0+0xfcfe0ff4>
 20021e8:	d8c02017 	ldw	r3,128(sp)
 20021ec:	dc401f17 	ldw	r17,124(sp)
 20021f0:	da000404 	addi	r8,sp,16
 20021f4:	003e8d06 	br	2001c2c <__alt_mem_mem_0+0xfcfe1c2c>
 20021f8:	d9002c17 	ldw	r4,176(sp)
 20021fc:	d9801e04 	addi	r6,sp,120
 2002200:	b80b883a 	mov	r5,r23
 2002204:	20077040 	call	2007704 <__sprint_r>
 2002208:	103b7a1e 	bne	r2,zero,2000ff4 <__alt_mem_mem_0+0xfcfe0ff4>
 200220c:	d8c02017 	ldw	r3,128(sp)
 2002210:	dc401f17 	ldw	r17,124(sp)
 2002214:	dd800404 	addi	r22,sp,16
 2002218:	003e8f06 	br	2001c58 <__alt_mem_mem_0+0xfcfe1c58>
 200221c:	0027883a 	mov	r19,zero
 2002220:	003f4a06 	br	2001f4c <__alt_mem_mem_0+0xfcfe1f4c>
 2002224:	d9002c17 	ldw	r4,176(sp)
 2002228:	d9801e04 	addi	r6,sp,120
 200222c:	b80b883a 	mov	r5,r23
 2002230:	20077040 	call	2007704 <__sprint_r>
 2002234:	103b6f1e 	bne	r2,zero,2000ff4 <__alt_mem_mem_0+0xfcfe0ff4>
 2002238:	d8c02017 	ldw	r3,128(sp)
 200223c:	da000404 	addi	r8,sp,16
 2002240:	003c9d06 	br	20014b8 <__alt_mem_mem_0+0xfcfe14b8>
 2002244:	04e7c83a 	sub	r19,zero,r19
 2002248:	9804c03a 	cmpne	r2,r19,zero
 200224c:	05adc83a 	sub	r22,zero,r22
 2002250:	b0adc83a 	sub	r22,r22,r2
 2002254:	d8802917 	ldw	r2,164(sp)
 2002258:	07000b44 	movi	fp,45
 200225c:	df002785 	stb	fp,158(sp)
 2002260:	10017b16 	blt	r2,zero,2002850 <___vfprintf_internal_r+0x1c64>
 2002264:	00bfdfc4 	movi	r2,-129
 2002268:	90a4703a 	and	r18,r18,r2
 200226c:	003bb106 	br	2001134 <__alt_mem_mem_0+0xfcfe1134>
 2002270:	d9003617 	ldw	r4,216(sp)
 2002274:	d9403817 	ldw	r5,224(sp)
 2002278:	da003d15 	stw	r8,244(sp)
 200227c:	20072900 	call	2007290 <__fpclassifyd>
 2002280:	da003d17 	ldw	r8,244(sp)
 2002284:	1000f026 	beq	r2,zero,2002648 <___vfprintf_internal_r+0x1a5c>
 2002288:	d9002917 	ldw	r4,164(sp)
 200228c:	05bff7c4 	movi	r22,-33
 2002290:	00bfffc4 	movi	r2,-1
 2002294:	8dac703a 	and	r22,r17,r22
 2002298:	20820026 	beq	r4,r2,2002a9c <___vfprintf_internal_r+0x1eb0>
 200229c:	008011c4 	movi	r2,71
 20022a0:	b081f726 	beq	r22,r2,2002a80 <___vfprintf_internal_r+0x1e94>
 20022a4:	d9003817 	ldw	r4,224(sp)
 20022a8:	90c04014 	ori	r3,r18,256
 20022ac:	d8c02b15 	stw	r3,172(sp)
 20022b0:	20021516 	blt	r4,zero,2002b08 <___vfprintf_internal_r+0x1f1c>
 20022b4:	dcc03817 	ldw	r19,224(sp)
 20022b8:	d8002a05 	stb	zero,168(sp)
 20022bc:	00801984 	movi	r2,102
 20022c0:	8881f926 	beq	r17,r2,2002aa8 <___vfprintf_internal_r+0x1ebc>
 20022c4:	00801184 	movi	r2,70
 20022c8:	88821c26 	beq	r17,r2,2002b3c <___vfprintf_internal_r+0x1f50>
 20022cc:	00801144 	movi	r2,69
 20022d0:	b081ef26 	beq	r22,r2,2002a90 <___vfprintf_internal_r+0x1ea4>
 20022d4:	d8c02917 	ldw	r3,164(sp)
 20022d8:	d8802104 	addi	r2,sp,132
 20022dc:	d8800315 	stw	r2,12(sp)
 20022e0:	d9403617 	ldw	r5,216(sp)
 20022e4:	d8802504 	addi	r2,sp,148
 20022e8:	d9002c17 	ldw	r4,176(sp)
 20022ec:	d8800215 	stw	r2,8(sp)
 20022f0:	d8802604 	addi	r2,sp,152
 20022f4:	d8c00015 	stw	r3,0(sp)
 20022f8:	d8800115 	stw	r2,4(sp)
 20022fc:	01c00084 	movi	r7,2
 2002300:	980d883a 	mov	r6,r19
 2002304:	d8c03c15 	stw	r3,240(sp)
 2002308:	da003d15 	stw	r8,244(sp)
 200230c:	20032100 	call	2003210 <_dtoa_r>
 2002310:	1021883a 	mov	r16,r2
 2002314:	008019c4 	movi	r2,103
 2002318:	d8c03c17 	ldw	r3,240(sp)
 200231c:	da003d17 	ldw	r8,244(sp)
 2002320:	88817126 	beq	r17,r2,20028e8 <___vfprintf_internal_r+0x1cfc>
 2002324:	008011c4 	movi	r2,71
 2002328:	88829226 	beq	r17,r2,2002d74 <___vfprintf_internal_r+0x2188>
 200232c:	80f9883a 	add	fp,r16,r3
 2002330:	d9003617 	ldw	r4,216(sp)
 2002334:	000d883a 	mov	r6,zero
 2002338:	000f883a 	mov	r7,zero
 200233c:	980b883a 	mov	r5,r19
 2002340:	da003d15 	stw	r8,244(sp)
 2002344:	200bef80 	call	200bef8 <__eqdf2>
 2002348:	da003d17 	ldw	r8,244(sp)
 200234c:	10018d26 	beq	r2,zero,2002984 <___vfprintf_internal_r+0x1d98>
 2002350:	d8802117 	ldw	r2,132(sp)
 2002354:	1700062e 	bgeu	r2,fp,2002370 <___vfprintf_internal_r+0x1784>
 2002358:	01000c04 	movi	r4,48
 200235c:	10c00044 	addi	r3,r2,1
 2002360:	d8c02115 	stw	r3,132(sp)
 2002364:	11000005 	stb	r4,0(r2)
 2002368:	d8802117 	ldw	r2,132(sp)
 200236c:	173ffb36 	bltu	r2,fp,200235c <__alt_mem_mem_0+0xfcfe235c>
 2002370:	1405c83a 	sub	r2,r2,r16
 2002374:	d8803315 	stw	r2,204(sp)
 2002378:	008011c4 	movi	r2,71
 200237c:	b0817626 	beq	r22,r2,2002958 <___vfprintf_internal_r+0x1d6c>
 2002380:	00801944 	movi	r2,101
 2002384:	1442810e 	bge	r2,r17,2002d8c <___vfprintf_internal_r+0x21a0>
 2002388:	d8c02617 	ldw	r3,152(sp)
 200238c:	00801984 	movi	r2,102
 2002390:	d8c03215 	stw	r3,200(sp)
 2002394:	8881fe26 	beq	r17,r2,2002b90 <___vfprintf_internal_r+0x1fa4>
 2002398:	d8c03217 	ldw	r3,200(sp)
 200239c:	d9003317 	ldw	r4,204(sp)
 20023a0:	1901dd16 	blt	r3,r4,2002b18 <___vfprintf_internal_r+0x1f2c>
 20023a4:	9480004c 	andi	r18,r18,1
 20023a8:	90022b1e 	bne	r18,zero,2002c58 <___vfprintf_internal_r+0x206c>
 20023ac:	1805883a 	mov	r2,r3
 20023b0:	18028016 	blt	r3,zero,2002db4 <___vfprintf_internal_r+0x21c8>
 20023b4:	d8c03217 	ldw	r3,200(sp)
 20023b8:	044019c4 	movi	r17,103
 20023bc:	d8c02e15 	stw	r3,184(sp)
 20023c0:	df002a07 	ldb	fp,168(sp)
 20023c4:	e001531e 	bne	fp,zero,2002914 <___vfprintf_internal_r+0x1d28>
 20023c8:	df002783 	ldbu	fp,158(sp)
 20023cc:	d8802a15 	stw	r2,168(sp)
 20023d0:	dc802b17 	ldw	r18,172(sp)
 20023d4:	d8002915 	stw	zero,164(sp)
 20023d8:	003bd106 	br	2001320 <__alt_mem_mem_0+0xfcfe1320>
 20023dc:	d8802d17 	ldw	r2,180(sp)
 20023e0:	d8c02d17 	ldw	r3,180(sp)
 20023e4:	d9002d17 	ldw	r4,180(sp)
 20023e8:	10800017 	ldw	r2,0(r2)
 20023ec:	18c00117 	ldw	r3,4(r3)
 20023f0:	21000204 	addi	r4,r4,8
 20023f4:	d8803615 	stw	r2,216(sp)
 20023f8:	d8c03815 	stw	r3,224(sp)
 20023fc:	d9002d15 	stw	r4,180(sp)
 2002400:	003b7506 	br	20011d8 <__alt_mem_mem_0+0xfcfe11d8>
 2002404:	ac400007 	ldb	r17,0(r21)
 2002408:	003a5906 	br	2000d70 <__alt_mem_mem_0+0xfcfe0d70>
 200240c:	9080100c 	andi	r2,r18,64
 2002410:	1000a826 	beq	r2,zero,20026b4 <___vfprintf_internal_r+0x1ac8>
 2002414:	d9002d17 	ldw	r4,180(sp)
 2002418:	002d883a 	mov	r22,zero
 200241c:	24c0000b 	ldhu	r19,0(r4)
 2002420:	21000104 	addi	r4,r4,4
 2002424:	d9002d15 	stw	r4,180(sp)
 2002428:	003ccb06 	br	2001758 <__alt_mem_mem_0+0xfcfe1758>
 200242c:	d8c02d17 	ldw	r3,180(sp)
 2002430:	d9002917 	ldw	r4,164(sp)
 2002434:	002d883a 	mov	r22,zero
 2002438:	18800104 	addi	r2,r3,4
 200243c:	1cc00017 	ldw	r19,0(r3)
 2002440:	203ebb0e 	bge	r4,zero,2001f30 <__alt_mem_mem_0+0xfcfe1f30>
 2002444:	003ef106 	br	200200c <__alt_mem_mem_0+0xfcfe200c>
 2002448:	9080040c 	andi	r2,r18,16
 200244c:	1000921e 	bne	r2,zero,2002698 <___vfprintf_internal_r+0x1aac>
 2002450:	9480100c 	andi	r18,r18,64
 2002454:	90013926 	beq	r18,zero,200293c <___vfprintf_internal_r+0x1d50>
 2002458:	d9002d17 	ldw	r4,180(sp)
 200245c:	d9402f17 	ldw	r5,188(sp)
 2002460:	20800017 	ldw	r2,0(r4)
 2002464:	21000104 	addi	r4,r4,4
 2002468:	d9002d15 	stw	r4,180(sp)
 200246c:	1140000d 	sth	r5,0(r2)
 2002470:	003a1606 	br	2000ccc <__alt_mem_mem_0+0xfcfe0ccc>
 2002474:	9080100c 	andi	r2,r18,64
 2002478:	10008026 	beq	r2,zero,200267c <___vfprintf_internal_r+0x1a90>
 200247c:	d8c02d17 	ldw	r3,180(sp)
 2002480:	1cc0000f 	ldh	r19,0(r3)
 2002484:	18c00104 	addi	r3,r3,4
 2002488:	d8c02d15 	stw	r3,180(sp)
 200248c:	982dd7fa 	srai	r22,r19,31
 2002490:	b005883a 	mov	r2,r22
 2002494:	003b1f06 	br	2001114 <__alt_mem_mem_0+0xfcfe1114>
 2002498:	9080100c 	andi	r2,r18,64
 200249c:	d8002785 	stb	zero,158(sp)
 20024a0:	10008a1e 	bne	r2,zero,20026cc <___vfprintf_internal_r+0x1ae0>
 20024a4:	d9402d17 	ldw	r5,180(sp)
 20024a8:	d8c02917 	ldw	r3,164(sp)
 20024ac:	002d883a 	mov	r22,zero
 20024b0:	28800104 	addi	r2,r5,4
 20024b4:	2cc00017 	ldw	r19,0(r5)
 20024b8:	183e4b0e 	bge	r3,zero,2001de8 <__alt_mem_mem_0+0xfcfe1de8>
 20024bc:	9d86b03a 	or	r3,r19,r22
 20024c0:	d8802d15 	stw	r2,180(sp)
 20024c4:	183e4c1e 	bne	r3,zero,2001df8 <__alt_mem_mem_0+0xfcfe1df8>
 20024c8:	0039883a 	mov	fp,zero
 20024cc:	0005883a 	mov	r2,zero
 20024d0:	003d4006 	br	20019d4 <__alt_mem_mem_0+0xfcfe19d4>
 20024d4:	01408134 	movhi	r5,516
 20024d8:	2943d584 	addi	r5,r5,3926
 20024dc:	d9402b15 	stw	r5,172(sp)
 20024e0:	d9402b17 	ldw	r5,172(sp)
 20024e4:	1c47883a 	add	r3,r3,r17
 20024e8:	10800044 	addi	r2,r2,1
 20024ec:	41400015 	stw	r5,0(r8)
 20024f0:	44400115 	stw	r17,4(r8)
 20024f4:	d8c02015 	stw	r3,128(sp)
 20024f8:	d8801f15 	stw	r2,124(sp)
 20024fc:	010001c4 	movi	r4,7
 2002500:	20bec816 	blt	r4,r2,2002024 <__alt_mem_mem_0+0xfcfe2024>
 2002504:	42000204 	addi	r8,r8,8
 2002508:	003ecd06 	br	2002040 <__alt_mem_mem_0+0xfcfe2040>
 200250c:	d9002917 	ldw	r4,164(sp)
 2002510:	d8002785 	stb	zero,158(sp)
 2002514:	203d2d16 	blt	r4,zero,20019cc <__alt_mem_mem_0+0xfcfe19cc>
 2002518:	00bfdfc4 	movi	r2,-129
 200251c:	90a4703a 	and	r18,r18,r2
 2002520:	003a9106 	br	2000f68 <__alt_mem_mem_0+0xfcfe0f68>
 2002524:	01008134 	movhi	r4,516
 2002528:	2103d584 	addi	r4,r4,3926
 200252c:	d9002b15 	stw	r4,172(sp)
 2002530:	003c0c06 	br	2001564 <__alt_mem_mem_0+0xfcfe1564>
 2002534:	d9002c17 	ldw	r4,176(sp)
 2002538:	d9801e04 	addi	r6,sp,120
 200253c:	b80b883a 	mov	r5,r23
 2002540:	20077040 	call	2007704 <__sprint_r>
 2002544:	103aab1e 	bne	r2,zero,2000ff4 <__alt_mem_mem_0+0xfcfe0ff4>
 2002548:	d8c02017 	ldw	r3,128(sp)
 200254c:	da000404 	addi	r8,sp,16
 2002550:	003d4106 	br	2001a58 <__alt_mem_mem_0+0xfcfe1a58>
 2002554:	d8801f17 	ldw	r2,124(sp)
 2002558:	01408134 	movhi	r5,516
 200255c:	01000044 	movi	r4,1
 2002560:	18c00044 	addi	r3,r3,1
 2002564:	10800044 	addi	r2,r2,1
 2002568:	2943d504 	addi	r5,r5,3924
 200256c:	41000115 	stw	r4,4(r8)
 2002570:	41400015 	stw	r5,0(r8)
 2002574:	d8c02015 	stw	r3,128(sp)
 2002578:	d8801f15 	stw	r2,124(sp)
 200257c:	010001c4 	movi	r4,7
 2002580:	20805c16 	blt	r4,r2,20026f4 <___vfprintf_internal_r+0x1b08>
 2002584:	42000204 	addi	r8,r8,8
 2002588:	8800041e 	bne	r17,zero,200259c <___vfprintf_internal_r+0x19b0>
 200258c:	d8803317 	ldw	r2,204(sp)
 2002590:	1000021e 	bne	r2,zero,200259c <___vfprintf_internal_r+0x19b0>
 2002594:	9080004c 	andi	r2,r18,1
 2002598:	103c0926 	beq	r2,zero,20015c0 <__alt_mem_mem_0+0xfcfe15c0>
 200259c:	d9003717 	ldw	r4,220(sp)
 20025a0:	d8801f17 	ldw	r2,124(sp)
 20025a4:	d9403417 	ldw	r5,208(sp)
 20025a8:	20c7883a 	add	r3,r4,r3
 20025ac:	10800044 	addi	r2,r2,1
 20025b0:	41000115 	stw	r4,4(r8)
 20025b4:	41400015 	stw	r5,0(r8)
 20025b8:	d8c02015 	stw	r3,128(sp)
 20025bc:	d8801f15 	stw	r2,124(sp)
 20025c0:	010001c4 	movi	r4,7
 20025c4:	20812116 	blt	r4,r2,2002a4c <___vfprintf_internal_r+0x1e60>
 20025c8:	42000204 	addi	r8,r8,8
 20025cc:	0463c83a 	sub	r17,zero,r17
 20025d0:	0440730e 	bge	zero,r17,20027a0 <___vfprintf_internal_r+0x1bb4>
 20025d4:	05800404 	movi	r22,16
 20025d8:	b440860e 	bge	r22,r17,20027f4 <___vfprintf_internal_r+0x1c08>
 20025dc:	01408134 	movhi	r5,516
 20025e0:	2943d584 	addi	r5,r5,3926
 20025e4:	d9402b15 	stw	r5,172(sp)
 20025e8:	070001c4 	movi	fp,7
 20025ec:	dcc02c17 	ldw	r19,176(sp)
 20025f0:	00000306 	br	2002600 <___vfprintf_internal_r+0x1a14>
 20025f4:	42000204 	addi	r8,r8,8
 20025f8:	8c7ffc04 	addi	r17,r17,-16
 20025fc:	b440800e 	bge	r22,r17,2002800 <___vfprintf_internal_r+0x1c14>
 2002600:	18c00404 	addi	r3,r3,16
 2002604:	10800044 	addi	r2,r2,1
 2002608:	45000015 	stw	r20,0(r8)
 200260c:	45800115 	stw	r22,4(r8)
 2002610:	d8c02015 	stw	r3,128(sp)
 2002614:	d8801f15 	stw	r2,124(sp)
 2002618:	e0bff60e 	bge	fp,r2,20025f4 <__alt_mem_mem_0+0xfcfe25f4>
 200261c:	d9801e04 	addi	r6,sp,120
 2002620:	b80b883a 	mov	r5,r23
 2002624:	9809883a 	mov	r4,r19
 2002628:	20077040 	call	2007704 <__sprint_r>
 200262c:	103a711e 	bne	r2,zero,2000ff4 <__alt_mem_mem_0+0xfcfe0ff4>
 2002630:	d8c02017 	ldw	r3,128(sp)
 2002634:	d8801f17 	ldw	r2,124(sp)
 2002638:	da000404 	addi	r8,sp,16
 200263c:	003fee06 	br	20025f8 <__alt_mem_mem_0+0xfcfe25f8>
 2002640:	00bfffc4 	movi	r2,-1
 2002644:	003a6f06 	br	2001004 <__alt_mem_mem_0+0xfcfe1004>
 2002648:	008011c4 	movi	r2,71
 200264c:	1440b816 	blt	r2,r17,2002930 <___vfprintf_internal_r+0x1d44>
 2002650:	04008134 	movhi	r16,516
 2002654:	8403c704 	addi	r16,r16,3868
 2002658:	00c000c4 	movi	r3,3
 200265c:	00bfdfc4 	movi	r2,-129
 2002660:	d8c02a15 	stw	r3,168(sp)
 2002664:	90a4703a 	and	r18,r18,r2
 2002668:	df002783 	ldbu	fp,158(sp)
 200266c:	d8c02e15 	stw	r3,184(sp)
 2002670:	d8002915 	stw	zero,164(sp)
 2002674:	d8003215 	stw	zero,200(sp)
 2002678:	003b2906 	br	2001320 <__alt_mem_mem_0+0xfcfe1320>
 200267c:	d9002d17 	ldw	r4,180(sp)
 2002680:	24c00017 	ldw	r19,0(r4)
 2002684:	21000104 	addi	r4,r4,4
 2002688:	d9002d15 	stw	r4,180(sp)
 200268c:	982dd7fa 	srai	r22,r19,31
 2002690:	b005883a 	mov	r2,r22
 2002694:	003a9f06 	br	2001114 <__alt_mem_mem_0+0xfcfe1114>
 2002698:	d9402d17 	ldw	r5,180(sp)
 200269c:	d8c02f17 	ldw	r3,188(sp)
 20026a0:	28800017 	ldw	r2,0(r5)
 20026a4:	29400104 	addi	r5,r5,4
 20026a8:	d9402d15 	stw	r5,180(sp)
 20026ac:	10c00015 	stw	r3,0(r2)
 20026b0:	00398606 	br	2000ccc <__alt_mem_mem_0+0xfcfe0ccc>
 20026b4:	d9402d17 	ldw	r5,180(sp)
 20026b8:	002d883a 	mov	r22,zero
 20026bc:	2cc00017 	ldw	r19,0(r5)
 20026c0:	29400104 	addi	r5,r5,4
 20026c4:	d9402d15 	stw	r5,180(sp)
 20026c8:	003c2306 	br	2001758 <__alt_mem_mem_0+0xfcfe1758>
 20026cc:	d8c02d17 	ldw	r3,180(sp)
 20026d0:	d9002917 	ldw	r4,164(sp)
 20026d4:	002d883a 	mov	r22,zero
 20026d8:	18800104 	addi	r2,r3,4
 20026dc:	1cc0000b 	ldhu	r19,0(r3)
 20026e0:	203dc10e 	bge	r4,zero,2001de8 <__alt_mem_mem_0+0xfcfe1de8>
 20026e4:	003f7506 	br	20024bc <__alt_mem_mem_0+0xfcfe24bc>
 20026e8:	04008134 	movhi	r16,516
 20026ec:	8403c504 	addi	r16,r16,3860
 20026f0:	003acc06 	br	2001224 <__alt_mem_mem_0+0xfcfe1224>
 20026f4:	d9002c17 	ldw	r4,176(sp)
 20026f8:	d9801e04 	addi	r6,sp,120
 20026fc:	b80b883a 	mov	r5,r23
 2002700:	20077040 	call	2007704 <__sprint_r>
 2002704:	103a3b1e 	bne	r2,zero,2000ff4 <__alt_mem_mem_0+0xfcfe0ff4>
 2002708:	dc402617 	ldw	r17,152(sp)
 200270c:	d8c02017 	ldw	r3,128(sp)
 2002710:	da000404 	addi	r8,sp,16
 2002714:	003f9c06 	br	2002588 <__alt_mem_mem_0+0xfcfe2588>
 2002718:	ac400043 	ldbu	r17,1(r21)
 200271c:	94800814 	ori	r18,r18,32
 2002720:	ad400044 	addi	r21,r21,1
 2002724:	8c403fcc 	andi	r17,r17,255
 2002728:	8c40201c 	xori	r17,r17,128
 200272c:	8c7fe004 	addi	r17,r17,-128
 2002730:	00398f06 	br	2000d70 <__alt_mem_mem_0+0xfcfe0d70>
 2002734:	d8c02d15 	stw	r3,180(sp)
 2002738:	0039883a 	mov	fp,zero
 200273c:	003e3506 	br	2002014 <__alt_mem_mem_0+0xfcfe2014>
 2002740:	d9002c17 	ldw	r4,176(sp)
 2002744:	d9801e04 	addi	r6,sp,120
 2002748:	b80b883a 	mov	r5,r23
 200274c:	20077040 	call	2007704 <__sprint_r>
 2002750:	103a281e 	bne	r2,zero,2000ff4 <__alt_mem_mem_0+0xfcfe0ff4>
 2002754:	d8c02017 	ldw	r3,128(sp)
 2002758:	da000404 	addi	r8,sp,16
 200275c:	003cd006 	br	2001aa0 <__alt_mem_mem_0+0xfcfe1aa0>
 2002760:	8009883a 	mov	r4,r16
 2002764:	da003d15 	stw	r8,244(sp)
 2002768:	20075700 	call	2007570 <strlen>
 200276c:	d8802e15 	stw	r2,184(sp)
 2002770:	da003d17 	ldw	r8,244(sp)
 2002774:	103c340e 	bge	r2,zero,2001848 <__alt_mem_mem_0+0xfcfe1848>
 2002778:	0005883a 	mov	r2,zero
 200277c:	003c3206 	br	2001848 <__alt_mem_mem_0+0xfcfe1848>
 2002780:	d9002c17 	ldw	r4,176(sp)
 2002784:	d9801e04 	addi	r6,sp,120
 2002788:	b80b883a 	mov	r5,r23
 200278c:	20077040 	call	2007704 <__sprint_r>
 2002790:	103a181e 	bne	r2,zero,2000ff4 <__alt_mem_mem_0+0xfcfe0ff4>
 2002794:	d8c02017 	ldw	r3,128(sp)
 2002798:	d8801f17 	ldw	r2,124(sp)
 200279c:	da000404 	addi	r8,sp,16
 20027a0:	d9403317 	ldw	r5,204(sp)
 20027a4:	10800044 	addi	r2,r2,1
 20027a8:	44000015 	stw	r16,0(r8)
 20027ac:	28c7883a 	add	r3,r5,r3
 20027b0:	003b7d06 	br	20015a8 <__alt_mem_mem_0+0xfcfe15a8>
 20027b4:	01008134 	movhi	r4,516
 20027b8:	2103d984 	addi	r4,r4,3942
 20027bc:	d9003515 	stw	r4,212(sp)
 20027c0:	003b1406 	br	2001414 <__alt_mem_mem_0+0xfcfe1414>
 20027c4:	013fffc4 	movi	r4,-1
 20027c8:	003a3506 	br	20010a0 <__alt_mem_mem_0+0xfcfe10a0>
 20027cc:	0023883a 	mov	r17,zero
 20027d0:	003d9d06 	br	2001e48 <__alt_mem_mem_0+0xfcfe1e48>
 20027d4:	d9002c17 	ldw	r4,176(sp)
 20027d8:	d9801e04 	addi	r6,sp,120
 20027dc:	b80b883a 	mov	r5,r23
 20027e0:	20077040 	call	2007704 <__sprint_r>
 20027e4:	103a031e 	bne	r2,zero,2000ff4 <__alt_mem_mem_0+0xfcfe0ff4>
 20027e8:	d8c02017 	ldw	r3,128(sp)
 20027ec:	da000404 	addi	r8,sp,16
 20027f0:	003d9406 	br	2001e44 <__alt_mem_mem_0+0xfcfe1e44>
 20027f4:	01008134 	movhi	r4,516
 20027f8:	2103d584 	addi	r4,r4,3926
 20027fc:	d9002b15 	stw	r4,172(sp)
 2002800:	d9002b17 	ldw	r4,172(sp)
 2002804:	1c47883a 	add	r3,r3,r17
 2002808:	10800044 	addi	r2,r2,1
 200280c:	41000015 	stw	r4,0(r8)
 2002810:	44400115 	stw	r17,4(r8)
 2002814:	d8c02015 	stw	r3,128(sp)
 2002818:	d8801f15 	stw	r2,124(sp)
 200281c:	010001c4 	movi	r4,7
 2002820:	20bfd716 	blt	r4,r2,2002780 <__alt_mem_mem_0+0xfcfe2780>
 2002824:	42000204 	addi	r8,r8,8
 2002828:	003fdd06 	br	20027a0 <__alt_mem_mem_0+0xfcfe27a0>
 200282c:	d9002c17 	ldw	r4,176(sp)
 2002830:	d9801e04 	addi	r6,sp,120
 2002834:	b80b883a 	mov	r5,r23
 2002838:	20077040 	call	2007704 <__sprint_r>
 200283c:	1039ed1e 	bne	r2,zero,2000ff4 <__alt_mem_mem_0+0xfcfe0ff4>
 2002840:	d8802617 	ldw	r2,152(sp)
 2002844:	d8c02017 	ldw	r3,128(sp)
 2002848:	da000404 	addi	r8,sp,16
 200284c:	003e1006 	br	2002090 <__alt_mem_mem_0+0xfcfe2090>
 2002850:	00800044 	movi	r2,1
 2002854:	10803fcc 	andi	r2,r2,255
 2002858:	00c00044 	movi	r3,1
 200285c:	10fa3526 	beq	r2,r3,2001134 <__alt_mem_mem_0+0xfcfe1134>
 2002860:	00c00084 	movi	r3,2
 2002864:	10fbcb26 	beq	r2,r3,2001794 <__alt_mem_mem_0+0xfcfe1794>
 2002868:	003a8f06 	br	20012a8 <__alt_mem_mem_0+0xfcfe12a8>
 200286c:	01008134 	movhi	r4,516
 2002870:	2103d984 	addi	r4,r4,3942
 2002874:	d9003515 	stw	r4,212(sp)
 2002878:	003b7606 	br	2001654 <__alt_mem_mem_0+0xfcfe1654>
 200287c:	d8802917 	ldw	r2,164(sp)
 2002880:	00c00184 	movi	r3,6
 2002884:	1880012e 	bgeu	r3,r2,200288c <___vfprintf_internal_r+0x1ca0>
 2002888:	1805883a 	mov	r2,r3
 200288c:	d8802e15 	stw	r2,184(sp)
 2002890:	1000ef16 	blt	r2,zero,2002c50 <___vfprintf_internal_r+0x2064>
 2002894:	04008134 	movhi	r16,516
 2002898:	d8802a15 	stw	r2,168(sp)
 200289c:	dcc02d15 	stw	r19,180(sp)
 20028a0:	d8002915 	stw	zero,164(sp)
 20028a4:	d8003215 	stw	zero,200(sp)
 20028a8:	8403d304 	addi	r16,r16,3916
 20028ac:	0039883a 	mov	fp,zero
 20028b0:	003aa206 	br	200133c <__alt_mem_mem_0+0xfcfe133c>
 20028b4:	0021883a 	mov	r16,zero
 20028b8:	003e0706 	br	20020d8 <__alt_mem_mem_0+0xfcfe20d8>
 20028bc:	d9002c17 	ldw	r4,176(sp)
 20028c0:	d9801e04 	addi	r6,sp,120
 20028c4:	b80b883a 	mov	r5,r23
 20028c8:	20077040 	call	2007704 <__sprint_r>
 20028cc:	1039c91e 	bne	r2,zero,2000ff4 <__alt_mem_mem_0+0xfcfe0ff4>
 20028d0:	d8802617 	ldw	r2,152(sp)
 20028d4:	d9403317 	ldw	r5,204(sp)
 20028d8:	d8c02017 	ldw	r3,128(sp)
 20028dc:	da000404 	addi	r8,sp,16
 20028e0:	2885c83a 	sub	r2,r5,r2
 20028e4:	003dfb06 	br	20020d4 <__alt_mem_mem_0+0xfcfe20d4>
 20028e8:	9080004c 	andi	r2,r18,1
 20028ec:	103e8f1e 	bne	r2,zero,200232c <__alt_mem_mem_0+0xfcfe232c>
 20028f0:	d8802117 	ldw	r2,132(sp)
 20028f4:	003e9e06 	br	2002370 <__alt_mem_mem_0+0xfcfe2370>
 20028f8:	1025883a 	mov	r18,r2
 20028fc:	0039883a 	mov	fp,zero
 2002900:	00800084 	movi	r2,2
 2002904:	003fd306 	br	2002854 <__alt_mem_mem_0+0xfcfe2854>
 2002908:	07000b44 	movi	fp,45
 200290c:	df002785 	stb	fp,158(sp)
 2002910:	003a4006 	br	2001214 <__alt_mem_mem_0+0xfcfe1214>
 2002914:	00c00b44 	movi	r3,45
 2002918:	d8c02785 	stb	r3,158(sp)
 200291c:	d8802a15 	stw	r2,168(sp)
 2002920:	dc802b17 	ldw	r18,172(sp)
 2002924:	d8002915 	stw	zero,164(sp)
 2002928:	07000b44 	movi	fp,45
 200292c:	003a8006 	br	2001330 <__alt_mem_mem_0+0xfcfe1330>
 2002930:	04008134 	movhi	r16,516
 2002934:	8403c804 	addi	r16,r16,3872
 2002938:	003f4706 	br	2002658 <__alt_mem_mem_0+0xfcfe2658>
 200293c:	d8c02d17 	ldw	r3,180(sp)
 2002940:	d9002f17 	ldw	r4,188(sp)
 2002944:	18800017 	ldw	r2,0(r3)
 2002948:	18c00104 	addi	r3,r3,4
 200294c:	d8c02d15 	stw	r3,180(sp)
 2002950:	11000015 	stw	r4,0(r2)
 2002954:	0038dd06 	br	2000ccc <__alt_mem_mem_0+0xfcfe0ccc>
 2002958:	dd802617 	ldw	r22,152(sp)
 200295c:	00bfff44 	movi	r2,-3
 2002960:	b0801c16 	blt	r22,r2,20029d4 <___vfprintf_internal_r+0x1de8>
 2002964:	d9402917 	ldw	r5,164(sp)
 2002968:	2d801a16 	blt	r5,r22,20029d4 <___vfprintf_internal_r+0x1de8>
 200296c:	dd803215 	stw	r22,200(sp)
 2002970:	003e8906 	br	2002398 <__alt_mem_mem_0+0xfcfe2398>
 2002974:	01008134 	movhi	r4,516
 2002978:	2103d584 	addi	r4,r4,3926
 200297c:	d9002b15 	stw	r4,172(sp)
 2002980:	003c9106 	br	2001bc8 <__alt_mem_mem_0+0xfcfe1bc8>
 2002984:	e005883a 	mov	r2,fp
 2002988:	003e7906 	br	2002370 <__alt_mem_mem_0+0xfcfe2370>
 200298c:	d9402917 	ldw	r5,164(sp)
 2002990:	df002783 	ldbu	fp,158(sp)
 2002994:	dcc02d15 	stw	r19,180(sp)
 2002998:	d9402a15 	stw	r5,168(sp)
 200299c:	d9402e15 	stw	r5,184(sp)
 20029a0:	d8002915 	stw	zero,164(sp)
 20029a4:	d8003215 	stw	zero,200(sp)
 20029a8:	003a5d06 	br	2001320 <__alt_mem_mem_0+0xfcfe1320>
 20029ac:	9080004c 	andi	r2,r18,1
 20029b0:	0039883a 	mov	fp,zero
 20029b4:	10000426 	beq	r2,zero,20029c8 <___vfprintf_internal_r+0x1ddc>
 20029b8:	00800c04 	movi	r2,48
 20029bc:	dc001dc4 	addi	r16,sp,119
 20029c0:	d8801dc5 	stb	r2,119(sp)
 20029c4:	003b8006 	br	20017c8 <__alt_mem_mem_0+0xfcfe17c8>
 20029c8:	d8002e15 	stw	zero,184(sp)
 20029cc:	dc001e04 	addi	r16,sp,120
 20029d0:	003a4d06 	br	2001308 <__alt_mem_mem_0+0xfcfe1308>
 20029d4:	8c7fff84 	addi	r17,r17,-2
 20029d8:	b5bfffc4 	addi	r22,r22,-1
 20029dc:	dd802615 	stw	r22,152(sp)
 20029e0:	dc4022c5 	stb	r17,139(sp)
 20029e4:	b000bf16 	blt	r22,zero,2002ce4 <___vfprintf_internal_r+0x20f8>
 20029e8:	00800ac4 	movi	r2,43
 20029ec:	d8802305 	stb	r2,140(sp)
 20029f0:	00800244 	movi	r2,9
 20029f4:	15807016 	blt	r2,r22,2002bb8 <___vfprintf_internal_r+0x1fcc>
 20029f8:	00800c04 	movi	r2,48
 20029fc:	b5800c04 	addi	r22,r22,48
 2002a00:	d8802345 	stb	r2,141(sp)
 2002a04:	dd802385 	stb	r22,142(sp)
 2002a08:	d88023c4 	addi	r2,sp,143
 2002a0c:	df0022c4 	addi	fp,sp,139
 2002a10:	d8c03317 	ldw	r3,204(sp)
 2002a14:	1739c83a 	sub	fp,r2,fp
 2002a18:	d9003317 	ldw	r4,204(sp)
 2002a1c:	e0c7883a 	add	r3,fp,r3
 2002a20:	df003a15 	stw	fp,232(sp)
 2002a24:	d8c02e15 	stw	r3,184(sp)
 2002a28:	00800044 	movi	r2,1
 2002a2c:	1100b30e 	bge	r2,r4,2002cfc <___vfprintf_internal_r+0x2110>
 2002a30:	d8c02e17 	ldw	r3,184(sp)
 2002a34:	18c00044 	addi	r3,r3,1
 2002a38:	d8c02e15 	stw	r3,184(sp)
 2002a3c:	1805883a 	mov	r2,r3
 2002a40:	1800ac16 	blt	r3,zero,2002cf4 <___vfprintf_internal_r+0x2108>
 2002a44:	d8003215 	stw	zero,200(sp)
 2002a48:	003e5d06 	br	20023c0 <__alt_mem_mem_0+0xfcfe23c0>
 2002a4c:	d9002c17 	ldw	r4,176(sp)
 2002a50:	d9801e04 	addi	r6,sp,120
 2002a54:	b80b883a 	mov	r5,r23
 2002a58:	20077040 	call	2007704 <__sprint_r>
 2002a5c:	1039651e 	bne	r2,zero,2000ff4 <__alt_mem_mem_0+0xfcfe0ff4>
 2002a60:	dc402617 	ldw	r17,152(sp)
 2002a64:	d8c02017 	ldw	r3,128(sp)
 2002a68:	d8801f17 	ldw	r2,124(sp)
 2002a6c:	da000404 	addi	r8,sp,16
 2002a70:	003ed606 	br	20025cc <__alt_mem_mem_0+0xfcfe25cc>
 2002a74:	582b883a 	mov	r21,r11
 2002a78:	d8002915 	stw	zero,164(sp)
 2002a7c:	0038bd06 	br	2000d74 <__alt_mem_mem_0+0xfcfe0d74>
 2002a80:	d8802917 	ldw	r2,164(sp)
 2002a84:	103e071e 	bne	r2,zero,20022a4 <__alt_mem_mem_0+0xfcfe22a4>
 2002a88:	dc002915 	stw	r16,164(sp)
 2002a8c:	003e0506 	br	20022a4 <__alt_mem_mem_0+0xfcfe22a4>
 2002a90:	d9002917 	ldw	r4,164(sp)
 2002a94:	20c00044 	addi	r3,r4,1
 2002a98:	003e0f06 	br	20022d8 <__alt_mem_mem_0+0xfcfe22d8>
 2002a9c:	01400184 	movi	r5,6
 2002aa0:	d9402915 	stw	r5,164(sp)
 2002aa4:	003dff06 	br	20022a4 <__alt_mem_mem_0+0xfcfe22a4>
 2002aa8:	d8802104 	addi	r2,sp,132
 2002aac:	d8800315 	stw	r2,12(sp)
 2002ab0:	d8802504 	addi	r2,sp,148
 2002ab4:	d8800215 	stw	r2,8(sp)
 2002ab8:	d8802604 	addi	r2,sp,152
 2002abc:	d8800115 	stw	r2,4(sp)
 2002ac0:	d8802917 	ldw	r2,164(sp)
 2002ac4:	d9403617 	ldw	r5,216(sp)
 2002ac8:	d9002c17 	ldw	r4,176(sp)
 2002acc:	d8800015 	stw	r2,0(sp)
 2002ad0:	01c000c4 	movi	r7,3
 2002ad4:	980d883a 	mov	r6,r19
 2002ad8:	da003d15 	stw	r8,244(sp)
 2002adc:	20032100 	call	2003210 <_dtoa_r>
 2002ae0:	d8c02917 	ldw	r3,164(sp)
 2002ae4:	da003d17 	ldw	r8,244(sp)
 2002ae8:	1021883a 	mov	r16,r2
 2002aec:	10f9883a 	add	fp,r2,r3
 2002af0:	81000007 	ldb	r4,0(r16)
 2002af4:	00800c04 	movi	r2,48
 2002af8:	20805e26 	beq	r4,r2,2002c74 <___vfprintf_internal_r+0x2088>
 2002afc:	d8c02617 	ldw	r3,152(sp)
 2002b00:	e0f9883a 	add	fp,fp,r3
 2002b04:	003e0a06 	br	2002330 <__alt_mem_mem_0+0xfcfe2330>
 2002b08:	00c00b44 	movi	r3,45
 2002b0c:	24e0003c 	xorhi	r19,r4,32768
 2002b10:	d8c02a05 	stb	r3,168(sp)
 2002b14:	003de906 	br	20022bc <__alt_mem_mem_0+0xfcfe22bc>
 2002b18:	d8c03217 	ldw	r3,200(sp)
 2002b1c:	00c07a0e 	bge	zero,r3,2002d08 <___vfprintf_internal_r+0x211c>
 2002b20:	00800044 	movi	r2,1
 2002b24:	d9003317 	ldw	r4,204(sp)
 2002b28:	1105883a 	add	r2,r2,r4
 2002b2c:	d8802e15 	stw	r2,184(sp)
 2002b30:	10004e16 	blt	r2,zero,2002c6c <___vfprintf_internal_r+0x2080>
 2002b34:	044019c4 	movi	r17,103
 2002b38:	003e2106 	br	20023c0 <__alt_mem_mem_0+0xfcfe23c0>
 2002b3c:	d9002917 	ldw	r4,164(sp)
 2002b40:	d8802104 	addi	r2,sp,132
 2002b44:	d8800315 	stw	r2,12(sp)
 2002b48:	d9000015 	stw	r4,0(sp)
 2002b4c:	d8802504 	addi	r2,sp,148
 2002b50:	d9403617 	ldw	r5,216(sp)
 2002b54:	d9002c17 	ldw	r4,176(sp)
 2002b58:	d8800215 	stw	r2,8(sp)
 2002b5c:	d8802604 	addi	r2,sp,152
 2002b60:	d8800115 	stw	r2,4(sp)
 2002b64:	01c000c4 	movi	r7,3
 2002b68:	980d883a 	mov	r6,r19
 2002b6c:	da003d15 	stw	r8,244(sp)
 2002b70:	20032100 	call	2003210 <_dtoa_r>
 2002b74:	d8c02917 	ldw	r3,164(sp)
 2002b78:	da003d17 	ldw	r8,244(sp)
 2002b7c:	1021883a 	mov	r16,r2
 2002b80:	00801184 	movi	r2,70
 2002b84:	80f9883a 	add	fp,r16,r3
 2002b88:	88bfd926 	beq	r17,r2,2002af0 <__alt_mem_mem_0+0xfcfe2af0>
 2002b8c:	003de806 	br	2002330 <__alt_mem_mem_0+0xfcfe2330>
 2002b90:	d9002917 	ldw	r4,164(sp)
 2002b94:	00c04d0e 	bge	zero,r3,2002ccc <___vfprintf_internal_r+0x20e0>
 2002b98:	2000441e 	bne	r4,zero,2002cac <___vfprintf_internal_r+0x20c0>
 2002b9c:	9480004c 	andi	r18,r18,1
 2002ba0:	9000421e 	bne	r18,zero,2002cac <___vfprintf_internal_r+0x20c0>
 2002ba4:	1805883a 	mov	r2,r3
 2002ba8:	18007016 	blt	r3,zero,2002d6c <___vfprintf_internal_r+0x2180>
 2002bac:	d8c03217 	ldw	r3,200(sp)
 2002bb0:	d8c02e15 	stw	r3,184(sp)
 2002bb4:	003e0206 	br	20023c0 <__alt_mem_mem_0+0xfcfe23c0>
 2002bb8:	df0022c4 	addi	fp,sp,139
 2002bbc:	dc002915 	stw	r16,164(sp)
 2002bc0:	4027883a 	mov	r19,r8
 2002bc4:	e021883a 	mov	r16,fp
 2002bc8:	b009883a 	mov	r4,r22
 2002bcc:	01400284 	movi	r5,10
 2002bd0:	200ac340 	call	200ac34 <__modsi3>
 2002bd4:	10800c04 	addi	r2,r2,48
 2002bd8:	843fffc4 	addi	r16,r16,-1
 2002bdc:	b009883a 	mov	r4,r22
 2002be0:	01400284 	movi	r5,10
 2002be4:	80800005 	stb	r2,0(r16)
 2002be8:	200abb00 	call	200abb0 <__divsi3>
 2002bec:	102d883a 	mov	r22,r2
 2002bf0:	00800244 	movi	r2,9
 2002bf4:	15bff416 	blt	r2,r22,2002bc8 <__alt_mem_mem_0+0xfcfe2bc8>
 2002bf8:	9811883a 	mov	r8,r19
 2002bfc:	b0800c04 	addi	r2,r22,48
 2002c00:	8027883a 	mov	r19,r16
 2002c04:	997fffc4 	addi	r5,r19,-1
 2002c08:	98bfffc5 	stb	r2,-1(r19)
 2002c0c:	dc002917 	ldw	r16,164(sp)
 2002c10:	2f006a2e 	bgeu	r5,fp,2002dbc <___vfprintf_internal_r+0x21d0>
 2002c14:	d9c02384 	addi	r7,sp,142
 2002c18:	3ccfc83a 	sub	r7,r7,r19
 2002c1c:	d9002344 	addi	r4,sp,141
 2002c20:	e1cf883a 	add	r7,fp,r7
 2002c24:	00000106 	br	2002c2c <___vfprintf_internal_r+0x2040>
 2002c28:	28800003 	ldbu	r2,0(r5)
 2002c2c:	20800005 	stb	r2,0(r4)
 2002c30:	21000044 	addi	r4,r4,1
 2002c34:	29400044 	addi	r5,r5,1
 2002c38:	393ffb1e 	bne	r7,r4,2002c28 <__alt_mem_mem_0+0xfcfe2c28>
 2002c3c:	d8802304 	addi	r2,sp,140
 2002c40:	14c5c83a 	sub	r2,r2,r19
 2002c44:	d8c02344 	addi	r3,sp,141
 2002c48:	1885883a 	add	r2,r3,r2
 2002c4c:	003f7006 	br	2002a10 <__alt_mem_mem_0+0xfcfe2a10>
 2002c50:	0005883a 	mov	r2,zero
 2002c54:	003f0f06 	br	2002894 <__alt_mem_mem_0+0xfcfe2894>
 2002c58:	d8c03217 	ldw	r3,200(sp)
 2002c5c:	18c00044 	addi	r3,r3,1
 2002c60:	d8c02e15 	stw	r3,184(sp)
 2002c64:	1805883a 	mov	r2,r3
 2002c68:	183fb20e 	bge	r3,zero,2002b34 <__alt_mem_mem_0+0xfcfe2b34>
 2002c6c:	0005883a 	mov	r2,zero
 2002c70:	003fb006 	br	2002b34 <__alt_mem_mem_0+0xfcfe2b34>
 2002c74:	d9003617 	ldw	r4,216(sp)
 2002c78:	000d883a 	mov	r6,zero
 2002c7c:	000f883a 	mov	r7,zero
 2002c80:	980b883a 	mov	r5,r19
 2002c84:	d8c03c15 	stw	r3,240(sp)
 2002c88:	da003d15 	stw	r8,244(sp)
 2002c8c:	200bef80 	call	200bef8 <__eqdf2>
 2002c90:	d8c03c17 	ldw	r3,240(sp)
 2002c94:	da003d17 	ldw	r8,244(sp)
 2002c98:	103f9826 	beq	r2,zero,2002afc <__alt_mem_mem_0+0xfcfe2afc>
 2002c9c:	00800044 	movi	r2,1
 2002ca0:	10c7c83a 	sub	r3,r2,r3
 2002ca4:	d8c02615 	stw	r3,152(sp)
 2002ca8:	003f9506 	br	2002b00 <__alt_mem_mem_0+0xfcfe2b00>
 2002cac:	d9002917 	ldw	r4,164(sp)
 2002cb0:	d8c03217 	ldw	r3,200(sp)
 2002cb4:	20800044 	addi	r2,r4,1
 2002cb8:	1885883a 	add	r2,r3,r2
 2002cbc:	d8802e15 	stw	r2,184(sp)
 2002cc0:	103dbf0e 	bge	r2,zero,20023c0 <__alt_mem_mem_0+0xfcfe23c0>
 2002cc4:	0005883a 	mov	r2,zero
 2002cc8:	003dbd06 	br	20023c0 <__alt_mem_mem_0+0xfcfe23c0>
 2002ccc:	2000211e 	bne	r4,zero,2002d54 <___vfprintf_internal_r+0x2168>
 2002cd0:	9480004c 	andi	r18,r18,1
 2002cd4:	90001f1e 	bne	r18,zero,2002d54 <___vfprintf_internal_r+0x2168>
 2002cd8:	00800044 	movi	r2,1
 2002cdc:	d8802e15 	stw	r2,184(sp)
 2002ce0:	003db706 	br	20023c0 <__alt_mem_mem_0+0xfcfe23c0>
 2002ce4:	00800b44 	movi	r2,45
 2002ce8:	05adc83a 	sub	r22,zero,r22
 2002cec:	d8802305 	stb	r2,140(sp)
 2002cf0:	003f3f06 	br	20029f0 <__alt_mem_mem_0+0xfcfe29f0>
 2002cf4:	0005883a 	mov	r2,zero
 2002cf8:	003f5206 	br	2002a44 <__alt_mem_mem_0+0xfcfe2a44>
 2002cfc:	90a4703a 	and	r18,r18,r2
 2002d00:	903f4e26 	beq	r18,zero,2002a3c <__alt_mem_mem_0+0xfcfe2a3c>
 2002d04:	003f4a06 	br	2002a30 <__alt_mem_mem_0+0xfcfe2a30>
 2002d08:	00800084 	movi	r2,2
 2002d0c:	10c5c83a 	sub	r2,r2,r3
 2002d10:	003f8406 	br	2002b24 <__alt_mem_mem_0+0xfcfe2b24>
 2002d14:	d8802d17 	ldw	r2,180(sp)
 2002d18:	d9002d17 	ldw	r4,180(sp)
 2002d1c:	ac400043 	ldbu	r17,1(r21)
 2002d20:	10800017 	ldw	r2,0(r2)
 2002d24:	582b883a 	mov	r21,r11
 2002d28:	d8802915 	stw	r2,164(sp)
 2002d2c:	20800104 	addi	r2,r4,4
 2002d30:	d9002917 	ldw	r4,164(sp)
 2002d34:	d8802d15 	stw	r2,180(sp)
 2002d38:	203e7a0e 	bge	r4,zero,2002724 <__alt_mem_mem_0+0xfcfe2724>
 2002d3c:	8c403fcc 	andi	r17,r17,255
 2002d40:	00bfffc4 	movi	r2,-1
 2002d44:	8c40201c 	xori	r17,r17,128
 2002d48:	d8802915 	stw	r2,164(sp)
 2002d4c:	8c7fe004 	addi	r17,r17,-128
 2002d50:	00380706 	br	2000d70 <__alt_mem_mem_0+0xfcfe0d70>
 2002d54:	d8c02917 	ldw	r3,164(sp)
 2002d58:	18c00084 	addi	r3,r3,2
 2002d5c:	d8c02e15 	stw	r3,184(sp)
 2002d60:	1805883a 	mov	r2,r3
 2002d64:	183d960e 	bge	r3,zero,20023c0 <__alt_mem_mem_0+0xfcfe23c0>
 2002d68:	003fd606 	br	2002cc4 <__alt_mem_mem_0+0xfcfe2cc4>
 2002d6c:	0005883a 	mov	r2,zero
 2002d70:	003f8e06 	br	2002bac <__alt_mem_mem_0+0xfcfe2bac>
 2002d74:	9080004c 	andi	r2,r18,1
 2002d78:	103f811e 	bne	r2,zero,2002b80 <__alt_mem_mem_0+0xfcfe2b80>
 2002d7c:	d8802117 	ldw	r2,132(sp)
 2002d80:	1405c83a 	sub	r2,r2,r16
 2002d84:	d8803315 	stw	r2,204(sp)
 2002d88:	b47ef326 	beq	r22,r17,2002958 <__alt_mem_mem_0+0xfcfe2958>
 2002d8c:	dd802617 	ldw	r22,152(sp)
 2002d90:	003f1106 	br	20029d8 <__alt_mem_mem_0+0xfcfe29d8>
 2002d94:	d9c02785 	stb	r7,158(sp)
 2002d98:	00390406 	br	20011ac <__alt_mem_mem_0+0xfcfe11ac>
 2002d9c:	d9c02785 	stb	r7,158(sp)
 2002da0:	0038d306 	br	20010f0 <__alt_mem_mem_0+0xfcfe10f0>
 2002da4:	d9c02785 	stb	r7,158(sp)
 2002da8:	003a6106 	br	2001730 <__alt_mem_mem_0+0xfcfe1730>
 2002dac:	d9c02785 	stb	r7,158(sp)
 2002db0:	003af806 	br	2001994 <__alt_mem_mem_0+0xfcfe1994>
 2002db4:	0005883a 	mov	r2,zero
 2002db8:	003d7e06 	br	20023b4 <__alt_mem_mem_0+0xfcfe23b4>
 2002dbc:	d8802344 	addi	r2,sp,141
 2002dc0:	003f1306 	br	2002a10 <__alt_mem_mem_0+0xfcfe2a10>
 2002dc4:	d9c02785 	stb	r7,158(sp)
 2002dc8:	00392306 	br	2001258 <__alt_mem_mem_0+0xfcfe1258>
 2002dcc:	d9c02785 	stb	r7,158(sp)
 2002dd0:	003aa906 	br	2001878 <__alt_mem_mem_0+0xfcfe1878>
 2002dd4:	d9c02785 	stb	r7,158(sp)
 2002dd8:	003a3d06 	br	20016d0 <__alt_mem_mem_0+0xfcfe16d0>
 2002ddc:	d9c02785 	stb	r7,158(sp)
 2002de0:	003aca06 	br	200190c <__alt_mem_mem_0+0xfcfe190c>

02002de4 <__vfprintf_internal>:
 2002de4:	00808134 	movhi	r2,516
 2002de8:	10963d04 	addi	r2,r2,22772
 2002dec:	300f883a 	mov	r7,r6
 2002df0:	280d883a 	mov	r6,r5
 2002df4:	200b883a 	mov	r5,r4
 2002df8:	11000017 	ldw	r4,0(r2)
 2002dfc:	2000bec1 	jmpi	2000bec <___vfprintf_internal_r>

02002e00 <__sbprintf>:
 2002e00:	2880030b 	ldhu	r2,12(r5)
 2002e04:	2ac01917 	ldw	r11,100(r5)
 2002e08:	2a80038b 	ldhu	r10,14(r5)
 2002e0c:	2a400717 	ldw	r9,28(r5)
 2002e10:	2a000917 	ldw	r8,36(r5)
 2002e14:	defee204 	addi	sp,sp,-1144
 2002e18:	00c10004 	movi	r3,1024
 2002e1c:	dc011a15 	stw	r16,1128(sp)
 2002e20:	10bfff4c 	andi	r2,r2,65533
 2002e24:	2821883a 	mov	r16,r5
 2002e28:	d8cb883a 	add	r5,sp,r3
 2002e2c:	dc811c15 	stw	r18,1136(sp)
 2002e30:	dc411b15 	stw	r17,1132(sp)
 2002e34:	dfc11d15 	stw	ra,1140(sp)
 2002e38:	2025883a 	mov	r18,r4
 2002e3c:	d881030d 	sth	r2,1036(sp)
 2002e40:	dac11915 	stw	r11,1124(sp)
 2002e44:	da81038d 	sth	r10,1038(sp)
 2002e48:	da410715 	stw	r9,1052(sp)
 2002e4c:	da010915 	stw	r8,1060(sp)
 2002e50:	dec10015 	stw	sp,1024(sp)
 2002e54:	dec10415 	stw	sp,1040(sp)
 2002e58:	d8c10215 	stw	r3,1032(sp)
 2002e5c:	d8c10515 	stw	r3,1044(sp)
 2002e60:	d8010615 	stw	zero,1048(sp)
 2002e64:	2000bec0 	call	2000bec <___vfprintf_internal_r>
 2002e68:	1023883a 	mov	r17,r2
 2002e6c:	10000416 	blt	r2,zero,2002e80 <__sbprintf+0x80>
 2002e70:	d9410004 	addi	r5,sp,1024
 2002e74:	9009883a 	mov	r4,r18
 2002e78:	2004ab40 	call	2004ab4 <_fflush_r>
 2002e7c:	10000d1e 	bne	r2,zero,2002eb4 <__sbprintf+0xb4>
 2002e80:	d881030b 	ldhu	r2,1036(sp)
 2002e84:	1080100c 	andi	r2,r2,64
 2002e88:	10000326 	beq	r2,zero,2002e98 <__sbprintf+0x98>
 2002e8c:	8080030b 	ldhu	r2,12(r16)
 2002e90:	10801014 	ori	r2,r2,64
 2002e94:	8080030d 	sth	r2,12(r16)
 2002e98:	8805883a 	mov	r2,r17
 2002e9c:	dfc11d17 	ldw	ra,1140(sp)
 2002ea0:	dc811c17 	ldw	r18,1136(sp)
 2002ea4:	dc411b17 	ldw	r17,1132(sp)
 2002ea8:	dc011a17 	ldw	r16,1128(sp)
 2002eac:	dec11e04 	addi	sp,sp,1144
 2002eb0:	f800283a 	ret
 2002eb4:	047fffc4 	movi	r17,-1
 2002eb8:	003ff106 	br	2002e80 <__alt_mem_mem_0+0xfcfe2e80>

02002ebc <__swsetup_r>:
 2002ebc:	00808134 	movhi	r2,516
 2002ec0:	defffd04 	addi	sp,sp,-12
 2002ec4:	10963d04 	addi	r2,r2,22772
 2002ec8:	dc400115 	stw	r17,4(sp)
 2002ecc:	2023883a 	mov	r17,r4
 2002ed0:	11000017 	ldw	r4,0(r2)
 2002ed4:	dc000015 	stw	r16,0(sp)
 2002ed8:	dfc00215 	stw	ra,8(sp)
 2002edc:	2821883a 	mov	r16,r5
 2002ee0:	20000226 	beq	r4,zero,2002eec <__swsetup_r+0x30>
 2002ee4:	20800e17 	ldw	r2,56(r4)
 2002ee8:	10003126 	beq	r2,zero,2002fb0 <__swsetup_r+0xf4>
 2002eec:	8080030b 	ldhu	r2,12(r16)
 2002ef0:	10c0020c 	andi	r3,r2,8
 2002ef4:	1009883a 	mov	r4,r2
 2002ef8:	18000f26 	beq	r3,zero,2002f38 <__swsetup_r+0x7c>
 2002efc:	80c00417 	ldw	r3,16(r16)
 2002f00:	18001526 	beq	r3,zero,2002f58 <__swsetup_r+0x9c>
 2002f04:	1100004c 	andi	r4,r2,1
 2002f08:	20001c1e 	bne	r4,zero,2002f7c <__swsetup_r+0xc0>
 2002f0c:	1080008c 	andi	r2,r2,2
 2002f10:	1000291e 	bne	r2,zero,2002fb8 <__swsetup_r+0xfc>
 2002f14:	80800517 	ldw	r2,20(r16)
 2002f18:	80800215 	stw	r2,8(r16)
 2002f1c:	18001c26 	beq	r3,zero,2002f90 <__swsetup_r+0xd4>
 2002f20:	0005883a 	mov	r2,zero
 2002f24:	dfc00217 	ldw	ra,8(sp)
 2002f28:	dc400117 	ldw	r17,4(sp)
 2002f2c:	dc000017 	ldw	r16,0(sp)
 2002f30:	dec00304 	addi	sp,sp,12
 2002f34:	f800283a 	ret
 2002f38:	2080040c 	andi	r2,r4,16
 2002f3c:	10002e26 	beq	r2,zero,2002ff8 <__swsetup_r+0x13c>
 2002f40:	2080010c 	andi	r2,r4,4
 2002f44:	10001e1e 	bne	r2,zero,2002fc0 <__swsetup_r+0x104>
 2002f48:	80c00417 	ldw	r3,16(r16)
 2002f4c:	20800214 	ori	r2,r4,8
 2002f50:	8080030d 	sth	r2,12(r16)
 2002f54:	183feb1e 	bne	r3,zero,2002f04 <__alt_mem_mem_0+0xfcfe2f04>
 2002f58:	1100a00c 	andi	r4,r2,640
 2002f5c:	01408004 	movi	r5,512
 2002f60:	217fe826 	beq	r4,r5,2002f04 <__alt_mem_mem_0+0xfcfe2f04>
 2002f64:	800b883a 	mov	r5,r16
 2002f68:	8809883a 	mov	r4,r17
 2002f6c:	20055780 	call	2005578 <__smakebuf_r>
 2002f70:	8080030b 	ldhu	r2,12(r16)
 2002f74:	80c00417 	ldw	r3,16(r16)
 2002f78:	003fe206 	br	2002f04 <__alt_mem_mem_0+0xfcfe2f04>
 2002f7c:	80800517 	ldw	r2,20(r16)
 2002f80:	80000215 	stw	zero,8(r16)
 2002f84:	0085c83a 	sub	r2,zero,r2
 2002f88:	80800615 	stw	r2,24(r16)
 2002f8c:	183fe41e 	bne	r3,zero,2002f20 <__alt_mem_mem_0+0xfcfe2f20>
 2002f90:	80c0030b 	ldhu	r3,12(r16)
 2002f94:	0005883a 	mov	r2,zero
 2002f98:	1900200c 	andi	r4,r3,128
 2002f9c:	203fe126 	beq	r4,zero,2002f24 <__alt_mem_mem_0+0xfcfe2f24>
 2002fa0:	18c01014 	ori	r3,r3,64
 2002fa4:	80c0030d 	sth	r3,12(r16)
 2002fa8:	00bfffc4 	movi	r2,-1
 2002fac:	003fdd06 	br	2002f24 <__alt_mem_mem_0+0xfcfe2f24>
 2002fb0:	2004e900 	call	2004e90 <__sinit>
 2002fb4:	003fcd06 	br	2002eec <__alt_mem_mem_0+0xfcfe2eec>
 2002fb8:	0005883a 	mov	r2,zero
 2002fbc:	003fd606 	br	2002f18 <__alt_mem_mem_0+0xfcfe2f18>
 2002fc0:	81400c17 	ldw	r5,48(r16)
 2002fc4:	28000626 	beq	r5,zero,2002fe0 <__swsetup_r+0x124>
 2002fc8:	80801004 	addi	r2,r16,64
 2002fcc:	28800326 	beq	r5,r2,2002fdc <__swsetup_r+0x120>
 2002fd0:	8809883a 	mov	r4,r17
 2002fd4:	20050040 	call	2005004 <_free_r>
 2002fd8:	8100030b 	ldhu	r4,12(r16)
 2002fdc:	80000c15 	stw	zero,48(r16)
 2002fe0:	80c00417 	ldw	r3,16(r16)
 2002fe4:	00bff6c4 	movi	r2,-37
 2002fe8:	1108703a 	and	r4,r2,r4
 2002fec:	80000115 	stw	zero,4(r16)
 2002ff0:	80c00015 	stw	r3,0(r16)
 2002ff4:	003fd506 	br	2002f4c <__alt_mem_mem_0+0xfcfe2f4c>
 2002ff8:	00800244 	movi	r2,9
 2002ffc:	88800015 	stw	r2,0(r17)
 2003000:	20801014 	ori	r2,r4,64
 2003004:	8080030d 	sth	r2,12(r16)
 2003008:	00bfffc4 	movi	r2,-1
 200300c:	003fc506 	br	2002f24 <__alt_mem_mem_0+0xfcfe2f24>

02003010 <quorem>:
 2003010:	defff704 	addi	sp,sp,-36
 2003014:	dc800215 	stw	r18,8(sp)
 2003018:	20800417 	ldw	r2,16(r4)
 200301c:	2c800417 	ldw	r18,16(r5)
 2003020:	dfc00815 	stw	ra,32(sp)
 2003024:	ddc00715 	stw	r23,28(sp)
 2003028:	dd800615 	stw	r22,24(sp)
 200302c:	dd400515 	stw	r21,20(sp)
 2003030:	dd000415 	stw	r20,16(sp)
 2003034:	dcc00315 	stw	r19,12(sp)
 2003038:	dc400115 	stw	r17,4(sp)
 200303c:	dc000015 	stw	r16,0(sp)
 2003040:	14807116 	blt	r2,r18,2003208 <quorem+0x1f8>
 2003044:	94bfffc4 	addi	r18,r18,-1
 2003048:	94ad883a 	add	r22,r18,r18
 200304c:	b5ad883a 	add	r22,r22,r22
 2003050:	2c400504 	addi	r17,r5,20
 2003054:	8da9883a 	add	r20,r17,r22
 2003058:	25400504 	addi	r21,r4,20
 200305c:	282f883a 	mov	r23,r5
 2003060:	adad883a 	add	r22,r21,r22
 2003064:	a1400017 	ldw	r5,0(r20)
 2003068:	2021883a 	mov	r16,r4
 200306c:	b1000017 	ldw	r4,0(r22)
 2003070:	29400044 	addi	r5,r5,1
 2003074:	200aca80 	call	200aca8 <__udivsi3>
 2003078:	1027883a 	mov	r19,r2
 200307c:	10002c26 	beq	r2,zero,2003130 <quorem+0x120>
 2003080:	a813883a 	mov	r9,r21
 2003084:	880b883a 	mov	r5,r17
 2003088:	0009883a 	mov	r4,zero
 200308c:	000d883a 	mov	r6,zero
 2003090:	2a000017 	ldw	r8,0(r5)
 2003094:	49c00017 	ldw	r7,0(r9)
 2003098:	29400104 	addi	r5,r5,4
 200309c:	40bfffcc 	andi	r2,r8,65535
 20030a0:	14c5383a 	mul	r2,r2,r19
 20030a4:	4010d43a 	srli	r8,r8,16
 20030a8:	38ffffcc 	andi	r3,r7,65535
 20030ac:	1105883a 	add	r2,r2,r4
 20030b0:	1008d43a 	srli	r4,r2,16
 20030b4:	44d1383a 	mul	r8,r8,r19
 20030b8:	198d883a 	add	r6,r3,r6
 20030bc:	10ffffcc 	andi	r3,r2,65535
 20030c0:	30c7c83a 	sub	r3,r6,r3
 20030c4:	380ed43a 	srli	r7,r7,16
 20030c8:	4105883a 	add	r2,r8,r4
 20030cc:	180dd43a 	srai	r6,r3,16
 20030d0:	113fffcc 	andi	r4,r2,65535
 20030d4:	390fc83a 	sub	r7,r7,r4
 20030d8:	398d883a 	add	r6,r7,r6
 20030dc:	300e943a 	slli	r7,r6,16
 20030e0:	18ffffcc 	andi	r3,r3,65535
 20030e4:	1008d43a 	srli	r4,r2,16
 20030e8:	38ceb03a 	or	r7,r7,r3
 20030ec:	49c00015 	stw	r7,0(r9)
 20030f0:	300dd43a 	srai	r6,r6,16
 20030f4:	4a400104 	addi	r9,r9,4
 20030f8:	a17fe52e 	bgeu	r20,r5,2003090 <__alt_mem_mem_0+0xfcfe3090>
 20030fc:	b0800017 	ldw	r2,0(r22)
 2003100:	10000b1e 	bne	r2,zero,2003130 <quorem+0x120>
 2003104:	b0bfff04 	addi	r2,r22,-4
 2003108:	a880082e 	bgeu	r21,r2,200312c <quorem+0x11c>
 200310c:	b0ffff17 	ldw	r3,-4(r22)
 2003110:	18000326 	beq	r3,zero,2003120 <quorem+0x110>
 2003114:	00000506 	br	200312c <quorem+0x11c>
 2003118:	10c00017 	ldw	r3,0(r2)
 200311c:	1800031e 	bne	r3,zero,200312c <quorem+0x11c>
 2003120:	10bfff04 	addi	r2,r2,-4
 2003124:	94bfffc4 	addi	r18,r18,-1
 2003128:	a8bffb36 	bltu	r21,r2,2003118 <__alt_mem_mem_0+0xfcfe3118>
 200312c:	84800415 	stw	r18,16(r16)
 2003130:	b80b883a 	mov	r5,r23
 2003134:	8009883a 	mov	r4,r16
 2003138:	2006b5c0 	call	2006b5c <__mcmp>
 200313c:	10002616 	blt	r2,zero,20031d8 <quorem+0x1c8>
 2003140:	9cc00044 	addi	r19,r19,1
 2003144:	a805883a 	mov	r2,r21
 2003148:	000b883a 	mov	r5,zero
 200314c:	11000017 	ldw	r4,0(r2)
 2003150:	89800017 	ldw	r6,0(r17)
 2003154:	10800104 	addi	r2,r2,4
 2003158:	20ffffcc 	andi	r3,r4,65535
 200315c:	194b883a 	add	r5,r3,r5
 2003160:	30ffffcc 	andi	r3,r6,65535
 2003164:	28c7c83a 	sub	r3,r5,r3
 2003168:	300cd43a 	srli	r6,r6,16
 200316c:	2008d43a 	srli	r4,r4,16
 2003170:	180bd43a 	srai	r5,r3,16
 2003174:	18ffffcc 	andi	r3,r3,65535
 2003178:	2189c83a 	sub	r4,r4,r6
 200317c:	2149883a 	add	r4,r4,r5
 2003180:	200c943a 	slli	r6,r4,16
 2003184:	8c400104 	addi	r17,r17,4
 2003188:	200bd43a 	srai	r5,r4,16
 200318c:	30c6b03a 	or	r3,r6,r3
 2003190:	10ffff15 	stw	r3,-4(r2)
 2003194:	a47fed2e 	bgeu	r20,r17,200314c <__alt_mem_mem_0+0xfcfe314c>
 2003198:	9485883a 	add	r2,r18,r18
 200319c:	1085883a 	add	r2,r2,r2
 20031a0:	a887883a 	add	r3,r21,r2
 20031a4:	18800017 	ldw	r2,0(r3)
 20031a8:	10000b1e 	bne	r2,zero,20031d8 <quorem+0x1c8>
 20031ac:	18bfff04 	addi	r2,r3,-4
 20031b0:	a880082e 	bgeu	r21,r2,20031d4 <quorem+0x1c4>
 20031b4:	18ffff17 	ldw	r3,-4(r3)
 20031b8:	18000326 	beq	r3,zero,20031c8 <quorem+0x1b8>
 20031bc:	00000506 	br	20031d4 <quorem+0x1c4>
 20031c0:	10c00017 	ldw	r3,0(r2)
 20031c4:	1800031e 	bne	r3,zero,20031d4 <quorem+0x1c4>
 20031c8:	10bfff04 	addi	r2,r2,-4
 20031cc:	94bfffc4 	addi	r18,r18,-1
 20031d0:	a8bffb36 	bltu	r21,r2,20031c0 <__alt_mem_mem_0+0xfcfe31c0>
 20031d4:	84800415 	stw	r18,16(r16)
 20031d8:	9805883a 	mov	r2,r19
 20031dc:	dfc00817 	ldw	ra,32(sp)
 20031e0:	ddc00717 	ldw	r23,28(sp)
 20031e4:	dd800617 	ldw	r22,24(sp)
 20031e8:	dd400517 	ldw	r21,20(sp)
 20031ec:	dd000417 	ldw	r20,16(sp)
 20031f0:	dcc00317 	ldw	r19,12(sp)
 20031f4:	dc800217 	ldw	r18,8(sp)
 20031f8:	dc400117 	ldw	r17,4(sp)
 20031fc:	dc000017 	ldw	r16,0(sp)
 2003200:	dec00904 	addi	sp,sp,36
 2003204:	f800283a 	ret
 2003208:	0005883a 	mov	r2,zero
 200320c:	003ff306 	br	20031dc <__alt_mem_mem_0+0xfcfe31dc>

02003210 <_dtoa_r>:
 2003210:	20801017 	ldw	r2,64(r4)
 2003214:	deffde04 	addi	sp,sp,-136
 2003218:	df002015 	stw	fp,128(sp)
 200321c:	dcc01b15 	stw	r19,108(sp)
 2003220:	dc801a15 	stw	r18,104(sp)
 2003224:	dc401915 	stw	r17,100(sp)
 2003228:	dc001815 	stw	r16,96(sp)
 200322c:	dfc02115 	stw	ra,132(sp)
 2003230:	ddc01f15 	stw	r23,124(sp)
 2003234:	dd801e15 	stw	r22,120(sp)
 2003238:	dd401d15 	stw	r21,116(sp)
 200323c:	dd001c15 	stw	r20,112(sp)
 2003240:	d9c00315 	stw	r7,12(sp)
 2003244:	2039883a 	mov	fp,r4
 2003248:	3023883a 	mov	r17,r6
 200324c:	2825883a 	mov	r18,r5
 2003250:	dc002417 	ldw	r16,144(sp)
 2003254:	3027883a 	mov	r19,r6
 2003258:	10000826 	beq	r2,zero,200327c <_dtoa_r+0x6c>
 200325c:	21801117 	ldw	r6,68(r4)
 2003260:	00c00044 	movi	r3,1
 2003264:	100b883a 	mov	r5,r2
 2003268:	1986983a 	sll	r3,r3,r6
 200326c:	11800115 	stw	r6,4(r2)
 2003270:	10c00215 	stw	r3,8(r2)
 2003274:	200633c0 	call	200633c <_Bfree>
 2003278:	e0001015 	stw	zero,64(fp)
 200327c:	88002e16 	blt	r17,zero,2003338 <_dtoa_r+0x128>
 2003280:	80000015 	stw	zero,0(r16)
 2003284:	889ffc2c 	andhi	r2,r17,32752
 2003288:	00dffc34 	movhi	r3,32752
 200328c:	10c01c26 	beq	r2,r3,2003300 <_dtoa_r+0xf0>
 2003290:	000d883a 	mov	r6,zero
 2003294:	000f883a 	mov	r7,zero
 2003298:	9009883a 	mov	r4,r18
 200329c:	980b883a 	mov	r5,r19
 20032a0:	200bef80 	call	200bef8 <__eqdf2>
 20032a4:	10002b1e 	bne	r2,zero,2003354 <_dtoa_r+0x144>
 20032a8:	d9c02317 	ldw	r7,140(sp)
 20032ac:	00800044 	movi	r2,1
 20032b0:	38800015 	stw	r2,0(r7)
 20032b4:	d8802517 	ldw	r2,148(sp)
 20032b8:	10019e26 	beq	r2,zero,2003934 <_dtoa_r+0x724>
 20032bc:	d8c02517 	ldw	r3,148(sp)
 20032c0:	00808134 	movhi	r2,516
 20032c4:	1083d544 	addi	r2,r2,3925
 20032c8:	18800015 	stw	r2,0(r3)
 20032cc:	10bfffc4 	addi	r2,r2,-1
 20032d0:	dfc02117 	ldw	ra,132(sp)
 20032d4:	df002017 	ldw	fp,128(sp)
 20032d8:	ddc01f17 	ldw	r23,124(sp)
 20032dc:	dd801e17 	ldw	r22,120(sp)
 20032e0:	dd401d17 	ldw	r21,116(sp)
 20032e4:	dd001c17 	ldw	r20,112(sp)
 20032e8:	dcc01b17 	ldw	r19,108(sp)
 20032ec:	dc801a17 	ldw	r18,104(sp)
 20032f0:	dc401917 	ldw	r17,100(sp)
 20032f4:	dc001817 	ldw	r16,96(sp)
 20032f8:	dec02204 	addi	sp,sp,136
 20032fc:	f800283a 	ret
 2003300:	d8c02317 	ldw	r3,140(sp)
 2003304:	0089c3c4 	movi	r2,9999
 2003308:	18800015 	stw	r2,0(r3)
 200330c:	90017726 	beq	r18,zero,20038ec <_dtoa_r+0x6dc>
 2003310:	00808134 	movhi	r2,516
 2003314:	1083e104 	addi	r2,r2,3972
 2003318:	d9002517 	ldw	r4,148(sp)
 200331c:	203fec26 	beq	r4,zero,20032d0 <__alt_mem_mem_0+0xfcfe32d0>
 2003320:	10c000c7 	ldb	r3,3(r2)
 2003324:	1801781e 	bne	r3,zero,2003908 <_dtoa_r+0x6f8>
 2003328:	10c000c4 	addi	r3,r2,3
 200332c:	d9802517 	ldw	r6,148(sp)
 2003330:	30c00015 	stw	r3,0(r6)
 2003334:	003fe606 	br	20032d0 <__alt_mem_mem_0+0xfcfe32d0>
 2003338:	04e00034 	movhi	r19,32768
 200333c:	9cffffc4 	addi	r19,r19,-1
 2003340:	00800044 	movi	r2,1
 2003344:	8ce6703a 	and	r19,r17,r19
 2003348:	80800015 	stw	r2,0(r16)
 200334c:	9823883a 	mov	r17,r19
 2003350:	003fcc06 	br	2003284 <__alt_mem_mem_0+0xfcfe3284>
 2003354:	d8800204 	addi	r2,sp,8
 2003358:	d8800015 	stw	r2,0(sp)
 200335c:	d9c00104 	addi	r7,sp,4
 2003360:	900b883a 	mov	r5,r18
 2003364:	980d883a 	mov	r6,r19
 2003368:	e009883a 	mov	r4,fp
 200336c:	8820d53a 	srli	r16,r17,20
 2003370:	2006f280 	call	2006f28 <__d2b>
 2003374:	d8800915 	stw	r2,36(sp)
 2003378:	8001651e 	bne	r16,zero,2003910 <_dtoa_r+0x700>
 200337c:	dd800217 	ldw	r22,8(sp)
 2003380:	dc000117 	ldw	r16,4(sp)
 2003384:	00800804 	movi	r2,32
 2003388:	b421883a 	add	r16,r22,r16
 200338c:	80c10c84 	addi	r3,r16,1074
 2003390:	10c2d10e 	bge	r2,r3,2003ed8 <_dtoa_r+0xcc8>
 2003394:	00801004 	movi	r2,64
 2003398:	81010484 	addi	r4,r16,1042
 200339c:	10c7c83a 	sub	r3,r2,r3
 20033a0:	9108d83a 	srl	r4,r18,r4
 20033a4:	88e2983a 	sll	r17,r17,r3
 20033a8:	2448b03a 	or	r4,r4,r17
 20033ac:	200d2c00 	call	200d2c0 <__floatunsidf>
 20033b0:	017f8434 	movhi	r5,65040
 20033b4:	01800044 	movi	r6,1
 20033b8:	1009883a 	mov	r4,r2
 20033bc:	194b883a 	add	r5,r3,r5
 20033c0:	843fffc4 	addi	r16,r16,-1
 20033c4:	d9801115 	stw	r6,68(sp)
 20033c8:	000d883a 	mov	r6,zero
 20033cc:	01cffe34 	movhi	r7,16376
 20033d0:	200c8680 	call	200c868 <__subdf3>
 20033d4:	0198dbf4 	movhi	r6,25455
 20033d8:	01cff4f4 	movhi	r7,16339
 20033dc:	3190d844 	addi	r6,r6,17249
 20033e0:	39e1e9c4 	addi	r7,r7,-30809
 20033e4:	1009883a 	mov	r4,r2
 20033e8:	180b883a 	mov	r5,r3
 20033ec:	200c1500 	call	200c150 <__muldf3>
 20033f0:	01a2d874 	movhi	r6,35681
 20033f4:	01cff1f4 	movhi	r7,16327
 20033f8:	31b22cc4 	addi	r6,r6,-14157
 20033fc:	39e28a04 	addi	r7,r7,-30168
 2003400:	180b883a 	mov	r5,r3
 2003404:	1009883a 	mov	r4,r2
 2003408:	200ad640 	call	200ad64 <__adddf3>
 200340c:	8009883a 	mov	r4,r16
 2003410:	1029883a 	mov	r20,r2
 2003414:	1823883a 	mov	r17,r3
 2003418:	200d1e40 	call	200d1e4 <__floatsidf>
 200341c:	019427f4 	movhi	r6,20639
 2003420:	01cff4f4 	movhi	r7,16339
 2003424:	319e7ec4 	addi	r6,r6,31227
 2003428:	39d104c4 	addi	r7,r7,17427
 200342c:	1009883a 	mov	r4,r2
 2003430:	180b883a 	mov	r5,r3
 2003434:	200c1500 	call	200c150 <__muldf3>
 2003438:	100d883a 	mov	r6,r2
 200343c:	180f883a 	mov	r7,r3
 2003440:	a009883a 	mov	r4,r20
 2003444:	880b883a 	mov	r5,r17
 2003448:	200ad640 	call	200ad64 <__adddf3>
 200344c:	1009883a 	mov	r4,r2
 2003450:	180b883a 	mov	r5,r3
 2003454:	1029883a 	mov	r20,r2
 2003458:	1823883a 	mov	r17,r3
 200345c:	200d1640 	call	200d164 <__fixdfsi>
 2003460:	000d883a 	mov	r6,zero
 2003464:	000f883a 	mov	r7,zero
 2003468:	a009883a 	mov	r4,r20
 200346c:	880b883a 	mov	r5,r17
 2003470:	d8800515 	stw	r2,20(sp)
 2003474:	200c05c0 	call	200c05c <__ledf2>
 2003478:	10028716 	blt	r2,zero,2003e98 <_dtoa_r+0xc88>
 200347c:	d8c00517 	ldw	r3,20(sp)
 2003480:	00800584 	movi	r2,22
 2003484:	10c27536 	bltu	r2,r3,2003e5c <_dtoa_r+0xc4c>
 2003488:	180490fa 	slli	r2,r3,3
 200348c:	00c08134 	movhi	r3,516
 2003490:	18c3fd04 	addi	r3,r3,4084
 2003494:	1885883a 	add	r2,r3,r2
 2003498:	11000017 	ldw	r4,0(r2)
 200349c:	11400117 	ldw	r5,4(r2)
 20034a0:	900d883a 	mov	r6,r18
 20034a4:	980f883a 	mov	r7,r19
 20034a8:	200bf800 	call	200bf80 <__gedf2>
 20034ac:	00828d0e 	bge	zero,r2,2003ee4 <_dtoa_r+0xcd4>
 20034b0:	d9000517 	ldw	r4,20(sp)
 20034b4:	d8000e15 	stw	zero,56(sp)
 20034b8:	213fffc4 	addi	r4,r4,-1
 20034bc:	d9000515 	stw	r4,20(sp)
 20034c0:	b42dc83a 	sub	r22,r22,r16
 20034c4:	b5bfffc4 	addi	r22,r22,-1
 20034c8:	b0026f16 	blt	r22,zero,2003e88 <_dtoa_r+0xc78>
 20034cc:	d8000815 	stw	zero,32(sp)
 20034d0:	d9c00517 	ldw	r7,20(sp)
 20034d4:	38026416 	blt	r7,zero,2003e68 <_dtoa_r+0xc58>
 20034d8:	b1ed883a 	add	r22,r22,r7
 20034dc:	d9c00d15 	stw	r7,52(sp)
 20034e0:	d8000a15 	stw	zero,40(sp)
 20034e4:	d9800317 	ldw	r6,12(sp)
 20034e8:	00800244 	movi	r2,9
 20034ec:	11811436 	bltu	r2,r6,2003940 <_dtoa_r+0x730>
 20034f0:	00800144 	movi	r2,5
 20034f4:	1184e10e 	bge	r2,r6,200487c <_dtoa_r+0x166c>
 20034f8:	31bfff04 	addi	r6,r6,-4
 20034fc:	d9800315 	stw	r6,12(sp)
 2003500:	0023883a 	mov	r17,zero
 2003504:	d9800317 	ldw	r6,12(sp)
 2003508:	008000c4 	movi	r2,3
 200350c:	30836726 	beq	r6,r2,20042ac <_dtoa_r+0x109c>
 2003510:	1183410e 	bge	r2,r6,2004218 <_dtoa_r+0x1008>
 2003514:	d9c00317 	ldw	r7,12(sp)
 2003518:	00800104 	movi	r2,4
 200351c:	38827c26 	beq	r7,r2,2003f10 <_dtoa_r+0xd00>
 2003520:	00800144 	movi	r2,5
 2003524:	3884c41e 	bne	r7,r2,2004838 <_dtoa_r+0x1628>
 2003528:	00800044 	movi	r2,1
 200352c:	d8800b15 	stw	r2,44(sp)
 2003530:	d8c00517 	ldw	r3,20(sp)
 2003534:	d9002217 	ldw	r4,136(sp)
 2003538:	1907883a 	add	r3,r3,r4
 200353c:	19800044 	addi	r6,r3,1
 2003540:	d8c00c15 	stw	r3,48(sp)
 2003544:	d9800615 	stw	r6,24(sp)
 2003548:	0183a40e 	bge	zero,r6,20043dc <_dtoa_r+0x11cc>
 200354c:	d9800617 	ldw	r6,24(sp)
 2003550:	3021883a 	mov	r16,r6
 2003554:	e0001115 	stw	zero,68(fp)
 2003558:	008005c4 	movi	r2,23
 200355c:	1184c92e 	bgeu	r2,r6,2004884 <_dtoa_r+0x1674>
 2003560:	00c00044 	movi	r3,1
 2003564:	00800104 	movi	r2,4
 2003568:	1085883a 	add	r2,r2,r2
 200356c:	11000504 	addi	r4,r2,20
 2003570:	180b883a 	mov	r5,r3
 2003574:	18c00044 	addi	r3,r3,1
 2003578:	313ffb2e 	bgeu	r6,r4,2003568 <__alt_mem_mem_0+0xfcfe3568>
 200357c:	e1401115 	stw	r5,68(fp)
 2003580:	e009883a 	mov	r4,fp
 2003584:	20062940 	call	2006294 <_Balloc>
 2003588:	d8800715 	stw	r2,28(sp)
 200358c:	e0801015 	stw	r2,64(fp)
 2003590:	00800384 	movi	r2,14
 2003594:	1400f736 	bltu	r2,r16,2003974 <_dtoa_r+0x764>
 2003598:	8800f626 	beq	r17,zero,2003974 <_dtoa_r+0x764>
 200359c:	d9c00517 	ldw	r7,20(sp)
 20035a0:	01c39a0e 	bge	zero,r7,200440c <_dtoa_r+0x11fc>
 20035a4:	388003cc 	andi	r2,r7,15
 20035a8:	100490fa 	slli	r2,r2,3
 20035ac:	382bd13a 	srai	r21,r7,4
 20035b0:	00c08134 	movhi	r3,516
 20035b4:	18c3fd04 	addi	r3,r3,4084
 20035b8:	1885883a 	add	r2,r3,r2
 20035bc:	a8c0040c 	andi	r3,r21,16
 20035c0:	12400017 	ldw	r9,0(r2)
 20035c4:	12000117 	ldw	r8,4(r2)
 20035c8:	18037926 	beq	r3,zero,20043b0 <_dtoa_r+0x11a0>
 20035cc:	00808134 	movhi	r2,516
 20035d0:	1083f304 	addi	r2,r2,4044
 20035d4:	11800817 	ldw	r6,32(r2)
 20035d8:	11c00917 	ldw	r7,36(r2)
 20035dc:	9009883a 	mov	r4,r18
 20035e0:	980b883a 	mov	r5,r19
 20035e4:	da001715 	stw	r8,92(sp)
 20035e8:	da401615 	stw	r9,88(sp)
 20035ec:	200b6100 	call	200b610 <__divdf3>
 20035f0:	da001717 	ldw	r8,92(sp)
 20035f4:	da401617 	ldw	r9,88(sp)
 20035f8:	ad4003cc 	andi	r21,r21,15
 20035fc:	040000c4 	movi	r16,3
 2003600:	1023883a 	mov	r17,r2
 2003604:	1829883a 	mov	r20,r3
 2003608:	a8001126 	beq	r21,zero,2003650 <_dtoa_r+0x440>
 200360c:	05c08134 	movhi	r23,516
 2003610:	bdc3f304 	addi	r23,r23,4044
 2003614:	4805883a 	mov	r2,r9
 2003618:	4007883a 	mov	r3,r8
 200361c:	a980004c 	andi	r6,r21,1
 2003620:	1009883a 	mov	r4,r2
 2003624:	a82bd07a 	srai	r21,r21,1
 2003628:	180b883a 	mov	r5,r3
 200362c:	30000426 	beq	r6,zero,2003640 <_dtoa_r+0x430>
 2003630:	b9800017 	ldw	r6,0(r23)
 2003634:	b9c00117 	ldw	r7,4(r23)
 2003638:	84000044 	addi	r16,r16,1
 200363c:	200c1500 	call	200c150 <__muldf3>
 2003640:	bdc00204 	addi	r23,r23,8
 2003644:	a83ff51e 	bne	r21,zero,200361c <__alt_mem_mem_0+0xfcfe361c>
 2003648:	1013883a 	mov	r9,r2
 200364c:	1811883a 	mov	r8,r3
 2003650:	480d883a 	mov	r6,r9
 2003654:	400f883a 	mov	r7,r8
 2003658:	8809883a 	mov	r4,r17
 200365c:	a00b883a 	mov	r5,r20
 2003660:	200b6100 	call	200b610 <__divdf3>
 2003664:	d8800f15 	stw	r2,60(sp)
 2003668:	d8c01015 	stw	r3,64(sp)
 200366c:	d8c00e17 	ldw	r3,56(sp)
 2003670:	18000626 	beq	r3,zero,200368c <_dtoa_r+0x47c>
 2003674:	d9000f17 	ldw	r4,60(sp)
 2003678:	d9401017 	ldw	r5,64(sp)
 200367c:	000d883a 	mov	r6,zero
 2003680:	01cffc34 	movhi	r7,16368
 2003684:	200c05c0 	call	200c05c <__ledf2>
 2003688:	10040b16 	blt	r2,zero,20046b8 <_dtoa_r+0x14a8>
 200368c:	8009883a 	mov	r4,r16
 2003690:	200d1e40 	call	200d1e4 <__floatsidf>
 2003694:	d9800f17 	ldw	r6,60(sp)
 2003698:	d9c01017 	ldw	r7,64(sp)
 200369c:	1009883a 	mov	r4,r2
 20036a0:	180b883a 	mov	r5,r3
 20036a4:	200c1500 	call	200c150 <__muldf3>
 20036a8:	000d883a 	mov	r6,zero
 20036ac:	01d00734 	movhi	r7,16412
 20036b0:	1009883a 	mov	r4,r2
 20036b4:	180b883a 	mov	r5,r3
 20036b8:	200ad640 	call	200ad64 <__adddf3>
 20036bc:	1021883a 	mov	r16,r2
 20036c0:	d8800617 	ldw	r2,24(sp)
 20036c4:	047f3034 	movhi	r17,64704
 20036c8:	1c63883a 	add	r17,r3,r17
 20036cc:	10031826 	beq	r2,zero,2004330 <_dtoa_r+0x1120>
 20036d0:	d8c00517 	ldw	r3,20(sp)
 20036d4:	db000617 	ldw	r12,24(sp)
 20036d8:	d8c01315 	stw	r3,76(sp)
 20036dc:	d9000b17 	ldw	r4,44(sp)
 20036e0:	20038f26 	beq	r4,zero,2004520 <_dtoa_r+0x1310>
 20036e4:	60bfffc4 	addi	r2,r12,-1
 20036e8:	100490fa 	slli	r2,r2,3
 20036ec:	00c08134 	movhi	r3,516
 20036f0:	18c3fd04 	addi	r3,r3,4084
 20036f4:	1885883a 	add	r2,r3,r2
 20036f8:	11800017 	ldw	r6,0(r2)
 20036fc:	11c00117 	ldw	r7,4(r2)
 2003700:	d8800717 	ldw	r2,28(sp)
 2003704:	0009883a 	mov	r4,zero
 2003708:	014ff834 	movhi	r5,16352
 200370c:	db001615 	stw	r12,88(sp)
 2003710:	15c00044 	addi	r23,r2,1
 2003714:	200b6100 	call	200b610 <__divdf3>
 2003718:	800d883a 	mov	r6,r16
 200371c:	880f883a 	mov	r7,r17
 2003720:	1009883a 	mov	r4,r2
 2003724:	180b883a 	mov	r5,r3
 2003728:	200c8680 	call	200c868 <__subdf3>
 200372c:	d9401017 	ldw	r5,64(sp)
 2003730:	d9000f17 	ldw	r4,60(sp)
 2003734:	102b883a 	mov	r21,r2
 2003738:	d8c01215 	stw	r3,72(sp)
 200373c:	200d1640 	call	200d164 <__fixdfsi>
 2003740:	1009883a 	mov	r4,r2
 2003744:	1029883a 	mov	r20,r2
 2003748:	200d1e40 	call	200d1e4 <__floatsidf>
 200374c:	d9000f17 	ldw	r4,60(sp)
 2003750:	d9401017 	ldw	r5,64(sp)
 2003754:	100d883a 	mov	r6,r2
 2003758:	180f883a 	mov	r7,r3
 200375c:	200c8680 	call	200c868 <__subdf3>
 2003760:	1823883a 	mov	r17,r3
 2003764:	d8c00717 	ldw	r3,28(sp)
 2003768:	d9401217 	ldw	r5,72(sp)
 200376c:	a2000c04 	addi	r8,r20,48
 2003770:	1021883a 	mov	r16,r2
 2003774:	1a000005 	stb	r8,0(r3)
 2003778:	800d883a 	mov	r6,r16
 200377c:	880f883a 	mov	r7,r17
 2003780:	a809883a 	mov	r4,r21
 2003784:	4029883a 	mov	r20,r8
 2003788:	200bf800 	call	200bf80 <__gedf2>
 200378c:	00841d16 	blt	zero,r2,2004804 <_dtoa_r+0x15f4>
 2003790:	800d883a 	mov	r6,r16
 2003794:	880f883a 	mov	r7,r17
 2003798:	0009883a 	mov	r4,zero
 200379c:	014ffc34 	movhi	r5,16368
 20037a0:	200c8680 	call	200c868 <__subdf3>
 20037a4:	d9401217 	ldw	r5,72(sp)
 20037a8:	100d883a 	mov	r6,r2
 20037ac:	180f883a 	mov	r7,r3
 20037b0:	a809883a 	mov	r4,r21
 20037b4:	200bf800 	call	200bf80 <__gedf2>
 20037b8:	db001617 	ldw	r12,88(sp)
 20037bc:	00840e16 	blt	zero,r2,20047f8 <_dtoa_r+0x15e8>
 20037c0:	00800044 	movi	r2,1
 20037c4:	13006b0e 	bge	r2,r12,2003974 <_dtoa_r+0x764>
 20037c8:	d9000717 	ldw	r4,28(sp)
 20037cc:	dd800f15 	stw	r22,60(sp)
 20037d0:	dcc01015 	stw	r19,64(sp)
 20037d4:	2319883a 	add	r12,r4,r12
 20037d8:	dcc01217 	ldw	r19,72(sp)
 20037dc:	602d883a 	mov	r22,r12
 20037e0:	dc801215 	stw	r18,72(sp)
 20037e4:	b825883a 	mov	r18,r23
 20037e8:	00000906 	br	2003810 <_dtoa_r+0x600>
 20037ec:	200c8680 	call	200c868 <__subdf3>
 20037f0:	a80d883a 	mov	r6,r21
 20037f4:	980f883a 	mov	r7,r19
 20037f8:	1009883a 	mov	r4,r2
 20037fc:	180b883a 	mov	r5,r3
 2003800:	200c05c0 	call	200c05c <__ledf2>
 2003804:	1003e816 	blt	r2,zero,20047a8 <_dtoa_r+0x1598>
 2003808:	b825883a 	mov	r18,r23
 200380c:	bd83e926 	beq	r23,r22,20047b4 <_dtoa_r+0x15a4>
 2003810:	a809883a 	mov	r4,r21
 2003814:	980b883a 	mov	r5,r19
 2003818:	000d883a 	mov	r6,zero
 200381c:	01d00934 	movhi	r7,16420
 2003820:	200c1500 	call	200c150 <__muldf3>
 2003824:	000d883a 	mov	r6,zero
 2003828:	01d00934 	movhi	r7,16420
 200382c:	8009883a 	mov	r4,r16
 2003830:	880b883a 	mov	r5,r17
 2003834:	102b883a 	mov	r21,r2
 2003838:	1827883a 	mov	r19,r3
 200383c:	200c1500 	call	200c150 <__muldf3>
 2003840:	180b883a 	mov	r5,r3
 2003844:	1009883a 	mov	r4,r2
 2003848:	1821883a 	mov	r16,r3
 200384c:	1023883a 	mov	r17,r2
 2003850:	200d1640 	call	200d164 <__fixdfsi>
 2003854:	1009883a 	mov	r4,r2
 2003858:	1029883a 	mov	r20,r2
 200385c:	200d1e40 	call	200d1e4 <__floatsidf>
 2003860:	8809883a 	mov	r4,r17
 2003864:	800b883a 	mov	r5,r16
 2003868:	100d883a 	mov	r6,r2
 200386c:	180f883a 	mov	r7,r3
 2003870:	200c8680 	call	200c868 <__subdf3>
 2003874:	a5000c04 	addi	r20,r20,48
 2003878:	a80d883a 	mov	r6,r21
 200387c:	980f883a 	mov	r7,r19
 2003880:	1009883a 	mov	r4,r2
 2003884:	180b883a 	mov	r5,r3
 2003888:	95000005 	stb	r20,0(r18)
 200388c:	1021883a 	mov	r16,r2
 2003890:	1823883a 	mov	r17,r3
 2003894:	200c05c0 	call	200c05c <__ledf2>
 2003898:	bdc00044 	addi	r23,r23,1
 200389c:	800d883a 	mov	r6,r16
 20038a0:	880f883a 	mov	r7,r17
 20038a4:	0009883a 	mov	r4,zero
 20038a8:	014ffc34 	movhi	r5,16368
 20038ac:	103fcf0e 	bge	r2,zero,20037ec <__alt_mem_mem_0+0xfcfe37ec>
 20038b0:	d8c01317 	ldw	r3,76(sp)
 20038b4:	d8c00515 	stw	r3,20(sp)
 20038b8:	d9400917 	ldw	r5,36(sp)
 20038bc:	e009883a 	mov	r4,fp
 20038c0:	200633c0 	call	200633c <_Bfree>
 20038c4:	d9000517 	ldw	r4,20(sp)
 20038c8:	d9802317 	ldw	r6,140(sp)
 20038cc:	d9c02517 	ldw	r7,148(sp)
 20038d0:	b8000005 	stb	zero,0(r23)
 20038d4:	20800044 	addi	r2,r4,1
 20038d8:	30800015 	stw	r2,0(r6)
 20038dc:	3802aa26 	beq	r7,zero,2004388 <_dtoa_r+0x1178>
 20038e0:	3dc00015 	stw	r23,0(r7)
 20038e4:	d8800717 	ldw	r2,28(sp)
 20038e8:	003e7906 	br	20032d0 <__alt_mem_mem_0+0xfcfe32d0>
 20038ec:	00800434 	movhi	r2,16
 20038f0:	10bfffc4 	addi	r2,r2,-1
 20038f4:	88a2703a 	and	r17,r17,r2
 20038f8:	883e851e 	bne	r17,zero,2003310 <__alt_mem_mem_0+0xfcfe3310>
 20038fc:	00808134 	movhi	r2,516
 2003900:	1083de04 	addi	r2,r2,3960
 2003904:	003e8406 	br	2003318 <__alt_mem_mem_0+0xfcfe3318>
 2003908:	10c00204 	addi	r3,r2,8
 200390c:	003e8706 	br	200332c <__alt_mem_mem_0+0xfcfe332c>
 2003910:	01400434 	movhi	r5,16
 2003914:	297fffc4 	addi	r5,r5,-1
 2003918:	994a703a 	and	r5,r19,r5
 200391c:	9009883a 	mov	r4,r18
 2003920:	843f0044 	addi	r16,r16,-1023
 2003924:	294ffc34 	orhi	r5,r5,16368
 2003928:	dd800217 	ldw	r22,8(sp)
 200392c:	d8001115 	stw	zero,68(sp)
 2003930:	003ea506 	br	20033c8 <__alt_mem_mem_0+0xfcfe33c8>
 2003934:	00808134 	movhi	r2,516
 2003938:	1083d504 	addi	r2,r2,3924
 200393c:	003e6406 	br	20032d0 <__alt_mem_mem_0+0xfcfe32d0>
 2003940:	e0001115 	stw	zero,68(fp)
 2003944:	000b883a 	mov	r5,zero
 2003948:	e009883a 	mov	r4,fp
 200394c:	20062940 	call	2006294 <_Balloc>
 2003950:	01bfffc4 	movi	r6,-1
 2003954:	01c00044 	movi	r7,1
 2003958:	d8800715 	stw	r2,28(sp)
 200395c:	d9800c15 	stw	r6,48(sp)
 2003960:	e0801015 	stw	r2,64(fp)
 2003964:	d8000315 	stw	zero,12(sp)
 2003968:	d9c00b15 	stw	r7,44(sp)
 200396c:	d9800615 	stw	r6,24(sp)
 2003970:	d8002215 	stw	zero,136(sp)
 2003974:	d8800117 	ldw	r2,4(sp)
 2003978:	10008916 	blt	r2,zero,2003ba0 <_dtoa_r+0x990>
 200397c:	d9000517 	ldw	r4,20(sp)
 2003980:	00c00384 	movi	r3,14
 2003984:	19008616 	blt	r3,r4,2003ba0 <_dtoa_r+0x990>
 2003988:	200490fa 	slli	r2,r4,3
 200398c:	00c08134 	movhi	r3,516
 2003990:	d9802217 	ldw	r6,136(sp)
 2003994:	18c3fd04 	addi	r3,r3,4084
 2003998:	1885883a 	add	r2,r3,r2
 200399c:	14000017 	ldw	r16,0(r2)
 20039a0:	14400117 	ldw	r17,4(r2)
 20039a4:	30016316 	blt	r6,zero,2003f34 <_dtoa_r+0xd24>
 20039a8:	800d883a 	mov	r6,r16
 20039ac:	880f883a 	mov	r7,r17
 20039b0:	9009883a 	mov	r4,r18
 20039b4:	980b883a 	mov	r5,r19
 20039b8:	200b6100 	call	200b610 <__divdf3>
 20039bc:	180b883a 	mov	r5,r3
 20039c0:	1009883a 	mov	r4,r2
 20039c4:	200d1640 	call	200d164 <__fixdfsi>
 20039c8:	1009883a 	mov	r4,r2
 20039cc:	102b883a 	mov	r21,r2
 20039d0:	200d1e40 	call	200d1e4 <__floatsidf>
 20039d4:	800d883a 	mov	r6,r16
 20039d8:	880f883a 	mov	r7,r17
 20039dc:	1009883a 	mov	r4,r2
 20039e0:	180b883a 	mov	r5,r3
 20039e4:	200c1500 	call	200c150 <__muldf3>
 20039e8:	100d883a 	mov	r6,r2
 20039ec:	180f883a 	mov	r7,r3
 20039f0:	9009883a 	mov	r4,r18
 20039f4:	980b883a 	mov	r5,r19
 20039f8:	200c8680 	call	200c868 <__subdf3>
 20039fc:	d9c00717 	ldw	r7,28(sp)
 2003a00:	1009883a 	mov	r4,r2
 2003a04:	a8800c04 	addi	r2,r21,48
 2003a08:	38800005 	stb	r2,0(r7)
 2003a0c:	3dc00044 	addi	r23,r7,1
 2003a10:	d9c00617 	ldw	r7,24(sp)
 2003a14:	01800044 	movi	r6,1
 2003a18:	180b883a 	mov	r5,r3
 2003a1c:	2005883a 	mov	r2,r4
 2003a20:	39803826 	beq	r7,r6,2003b04 <_dtoa_r+0x8f4>
 2003a24:	000d883a 	mov	r6,zero
 2003a28:	01d00934 	movhi	r7,16420
 2003a2c:	200c1500 	call	200c150 <__muldf3>
 2003a30:	000d883a 	mov	r6,zero
 2003a34:	000f883a 	mov	r7,zero
 2003a38:	1009883a 	mov	r4,r2
 2003a3c:	180b883a 	mov	r5,r3
 2003a40:	1025883a 	mov	r18,r2
 2003a44:	1827883a 	mov	r19,r3
 2003a48:	200bef80 	call	200bef8 <__eqdf2>
 2003a4c:	103f9a26 	beq	r2,zero,20038b8 <__alt_mem_mem_0+0xfcfe38b8>
 2003a50:	d9c00617 	ldw	r7,24(sp)
 2003a54:	d8c00717 	ldw	r3,28(sp)
 2003a58:	b829883a 	mov	r20,r23
 2003a5c:	38bfffc4 	addi	r2,r7,-1
 2003a60:	18ad883a 	add	r22,r3,r2
 2003a64:	00000a06 	br	2003a90 <_dtoa_r+0x880>
 2003a68:	200c1500 	call	200c150 <__muldf3>
 2003a6c:	000d883a 	mov	r6,zero
 2003a70:	000f883a 	mov	r7,zero
 2003a74:	1009883a 	mov	r4,r2
 2003a78:	180b883a 	mov	r5,r3
 2003a7c:	1025883a 	mov	r18,r2
 2003a80:	1827883a 	mov	r19,r3
 2003a84:	b829883a 	mov	r20,r23
 2003a88:	200bef80 	call	200bef8 <__eqdf2>
 2003a8c:	103f8a26 	beq	r2,zero,20038b8 <__alt_mem_mem_0+0xfcfe38b8>
 2003a90:	800d883a 	mov	r6,r16
 2003a94:	880f883a 	mov	r7,r17
 2003a98:	9009883a 	mov	r4,r18
 2003a9c:	980b883a 	mov	r5,r19
 2003aa0:	200b6100 	call	200b610 <__divdf3>
 2003aa4:	180b883a 	mov	r5,r3
 2003aa8:	1009883a 	mov	r4,r2
 2003aac:	200d1640 	call	200d164 <__fixdfsi>
 2003ab0:	1009883a 	mov	r4,r2
 2003ab4:	102b883a 	mov	r21,r2
 2003ab8:	200d1e40 	call	200d1e4 <__floatsidf>
 2003abc:	800d883a 	mov	r6,r16
 2003ac0:	880f883a 	mov	r7,r17
 2003ac4:	1009883a 	mov	r4,r2
 2003ac8:	180b883a 	mov	r5,r3
 2003acc:	200c1500 	call	200c150 <__muldf3>
 2003ad0:	100d883a 	mov	r6,r2
 2003ad4:	180f883a 	mov	r7,r3
 2003ad8:	9009883a 	mov	r4,r18
 2003adc:	980b883a 	mov	r5,r19
 2003ae0:	200c8680 	call	200c868 <__subdf3>
 2003ae4:	aa000c04 	addi	r8,r21,48
 2003ae8:	a2000005 	stb	r8,0(r20)
 2003aec:	000d883a 	mov	r6,zero
 2003af0:	01d00934 	movhi	r7,16420
 2003af4:	1009883a 	mov	r4,r2
 2003af8:	180b883a 	mov	r5,r3
 2003afc:	a5c00044 	addi	r23,r20,1
 2003b00:	b53fd91e 	bne	r22,r20,2003a68 <__alt_mem_mem_0+0xfcfe3a68>
 2003b04:	100d883a 	mov	r6,r2
 2003b08:	180f883a 	mov	r7,r3
 2003b0c:	1009883a 	mov	r4,r2
 2003b10:	180b883a 	mov	r5,r3
 2003b14:	200ad640 	call	200ad64 <__adddf3>
 2003b18:	100d883a 	mov	r6,r2
 2003b1c:	180f883a 	mov	r7,r3
 2003b20:	8009883a 	mov	r4,r16
 2003b24:	880b883a 	mov	r5,r17
 2003b28:	1027883a 	mov	r19,r2
 2003b2c:	1825883a 	mov	r18,r3
 2003b30:	200c05c0 	call	200c05c <__ledf2>
 2003b34:	10000816 	blt	r2,zero,2003b58 <_dtoa_r+0x948>
 2003b38:	980d883a 	mov	r6,r19
 2003b3c:	900f883a 	mov	r7,r18
 2003b40:	8009883a 	mov	r4,r16
 2003b44:	880b883a 	mov	r5,r17
 2003b48:	200bef80 	call	200bef8 <__eqdf2>
 2003b4c:	103f5a1e 	bne	r2,zero,20038b8 <__alt_mem_mem_0+0xfcfe38b8>
 2003b50:	ad40004c 	andi	r21,r21,1
 2003b54:	a83f5826 	beq	r21,zero,20038b8 <__alt_mem_mem_0+0xfcfe38b8>
 2003b58:	bd3fffc3 	ldbu	r20,-1(r23)
 2003b5c:	b8bfffc4 	addi	r2,r23,-1
 2003b60:	1007883a 	mov	r3,r2
 2003b64:	01400e44 	movi	r5,57
 2003b68:	d9800717 	ldw	r6,28(sp)
 2003b6c:	00000506 	br	2003b84 <_dtoa_r+0x974>
 2003b70:	18ffffc4 	addi	r3,r3,-1
 2003b74:	11824726 	beq	r2,r6,2004494 <_dtoa_r+0x1284>
 2003b78:	1d000003 	ldbu	r20,0(r3)
 2003b7c:	102f883a 	mov	r23,r2
 2003b80:	10bfffc4 	addi	r2,r2,-1
 2003b84:	a1003fcc 	andi	r4,r20,255
 2003b88:	2100201c 	xori	r4,r4,128
 2003b8c:	213fe004 	addi	r4,r4,-128
 2003b90:	217ff726 	beq	r4,r5,2003b70 <__alt_mem_mem_0+0xfcfe3b70>
 2003b94:	a2000044 	addi	r8,r20,1
 2003b98:	12000005 	stb	r8,0(r2)
 2003b9c:	003f4606 	br	20038b8 <__alt_mem_mem_0+0xfcfe38b8>
 2003ba0:	d9000b17 	ldw	r4,44(sp)
 2003ba4:	2000c826 	beq	r4,zero,2003ec8 <_dtoa_r+0xcb8>
 2003ba8:	d9800317 	ldw	r6,12(sp)
 2003bac:	00c00044 	movi	r3,1
 2003bb0:	1980f90e 	bge	r3,r6,2003f98 <_dtoa_r+0xd88>
 2003bb4:	d8800617 	ldw	r2,24(sp)
 2003bb8:	d8c00a17 	ldw	r3,40(sp)
 2003bbc:	157fffc4 	addi	r21,r2,-1
 2003bc0:	1d41f316 	blt	r3,r21,2004390 <_dtoa_r+0x1180>
 2003bc4:	1d6bc83a 	sub	r21,r3,r21
 2003bc8:	d9c00617 	ldw	r7,24(sp)
 2003bcc:	3802aa16 	blt	r7,zero,2004678 <_dtoa_r+0x1468>
 2003bd0:	dd000817 	ldw	r20,32(sp)
 2003bd4:	d8800617 	ldw	r2,24(sp)
 2003bd8:	d8c00817 	ldw	r3,32(sp)
 2003bdc:	01400044 	movi	r5,1
 2003be0:	e009883a 	mov	r4,fp
 2003be4:	1887883a 	add	r3,r3,r2
 2003be8:	d8c00815 	stw	r3,32(sp)
 2003bec:	b0ad883a 	add	r22,r22,r2
 2003bf0:	20066a00 	call	20066a0 <__i2b>
 2003bf4:	1023883a 	mov	r17,r2
 2003bf8:	a0000826 	beq	r20,zero,2003c1c <_dtoa_r+0xa0c>
 2003bfc:	0580070e 	bge	zero,r22,2003c1c <_dtoa_r+0xa0c>
 2003c00:	a005883a 	mov	r2,r20
 2003c04:	b500b916 	blt	r22,r20,2003eec <_dtoa_r+0xcdc>
 2003c08:	d9000817 	ldw	r4,32(sp)
 2003c0c:	a0a9c83a 	sub	r20,r20,r2
 2003c10:	b0adc83a 	sub	r22,r22,r2
 2003c14:	2089c83a 	sub	r4,r4,r2
 2003c18:	d9000815 	stw	r4,32(sp)
 2003c1c:	d9800a17 	ldw	r6,40(sp)
 2003c20:	0181810e 	bge	zero,r6,2004228 <_dtoa_r+0x1018>
 2003c24:	d9c00b17 	ldw	r7,44(sp)
 2003c28:	3800b326 	beq	r7,zero,2003ef8 <_dtoa_r+0xce8>
 2003c2c:	a800b226 	beq	r21,zero,2003ef8 <_dtoa_r+0xce8>
 2003c30:	880b883a 	mov	r5,r17
 2003c34:	a80d883a 	mov	r6,r21
 2003c38:	e009883a 	mov	r4,fp
 2003c3c:	20068d40 	call	20068d4 <__pow5mult>
 2003c40:	d9800917 	ldw	r6,36(sp)
 2003c44:	100b883a 	mov	r5,r2
 2003c48:	e009883a 	mov	r4,fp
 2003c4c:	1023883a 	mov	r17,r2
 2003c50:	20066dc0 	call	20066dc <__multiply>
 2003c54:	1021883a 	mov	r16,r2
 2003c58:	d8800a17 	ldw	r2,40(sp)
 2003c5c:	d9400917 	ldw	r5,36(sp)
 2003c60:	e009883a 	mov	r4,fp
 2003c64:	1545c83a 	sub	r2,r2,r21
 2003c68:	d8800a15 	stw	r2,40(sp)
 2003c6c:	200633c0 	call	200633c <_Bfree>
 2003c70:	d8c00a17 	ldw	r3,40(sp)
 2003c74:	18009f1e 	bne	r3,zero,2003ef4 <_dtoa_r+0xce4>
 2003c78:	05c00044 	movi	r23,1
 2003c7c:	e009883a 	mov	r4,fp
 2003c80:	b80b883a 	mov	r5,r23
 2003c84:	20066a00 	call	20066a0 <__i2b>
 2003c88:	d9000d17 	ldw	r4,52(sp)
 2003c8c:	102b883a 	mov	r21,r2
 2003c90:	2000ce26 	beq	r4,zero,2003fcc <_dtoa_r+0xdbc>
 2003c94:	200d883a 	mov	r6,r4
 2003c98:	100b883a 	mov	r5,r2
 2003c9c:	e009883a 	mov	r4,fp
 2003ca0:	20068d40 	call	20068d4 <__pow5mult>
 2003ca4:	d9800317 	ldw	r6,12(sp)
 2003ca8:	102b883a 	mov	r21,r2
 2003cac:	b981810e 	bge	r23,r6,20042b4 <_dtoa_r+0x10a4>
 2003cb0:	0027883a 	mov	r19,zero
 2003cb4:	a8800417 	ldw	r2,16(r21)
 2003cb8:	05c00804 	movi	r23,32
 2003cbc:	10800104 	addi	r2,r2,4
 2003cc0:	1085883a 	add	r2,r2,r2
 2003cc4:	1085883a 	add	r2,r2,r2
 2003cc8:	a885883a 	add	r2,r21,r2
 2003ccc:	11000017 	ldw	r4,0(r2)
 2003cd0:	20065880 	call	2006588 <__hi0bits>
 2003cd4:	b885c83a 	sub	r2,r23,r2
 2003cd8:	1585883a 	add	r2,r2,r22
 2003cdc:	108007cc 	andi	r2,r2,31
 2003ce0:	1000b326 	beq	r2,zero,2003fb0 <_dtoa_r+0xda0>
 2003ce4:	00c00804 	movi	r3,32
 2003ce8:	1887c83a 	sub	r3,r3,r2
 2003cec:	01000104 	movi	r4,4
 2003cf0:	20c2cd0e 	bge	r4,r3,2004828 <_dtoa_r+0x1618>
 2003cf4:	00c00704 	movi	r3,28
 2003cf8:	1885c83a 	sub	r2,r3,r2
 2003cfc:	d8c00817 	ldw	r3,32(sp)
 2003d00:	a0a9883a 	add	r20,r20,r2
 2003d04:	b0ad883a 	add	r22,r22,r2
 2003d08:	1887883a 	add	r3,r3,r2
 2003d0c:	d8c00815 	stw	r3,32(sp)
 2003d10:	d9800817 	ldw	r6,32(sp)
 2003d14:	0180040e 	bge	zero,r6,2003d28 <_dtoa_r+0xb18>
 2003d18:	800b883a 	mov	r5,r16
 2003d1c:	e009883a 	mov	r4,fp
 2003d20:	2006a140 	call	2006a14 <__lshift>
 2003d24:	1021883a 	mov	r16,r2
 2003d28:	0580050e 	bge	zero,r22,2003d40 <_dtoa_r+0xb30>
 2003d2c:	a80b883a 	mov	r5,r21
 2003d30:	b00d883a 	mov	r6,r22
 2003d34:	e009883a 	mov	r4,fp
 2003d38:	2006a140 	call	2006a14 <__lshift>
 2003d3c:	102b883a 	mov	r21,r2
 2003d40:	d9c00e17 	ldw	r7,56(sp)
 2003d44:	3801211e 	bne	r7,zero,20041cc <_dtoa_r+0xfbc>
 2003d48:	d9800617 	ldw	r6,24(sp)
 2003d4c:	0181380e 	bge	zero,r6,2004230 <_dtoa_r+0x1020>
 2003d50:	d8c00b17 	ldw	r3,44(sp)
 2003d54:	1800ab1e 	bne	r3,zero,2004004 <_dtoa_r+0xdf4>
 2003d58:	dc800717 	ldw	r18,28(sp)
 2003d5c:	dcc00617 	ldw	r19,24(sp)
 2003d60:	9029883a 	mov	r20,r18
 2003d64:	00000206 	br	2003d70 <_dtoa_r+0xb60>
 2003d68:	20063640 	call	2006364 <__multadd>
 2003d6c:	1021883a 	mov	r16,r2
 2003d70:	a80b883a 	mov	r5,r21
 2003d74:	8009883a 	mov	r4,r16
 2003d78:	20030100 	call	2003010 <quorem>
 2003d7c:	10800c04 	addi	r2,r2,48
 2003d80:	90800005 	stb	r2,0(r18)
 2003d84:	94800044 	addi	r18,r18,1
 2003d88:	9507c83a 	sub	r3,r18,r20
 2003d8c:	000f883a 	mov	r7,zero
 2003d90:	01800284 	movi	r6,10
 2003d94:	800b883a 	mov	r5,r16
 2003d98:	e009883a 	mov	r4,fp
 2003d9c:	1cfff216 	blt	r3,r19,2003d68 <__alt_mem_mem_0+0xfcfe3d68>
 2003da0:	1011883a 	mov	r8,r2
 2003da4:	d8800617 	ldw	r2,24(sp)
 2003da8:	0082370e 	bge	zero,r2,2004688 <_dtoa_r+0x1478>
 2003dac:	d9000717 	ldw	r4,28(sp)
 2003db0:	0025883a 	mov	r18,zero
 2003db4:	20af883a 	add	r23,r4,r2
 2003db8:	01800044 	movi	r6,1
 2003dbc:	800b883a 	mov	r5,r16
 2003dc0:	e009883a 	mov	r4,fp
 2003dc4:	da001715 	stw	r8,92(sp)
 2003dc8:	2006a140 	call	2006a14 <__lshift>
 2003dcc:	a80b883a 	mov	r5,r21
 2003dd0:	1009883a 	mov	r4,r2
 2003dd4:	d8800915 	stw	r2,36(sp)
 2003dd8:	2006b5c0 	call	2006b5c <__mcmp>
 2003ddc:	da001717 	ldw	r8,92(sp)
 2003de0:	0081800e 	bge	zero,r2,20043e4 <_dtoa_r+0x11d4>
 2003de4:	b93fffc3 	ldbu	r4,-1(r23)
 2003de8:	b8bfffc4 	addi	r2,r23,-1
 2003dec:	1007883a 	mov	r3,r2
 2003df0:	01800e44 	movi	r6,57
 2003df4:	d9c00717 	ldw	r7,28(sp)
 2003df8:	00000506 	br	2003e10 <_dtoa_r+0xc00>
 2003dfc:	18ffffc4 	addi	r3,r3,-1
 2003e00:	11c12326 	beq	r2,r7,2004290 <_dtoa_r+0x1080>
 2003e04:	19000003 	ldbu	r4,0(r3)
 2003e08:	102f883a 	mov	r23,r2
 2003e0c:	10bfffc4 	addi	r2,r2,-1
 2003e10:	21403fcc 	andi	r5,r4,255
 2003e14:	2940201c 	xori	r5,r5,128
 2003e18:	297fe004 	addi	r5,r5,-128
 2003e1c:	29bff726 	beq	r5,r6,2003dfc <__alt_mem_mem_0+0xfcfe3dfc>
 2003e20:	21000044 	addi	r4,r4,1
 2003e24:	11000005 	stb	r4,0(r2)
 2003e28:	a80b883a 	mov	r5,r21
 2003e2c:	e009883a 	mov	r4,fp
 2003e30:	200633c0 	call	200633c <_Bfree>
 2003e34:	883ea026 	beq	r17,zero,20038b8 <__alt_mem_mem_0+0xfcfe38b8>
 2003e38:	90000426 	beq	r18,zero,2003e4c <_dtoa_r+0xc3c>
 2003e3c:	94400326 	beq	r18,r17,2003e4c <_dtoa_r+0xc3c>
 2003e40:	900b883a 	mov	r5,r18
 2003e44:	e009883a 	mov	r4,fp
 2003e48:	200633c0 	call	200633c <_Bfree>
 2003e4c:	880b883a 	mov	r5,r17
 2003e50:	e009883a 	mov	r4,fp
 2003e54:	200633c0 	call	200633c <_Bfree>
 2003e58:	003e9706 	br	20038b8 <__alt_mem_mem_0+0xfcfe38b8>
 2003e5c:	01800044 	movi	r6,1
 2003e60:	d9800e15 	stw	r6,56(sp)
 2003e64:	003d9606 	br	20034c0 <__alt_mem_mem_0+0xfcfe34c0>
 2003e68:	d8800817 	ldw	r2,32(sp)
 2003e6c:	d8c00517 	ldw	r3,20(sp)
 2003e70:	d8000d15 	stw	zero,52(sp)
 2003e74:	10c5c83a 	sub	r2,r2,r3
 2003e78:	00c9c83a 	sub	r4,zero,r3
 2003e7c:	d8800815 	stw	r2,32(sp)
 2003e80:	d9000a15 	stw	r4,40(sp)
 2003e84:	003d9706 	br	20034e4 <__alt_mem_mem_0+0xfcfe34e4>
 2003e88:	05adc83a 	sub	r22,zero,r22
 2003e8c:	dd800815 	stw	r22,32(sp)
 2003e90:	002d883a 	mov	r22,zero
 2003e94:	003d8e06 	br	20034d0 <__alt_mem_mem_0+0xfcfe34d0>
 2003e98:	d9000517 	ldw	r4,20(sp)
 2003e9c:	200d1e40 	call	200d1e4 <__floatsidf>
 2003ea0:	100d883a 	mov	r6,r2
 2003ea4:	180f883a 	mov	r7,r3
 2003ea8:	a009883a 	mov	r4,r20
 2003eac:	880b883a 	mov	r5,r17
 2003eb0:	200bef80 	call	200bef8 <__eqdf2>
 2003eb4:	103d7126 	beq	r2,zero,200347c <__alt_mem_mem_0+0xfcfe347c>
 2003eb8:	d9c00517 	ldw	r7,20(sp)
 2003ebc:	39ffffc4 	addi	r7,r7,-1
 2003ec0:	d9c00515 	stw	r7,20(sp)
 2003ec4:	003d6d06 	br	200347c <__alt_mem_mem_0+0xfcfe347c>
 2003ec8:	dd400a17 	ldw	r21,40(sp)
 2003ecc:	dd000817 	ldw	r20,32(sp)
 2003ed0:	0023883a 	mov	r17,zero
 2003ed4:	003f4806 	br	2003bf8 <__alt_mem_mem_0+0xfcfe3bf8>
 2003ed8:	10e3c83a 	sub	r17,r2,r3
 2003edc:	9448983a 	sll	r4,r18,r17
 2003ee0:	003d3206 	br	20033ac <__alt_mem_mem_0+0xfcfe33ac>
 2003ee4:	d8000e15 	stw	zero,56(sp)
 2003ee8:	003d7506 	br	20034c0 <__alt_mem_mem_0+0xfcfe34c0>
 2003eec:	b005883a 	mov	r2,r22
 2003ef0:	003f4506 	br	2003c08 <__alt_mem_mem_0+0xfcfe3c08>
 2003ef4:	dc000915 	stw	r16,36(sp)
 2003ef8:	d9800a17 	ldw	r6,40(sp)
 2003efc:	d9400917 	ldw	r5,36(sp)
 2003f00:	e009883a 	mov	r4,fp
 2003f04:	20068d40 	call	20068d4 <__pow5mult>
 2003f08:	1021883a 	mov	r16,r2
 2003f0c:	003f5a06 	br	2003c78 <__alt_mem_mem_0+0xfcfe3c78>
 2003f10:	01c00044 	movi	r7,1
 2003f14:	d9c00b15 	stw	r7,44(sp)
 2003f18:	d8802217 	ldw	r2,136(sp)
 2003f1c:	0081280e 	bge	zero,r2,20043c0 <_dtoa_r+0x11b0>
 2003f20:	100d883a 	mov	r6,r2
 2003f24:	1021883a 	mov	r16,r2
 2003f28:	d8800c15 	stw	r2,48(sp)
 2003f2c:	d8800615 	stw	r2,24(sp)
 2003f30:	003d8806 	br	2003554 <__alt_mem_mem_0+0xfcfe3554>
 2003f34:	d8800617 	ldw	r2,24(sp)
 2003f38:	00be9b16 	blt	zero,r2,20039a8 <__alt_mem_mem_0+0xfcfe39a8>
 2003f3c:	10010f1e 	bne	r2,zero,200437c <_dtoa_r+0x116c>
 2003f40:	880b883a 	mov	r5,r17
 2003f44:	000d883a 	mov	r6,zero
 2003f48:	01d00534 	movhi	r7,16404
 2003f4c:	8009883a 	mov	r4,r16
 2003f50:	200c1500 	call	200c150 <__muldf3>
 2003f54:	900d883a 	mov	r6,r18
 2003f58:	980f883a 	mov	r7,r19
 2003f5c:	1009883a 	mov	r4,r2
 2003f60:	180b883a 	mov	r5,r3
 2003f64:	200bf800 	call	200bf80 <__gedf2>
 2003f68:	002b883a 	mov	r21,zero
 2003f6c:	0023883a 	mov	r17,zero
 2003f70:	1000bf16 	blt	r2,zero,2004270 <_dtoa_r+0x1060>
 2003f74:	d9802217 	ldw	r6,136(sp)
 2003f78:	ddc00717 	ldw	r23,28(sp)
 2003f7c:	018c303a 	nor	r6,zero,r6
 2003f80:	d9800515 	stw	r6,20(sp)
 2003f84:	a80b883a 	mov	r5,r21
 2003f88:	e009883a 	mov	r4,fp
 2003f8c:	200633c0 	call	200633c <_Bfree>
 2003f90:	883e4926 	beq	r17,zero,20038b8 <__alt_mem_mem_0+0xfcfe38b8>
 2003f94:	003fad06 	br	2003e4c <__alt_mem_mem_0+0xfcfe3e4c>
 2003f98:	d9c01117 	ldw	r7,68(sp)
 2003f9c:	3801bc26 	beq	r7,zero,2004690 <_dtoa_r+0x1480>
 2003fa0:	10810cc4 	addi	r2,r2,1075
 2003fa4:	dd400a17 	ldw	r21,40(sp)
 2003fa8:	dd000817 	ldw	r20,32(sp)
 2003fac:	003f0a06 	br	2003bd8 <__alt_mem_mem_0+0xfcfe3bd8>
 2003fb0:	00800704 	movi	r2,28
 2003fb4:	d9000817 	ldw	r4,32(sp)
 2003fb8:	a0a9883a 	add	r20,r20,r2
 2003fbc:	b0ad883a 	add	r22,r22,r2
 2003fc0:	2089883a 	add	r4,r4,r2
 2003fc4:	d9000815 	stw	r4,32(sp)
 2003fc8:	003f5106 	br	2003d10 <__alt_mem_mem_0+0xfcfe3d10>
 2003fcc:	d8c00317 	ldw	r3,12(sp)
 2003fd0:	b8c1fc0e 	bge	r23,r3,20047c4 <_dtoa_r+0x15b4>
 2003fd4:	0027883a 	mov	r19,zero
 2003fd8:	b805883a 	mov	r2,r23
 2003fdc:	003f3e06 	br	2003cd8 <__alt_mem_mem_0+0xfcfe3cd8>
 2003fe0:	880b883a 	mov	r5,r17
 2003fe4:	e009883a 	mov	r4,fp
 2003fe8:	000f883a 	mov	r7,zero
 2003fec:	01800284 	movi	r6,10
 2003ff0:	20063640 	call	2006364 <__multadd>
 2003ff4:	d9000c17 	ldw	r4,48(sp)
 2003ff8:	1023883a 	mov	r17,r2
 2003ffc:	0102040e 	bge	zero,r4,2004810 <_dtoa_r+0x1600>
 2004000:	d9000615 	stw	r4,24(sp)
 2004004:	0500050e 	bge	zero,r20,200401c <_dtoa_r+0xe0c>
 2004008:	880b883a 	mov	r5,r17
 200400c:	a00d883a 	mov	r6,r20
 2004010:	e009883a 	mov	r4,fp
 2004014:	2006a140 	call	2006a14 <__lshift>
 2004018:	1023883a 	mov	r17,r2
 200401c:	9801241e 	bne	r19,zero,20044b0 <_dtoa_r+0x12a0>
 2004020:	8829883a 	mov	r20,r17
 2004024:	d9000617 	ldw	r4,24(sp)
 2004028:	dcc00717 	ldw	r19,28(sp)
 200402c:	9480004c 	andi	r18,r18,1
 2004030:	20bfffc4 	addi	r2,r4,-1
 2004034:	9885883a 	add	r2,r19,r2
 2004038:	d8800415 	stw	r2,16(sp)
 200403c:	dc800615 	stw	r18,24(sp)
 2004040:	a80b883a 	mov	r5,r21
 2004044:	8009883a 	mov	r4,r16
 2004048:	20030100 	call	2003010 <quorem>
 200404c:	880b883a 	mov	r5,r17
 2004050:	8009883a 	mov	r4,r16
 2004054:	102f883a 	mov	r23,r2
 2004058:	2006b5c0 	call	2006b5c <__mcmp>
 200405c:	a80b883a 	mov	r5,r21
 2004060:	a00d883a 	mov	r6,r20
 2004064:	e009883a 	mov	r4,fp
 2004068:	102d883a 	mov	r22,r2
 200406c:	2006bbc0 	call	2006bbc <__mdiff>
 2004070:	1007883a 	mov	r3,r2
 2004074:	10800317 	ldw	r2,12(r2)
 2004078:	bc800c04 	addi	r18,r23,48
 200407c:	180b883a 	mov	r5,r3
 2004080:	10004e1e 	bne	r2,zero,20041bc <_dtoa_r+0xfac>
 2004084:	8009883a 	mov	r4,r16
 2004088:	d8c01615 	stw	r3,88(sp)
 200408c:	2006b5c0 	call	2006b5c <__mcmp>
 2004090:	d8c01617 	ldw	r3,88(sp)
 2004094:	e009883a 	mov	r4,fp
 2004098:	d8801615 	stw	r2,88(sp)
 200409c:	180b883a 	mov	r5,r3
 20040a0:	200633c0 	call	200633c <_Bfree>
 20040a4:	d8801617 	ldw	r2,88(sp)
 20040a8:	1000041e 	bne	r2,zero,20040bc <_dtoa_r+0xeac>
 20040ac:	d9800317 	ldw	r6,12(sp)
 20040b0:	3000021e 	bne	r6,zero,20040bc <_dtoa_r+0xeac>
 20040b4:	d8c00617 	ldw	r3,24(sp)
 20040b8:	18003726 	beq	r3,zero,2004198 <_dtoa_r+0xf88>
 20040bc:	b0002016 	blt	r22,zero,2004140 <_dtoa_r+0xf30>
 20040c0:	b000041e 	bne	r22,zero,20040d4 <_dtoa_r+0xec4>
 20040c4:	d9000317 	ldw	r4,12(sp)
 20040c8:	2000021e 	bne	r4,zero,20040d4 <_dtoa_r+0xec4>
 20040cc:	d8c00617 	ldw	r3,24(sp)
 20040d0:	18001b26 	beq	r3,zero,2004140 <_dtoa_r+0xf30>
 20040d4:	00810716 	blt	zero,r2,20044f4 <_dtoa_r+0x12e4>
 20040d8:	d8c00417 	ldw	r3,16(sp)
 20040dc:	9d800044 	addi	r22,r19,1
 20040e0:	9c800005 	stb	r18,0(r19)
 20040e4:	b02f883a 	mov	r23,r22
 20040e8:	98c10626 	beq	r19,r3,2004504 <_dtoa_r+0x12f4>
 20040ec:	800b883a 	mov	r5,r16
 20040f0:	000f883a 	mov	r7,zero
 20040f4:	01800284 	movi	r6,10
 20040f8:	e009883a 	mov	r4,fp
 20040fc:	20063640 	call	2006364 <__multadd>
 2004100:	1021883a 	mov	r16,r2
 2004104:	000f883a 	mov	r7,zero
 2004108:	01800284 	movi	r6,10
 200410c:	880b883a 	mov	r5,r17
 2004110:	e009883a 	mov	r4,fp
 2004114:	8d002526 	beq	r17,r20,20041ac <_dtoa_r+0xf9c>
 2004118:	20063640 	call	2006364 <__multadd>
 200411c:	a00b883a 	mov	r5,r20
 2004120:	000f883a 	mov	r7,zero
 2004124:	01800284 	movi	r6,10
 2004128:	e009883a 	mov	r4,fp
 200412c:	1023883a 	mov	r17,r2
 2004130:	20063640 	call	2006364 <__multadd>
 2004134:	1029883a 	mov	r20,r2
