Archive member included to satisfy reference by file (symbol)

c:/altera/18.1/nios2eds/bin/gnu/h-x86_64-mingw32/bin/../lib/gcc/nios2-elf/5.3.0/../../../../../H-x86_64-mingw32/nios2-elf/lib\libc.a(lib_a-printf.o)
                              obj/default/main.o (printf)
c:/altera/18.1/nios2eds/bin/gnu/h-x86_64-mingw32/bin/../lib/gcc/nios2-elf/5.3.0/../../../../../H-x86_64-mingw32/nios2-elf/lib\libc.a(lib_a-vfprintf.o)
                              c:/altera/18.1/nios2eds/bin/gnu/h-x86_64-mingw32/bin/../lib/gcc/nios2-elf/5.3.0/../../../../../H-x86_64-mingw32/nios2-elf/lib\libc.a(lib_a-printf.o) (___vfprintf_internal_r)
c:/altera/18.1/nios2eds/bin/gnu/h-x86_64-mingw32/bin/../lib/gcc/nios2-elf/5.3.0/../../../../../H-x86_64-mingw32/nios2-elf/lib\libc.a(lib_a-wsetup.o)
                              c:/altera/18.1/nios2eds/bin/gnu/h-x86_64-mingw32/bin/../lib/gcc/nios2-elf/5.3.0/../../../../../H-x86_64-mingw32/nios2-elf/lib\libc.a(lib_a-vfprintf.o) (__swsetup_r)
c:/altera/18.1/nios2eds/bin/gnu/h-x86_64-mingw32/bin/../lib/gcc/nios2-elf/5.3.0/../../../../../H-x86_64-mingw32/nios2-elf/lib\libc.a(lib_a-dtoa.o)
                              c:/altera/18.1/nios2eds/bin/gnu/h-x86_64-mingw32/bin/../lib/gcc/nios2-elf/5.3.0/../../../../../H-x86_64-mingw32/nios2-elf/lib\libc.a(lib_a-vfprintf.o) (_dtoa_r)
c:/altera/18.1/nios2eds/bin/gnu/h-x86_64-mingw32/bin/../lib/gcc/nios2-elf/5.3.0/../../../../../H-x86_64-mingw32/nios2-elf/lib\libc.a(lib_a-fflush.o)
                              c:/altera/18.1/nios2eds/bin/gnu/h-x86_64-mingw32/bin/../lib/gcc/nios2-elf/5.3.0/../../../../../H-x86_64-mingw32/nios2-elf/lib\libc.a(lib_a-vfprintf.o) (_fflush_r)
c:/altera/18.1/nios2eds/bin/gnu/h-x86_64-mingw32/bin/../lib/gcc/nios2-elf/5.3.0/../../../../../H-x86_64-mingw32/nios2-elf/lib\libc.a(lib_a-findfp.o)
                              c:/altera/18.1/nios2eds/bin/gnu/h-x86_64-mingw32/bin/../lib/gcc/nios2-elf/5.3.0/../../../../../H-x86_64-mingw32/nios2-elf/lib\libc.a(lib_a-vfprintf.o) (__sinit)
c:/altera/18.1/nios2eds/bin/gnu/h-x86_64-mingw32/bin/../lib/gcc/nios2-elf/5.3.0/../../../../../H-x86_64-mingw32/nios2-elf/lib\libc.a(lib_a-freer.o)
                              c:/altera/18.1/nios2eds/bin/gnu/h-x86_64-mingw32/bin/../lib/gcc/nios2-elf/5.3.0/../../../../../H-x86_64-mingw32/nios2-elf/lib\libc.a(lib_a-wsetup.o) (_free_r)
c:/altera/18.1/nios2eds/bin/gnu/h-x86_64-mingw32/bin/../lib/gcc/nios2-elf/5.3.0/../../../../../H-x86_64-mingw32/nios2-elf/lib\libc.a(lib_a-fwalk.o)
                              c:/altera/18.1/nios2eds/bin/gnu/h-x86_64-mingw32/bin/../lib/gcc/nios2-elf/5.3.0/../../../../../H-x86_64-mingw32/nios2-elf/lib\libc.a(lib_a-findfp.o) (_fwalk)
c:/altera/18.1/nios2eds/bin/gnu/h-x86_64-mingw32/bin/../lib/gcc/nios2-elf/5.3.0/../../../../../H-x86_64-mingw32/nios2-elf/lib\libc.a(lib_a-impure.o)
                              c:/altera/18.1/nios2eds/bin/gnu/h-x86_64-mingw32/bin/../lib/gcc/nios2-elf/5.3.0/../../../../../H-x86_64-mingw32/nios2-elf/lib\libc.a(lib_a-fflush.o) (_global_impure_ptr)
c:/altera/18.1/nios2eds/bin/gnu/h-x86_64-mingw32/bin/../lib/gcc/nios2-elf/5.3.0/../../../../../H-x86_64-mingw32/nios2-elf/lib\libc.a(lib_a-locale.o)
                              c:/altera/18.1/nios2eds/bin/gnu/h-x86_64-mingw32/bin/../lib/gcc/nios2-elf/5.3.0/../../../../../H-x86_64-mingw32/nios2-elf/lib\libc.a(lib_a-vfprintf.o) (_localeconv_r)
c:/altera/18.1/nios2eds/bin/gnu/h-x86_64-mingw32/bin/../lib/gcc/nios2-elf/5.3.0/../../../../../H-x86_64-mingw32/nios2-elf/lib\libc.a(lib_a-makebuf.o)
                              c:/altera/18.1/nios2eds/bin/gnu/h-x86_64-mingw32/bin/../lib/gcc/nios2-elf/5.3.0/../../../../../H-x86_64-mingw32/nios2-elf/lib\libc.a(lib_a-wsetup.o) (__smakebuf_r)
c:/altera/18.1/nios2eds/bin/gnu/h-x86_64-mingw32/bin/../lib/gcc/nios2-elf/5.3.0/../../../../../H-x86_64-mingw32/nios2-elf/lib\libc.a(lib_a-mallocr.o)
                              c:/altera/18.1/nios2eds/bin/gnu/h-x86_64-mingw32/bin/../lib/gcc/nios2-elf/5.3.0/../../../../../H-x86_64-mingw32/nios2-elf/lib\libc.a(lib_a-findfp.o) (_malloc_r)
c:/altera/18.1/nios2eds/bin/gnu/h-x86_64-mingw32/bin/../lib/gcc/nios2-elf/5.3.0/../../../../../H-x86_64-mingw32/nios2-elf/lib\libc.a(lib_a-memchr.o)
                              c:/altera/18.1/nios2eds/bin/gnu/h-x86_64-mingw32/bin/../lib/gcc/nios2-elf/5.3.0/../../../../../H-x86_64-mingw32/nios2-elf/lib\libc.a(lib_a-vfprintf.o) (memchr)
c:/altera/18.1/nios2eds/bin/gnu/h-x86_64-mingw32/bin/../lib/gcc/nios2-elf/5.3.0/../../../../../H-x86_64-mingw32/nios2-elf/lib\libc.a(lib_a-memcpy.o)
                              c:/altera/18.1/nios2eds/bin/gnu/h-x86_64-mingw32/bin/../lib/gcc/nios2-elf/5.3.0/../../../../../H-x86_64-mingw32/nios2-elf/lib\libc.a(lib_a-dtoa.o) (memcpy)
c:/altera/18.1/nios2eds/bin/gnu/h-x86_64-mingw32/bin/../lib/gcc/nios2-elf/5.3.0/../../../../../H-x86_64-mingw32/nios2-elf/lib\libc.a(lib_a-memset.o)
                              c:/altera/18.1/nios2eds/bin/gnu/h-x86_64-mingw32/bin/../lib/gcc/nios2-elf/5.3.0/../../../../../H-x86_64-mingw32/nios2-elf/lib\libc.a(lib_a-findfp.o) (memset)
c:/altera/18.1/nios2eds/bin/gnu/h-x86_64-mingw32/bin/../lib/gcc/nios2-elf/5.3.0/../../../../../H-x86_64-mingw32/nios2-elf/lib\libc.a(lib_a-mprec.o)
                              c:/altera/18.1/nios2eds/bin/gnu/h-x86_64-mingw32/bin/../lib/gcc/nios2-elf/5.3.0/../../../../../H-x86_64-mingw32/nios2-elf/lib\libc.a(lib_a-dtoa.o) (_Balloc)
c:/altera/18.1/nios2eds/bin/gnu/h-x86_64-mingw32/bin/../lib/gcc/nios2-elf/5.3.0/../../../../../H-x86_64-mingw32/nios2-elf/lib\libc.a(lib_a-s_fpclassify.o)
                              c:/altera/18.1/nios2eds/bin/gnu/h-x86_64-mingw32/bin/../lib/gcc/nios2-elf/5.3.0/../../../../../H-x86_64-mingw32/nios2-elf/lib\libc.a(lib_a-vfprintf.o) (__fpclassifyd)
c:/altera/18.1/nios2eds/bin/gnu/h-x86_64-mingw32/bin/../lib/gcc/nios2-elf/5.3.0/../../../../../H-x86_64-mingw32/nios2-elf/lib\libc.a(lib_a-sbrkr.o)
                              c:/altera/18.1/nios2eds/bin/gnu/h-x86_64-mingw32/bin/../lib/gcc/nios2-elf/5.3.0/../../../../../H-x86_64-mingw32/nios2-elf/lib\libc.a(lib_a-freer.o) (_sbrk_r)
c:/altera/18.1/nios2eds/bin/gnu/h-x86_64-mingw32/bin/../lib/gcc/nios2-elf/5.3.0/../../../../../H-x86_64-mingw32/nios2-elf/lib\libc.a(lib_a-stdio.o)
                              c:/altera/18.1/nios2eds/bin/gnu/h-x86_64-mingw32/bin/../lib/gcc/nios2-elf/5.3.0/../../../../../H-x86_64-mingw32/nios2-elf/lib\libc.a(lib_a-findfp.o) (__sread)
c:/altera/18.1/nios2eds/bin/gnu/h-x86_64-mingw32/bin/../lib/gcc/nios2-elf/5.3.0/../../../../../H-x86_64-mingw32/nios2-elf/lib\libc.a(lib_a-strcmp.o)
                              c:/altera/18.1/nios2eds/bin/gnu/h-x86_64-mingw32/bin/../lib/gcc/nios2-elf/5.3.0/../../../../../H-x86_64-mingw32/nios2-elf/lib\libc.a(lib_a-locale.o) (strcmp)
c:/altera/18.1/nios2eds/bin/gnu/h-x86_64-mingw32/bin/../lib/gcc/nios2-elf/5.3.0/../../../../../H-x86_64-mingw32/nios2-elf/lib\libc.a(lib_a-strlen.o)
                              c:/altera/18.1/nios2eds/bin/gnu/h-x86_64-mingw32/bin/../lib/gcc/nios2-elf/5.3.0/../../../../../H-x86_64-mingw32/nios2-elf/lib\libc.a(lib_a-vfprintf.o) (strlen)
c:/altera/18.1/nios2eds/bin/gnu/h-x86_64-mingw32/bin/../lib/gcc/nios2-elf/5.3.0/../../../../../H-x86_64-mingw32/nios2-elf/lib\libc.a(lib_a-vfiprintf.o)
                              c:/altera/18.1/nios2eds/bin/gnu/h-x86_64-mingw32/bin/../lib/gcc/nios2-elf/5.3.0/../../../../../H-x86_64-mingw32/nios2-elf/lib\libc.a(lib_a-vfprintf.o) (__sprint_r)
c:/altera/18.1/nios2eds/bin/gnu/h-x86_64-mingw32/bin/../lib/gcc/nios2-elf/5.3.0/../../../../../H-x86_64-mingw32/nios2-elf/lib\libc.a(lib_a-writer.o)
                              c:/altera/18.1/nios2eds/bin/gnu/h-x86_64-mingw32/bin/../lib/gcc/nios2-elf/5.3.0/../../../../../H-x86_64-mingw32/nios2-elf/lib\libc.a(lib_a-stdio.o) (_write_r)
c:/altera/18.1/nios2eds/bin/gnu/h-x86_64-mingw32/bin/../lib/gcc/nios2-elf/5.3.0/../../../../../H-x86_64-mingw32/nios2-elf/lib\libc.a(closer.o)
                              c:/altera/18.1/nios2eds/bin/gnu/h-x86_64-mingw32/bin/../lib/gcc/nios2-elf/5.3.0/../../../../../H-x86_64-mingw32/nios2-elf/lib\libc.a(lib_a-stdio.o) (_close_r)
c:/altera/18.1/nios2eds/bin/gnu/h-x86_64-mingw32/bin/../lib/gcc/nios2-elf/5.3.0/../../../../../H-x86_64-mingw32/nios2-elf/lib\libc.a(lib_a-callocr.o)
                              c:/altera/18.1/nios2eds/bin/gnu/h-x86_64-mingw32/bin/../lib/gcc/nios2-elf/5.3.0/../../../../../H-x86_64-mingw32/nios2-elf/lib\libc.a(lib_a-mprec.o) (_calloc_r)
c:/altera/18.1/nios2eds/bin/gnu/h-x86_64-mingw32/bin/../lib/gcc/nios2-elf/5.3.0/../../../../../H-x86_64-mingw32/nios2-elf/lib\libc.a(lib_a-fclose.o)
                              c:/altera/18.1/nios2eds/bin/gnu/h-x86_64-mingw32/bin/../lib/gcc/nios2-elf/5.3.0/../../../../../H-x86_64-mingw32/nios2-elf/lib\libc.a(lib_a-findfp.o) (_fclose_r)
c:/altera/18.1/nios2eds/bin/gnu/h-x86_64-mingw32/bin/../lib/gcc/nios2-elf/5.3.0/../../../../../H-x86_64-mingw32/nios2-elf/lib\libc.a(lib_a-fputwc.o)
                              c:/altera/18.1/nios2eds/bin/gnu/h-x86_64-mingw32/bin/../lib/gcc/nios2-elf/5.3.0/../../../../../H-x86_64-mingw32/nios2-elf/lib\libc.a(lib_a-vfiprintf.o) (_fputwc_r)
c:/altera/18.1/nios2eds/bin/gnu/h-x86_64-mingw32/bin/../lib/gcc/nios2-elf/5.3.0/../../../../../H-x86_64-mingw32/nios2-elf/lib\libc.a(lib_a-fstatr.o)
                              c:/altera/18.1/nios2eds/bin/gnu/h-x86_64-mingw32/bin/../lib/gcc/nios2-elf/5.3.0/../../../../../H-x86_64-mingw32/nios2-elf/lib\libc.a(lib_a-makebuf.o) (_fstat_r)
c:/altera/18.1/nios2eds/bin/gnu/h-x86_64-mingw32/bin/../lib/gcc/nios2-elf/5.3.0/../../../../../H-x86_64-mingw32/nios2-elf/lib\libc.a(lib_a-fvwrite.o)
                              c:/altera/18.1/nios2eds/bin/gnu/h-x86_64-mingw32/bin/../lib/gcc/nios2-elf/5.3.0/../../../../../H-x86_64-mingw32/nios2-elf/lib\libc.a(lib_a-vfiprintf.o) (__sfvwrite_r)
c:/altera/18.1/nios2eds/bin/gnu/h-x86_64-mingw32/bin/../lib/gcc/nios2-elf/5.3.0/../../../../../H-x86_64-mingw32/nios2-elf/lib\libc.a(lib_a-int_errno.o)
                              c:/altera/18.1/nios2eds/bin/gnu/h-x86_64-mingw32/bin/../lib/gcc/nios2-elf/5.3.0/../../../../../H-x86_64-mingw32/nios2-elf/lib\libc.a(lib_a-sbrkr.o) (errno)
c:/altera/18.1/nios2eds/bin/gnu/h-x86_64-mingw32/bin/../lib/gcc/nios2-elf/5.3.0/../../../../../H-x86_64-mingw32/nios2-elf/lib\libc.a(lib_a-isattyr.o)
                              c:/altera/18.1/nios2eds/bin/gnu/h-x86_64-mingw32/bin/../lib/gcc/nios2-elf/5.3.0/../../../../../H-x86_64-mingw32/nios2-elf/lib\libc.a(lib_a-makebuf.o) (_isatty_r)
c:/altera/18.1/nios2eds/bin/gnu/h-x86_64-mingw32/bin/../lib/gcc/nios2-elf/5.3.0/../../../../../H-x86_64-mingw32/nios2-elf/lib\libc.a(lib_a-lseekr.o)
                              c:/altera/18.1/nios2eds/bin/gnu/h-x86_64-mingw32/bin/../lib/gcc/nios2-elf/5.3.0/../../../../../H-x86_64-mingw32/nios2-elf/lib\libc.a(lib_a-stdio.o) (_lseek_r)
c:/altera/18.1/nios2eds/bin/gnu/h-x86_64-mingw32/bin/../lib/gcc/nios2-elf/5.3.0/../../../../../H-x86_64-mingw32/nios2-elf/lib\libc.a(lib_a-memmove.o)
                              c:/altera/18.1/nios2eds/bin/gnu/h-x86_64-mingw32/bin/../lib/gcc/nios2-elf/5.3.0/../../../../../H-x86_64-mingw32/nios2-elf/lib\libc.a(lib_a-fvwrite.o) (memmove)
c:/altera/18.1/nios2eds/bin/gnu/h-x86_64-mingw32/bin/../lib/gcc/nios2-elf/5.3.0/../../../../../H-x86_64-mingw32/nios2-elf/lib\libc.a(lib_a-readr.o)
                              c:/altera/18.1/nios2eds/bin/gnu/h-x86_64-mingw32/bin/../lib/gcc/nios2-elf/5.3.0/../../../../../H-x86_64-mingw32/nios2-elf/lib\libc.a(lib_a-stdio.o) (_read_r)
c:/altera/18.1/nios2eds/bin/gnu/h-x86_64-mingw32/bin/../lib/gcc/nios2-elf/5.3.0/../../../../../H-x86_64-mingw32/nios2-elf/lib\libc.a(lib_a-reallocr.o)
                              c:/altera/18.1/nios2eds/bin/gnu/h-x86_64-mingw32/bin/../lib/gcc/nios2-elf/5.3.0/../../../../../H-x86_64-mingw32/nios2-elf/lib\libc.a(lib_a-fvwrite.o) (_realloc_r)
c:/altera/18.1/nios2eds/bin/gnu/h-x86_64-mingw32/bin/../lib/gcc/nios2-elf/5.3.0/../../../../../H-x86_64-mingw32/nios2-elf/lib\libc.a(lib_a-wbuf.o)
                              c:/altera/18.1/nios2eds/bin/gnu/h-x86_64-mingw32/bin/../lib/gcc/nios2-elf/5.3.0/../../../../../H-x86_64-mingw32/nios2-elf/lib\libc.a(lib_a-fputwc.o) (__swbuf_r)
c:/altera/18.1/nios2eds/bin/gnu/h-x86_64-mingw32/bin/../lib/gcc/nios2-elf/5.3.0/../../../../../H-x86_64-mingw32/nios2-elf/lib\libc.a(lib_a-wcrtomb.o)
                              c:/altera/18.1/nios2eds/bin/gnu/h-x86_64-mingw32/bin/../lib/gcc/nios2-elf/5.3.0/../../../../../H-x86_64-mingw32/nios2-elf/lib\libc.a(lib_a-fputwc.o) (_wcrtomb_r)
c:/altera/18.1/nios2eds/bin/gnu/h-x86_64-mingw32/bin/../lib/gcc/nios2-elf/5.3.0/../../../../../H-x86_64-mingw32/nios2-elf/lib\libc.a(lib_a-wctomb_r.o)
                              c:/altera/18.1/nios2eds/bin/gnu/h-x86_64-mingw32/bin/../lib/gcc/nios2-elf/5.3.0/../../../../../H-x86_64-mingw32/nios2-elf/lib\libc.a(lib_a-wcrtomb.o) (__wctomb)
c:/altera/18.1/nios2eds/bin/gnu/h-x86_64-mingw32/bin/../lib/gcc/nios2-elf/5.3.0\libgcc.a(_udivdi3.o)
                              c:/altera/18.1/nios2eds/bin/gnu/h-x86_64-mingw32/bin/../lib/gcc/nios2-elf/5.3.0/../../../../../H-x86_64-mingw32/nios2-elf/lib\libc.a(lib_a-vfprintf.o) (__udivdi3)
c:/altera/18.1/nios2eds/bin/gnu/h-x86_64-mingw32/bin/../lib/gcc/nios2-elf/5.3.0\libgcc.a(_umoddi3.o)
                              c:/altera/18.1/nios2eds/bin/gnu/h-x86_64-mingw32/bin/../lib/gcc/nios2-elf/5.3.0/../../../../../H-x86_64-mingw32/nios2-elf/lib\libc.a(lib_a-vfprintf.o) (__umoddi3)
c:/altera/18.1/nios2eds/bin/gnu/h-x86_64-mingw32/bin/../lib/gcc/nios2-elf/5.3.0\libgcc.a(lib2-divmod.o)
                              c:/altera/18.1/nios2eds/bin/gnu/h-x86_64-mingw32/bin/../lib/gcc/nios2-elf/5.3.0/../../../../../H-x86_64-mingw32/nios2-elf/lib\libc.a(lib_a-vfprintf.o) (__divsi3)
c:/altera/18.1/nios2eds/bin/gnu/h-x86_64-mingw32/bin/../lib/gcc/nios2-elf/5.3.0\libgcc.a(adddf3.o)
                              c:/altera/18.1/nios2eds/bin/gnu/h-x86_64-mingw32/bin/../lib/gcc/nios2-elf/5.3.0/../../../../../H-x86_64-mingw32/nios2-elf/lib\libc.a(lib_a-dtoa.o) (__adddf3)
c:/altera/18.1/nios2eds/bin/gnu/h-x86_64-mingw32/bin/../lib/gcc/nios2-elf/5.3.0\libgcc.a(divdf3.o)
                              c:/altera/18.1/nios2eds/bin/gnu/h-x86_64-mingw32/bin/../lib/gcc/nios2-elf/5.3.0/../../../../../H-x86_64-mingw32/nios2-elf/lib\libc.a(lib_a-dtoa.o) (__divdf3)
c:/altera/18.1/nios2eds/bin/gnu/h-x86_64-mingw32/bin/../lib/gcc/nios2-elf/5.3.0\libgcc.a(eqdf2.o)
                              c:/altera/18.1/nios2eds/bin/gnu/h-x86_64-mingw32/bin/../lib/gcc/nios2-elf/5.3.0/../../../../../H-x86_64-mingw32/nios2-elf/lib\libc.a(lib_a-vfprintf.o) (__eqdf2)
c:/altera/18.1/nios2eds/bin/gnu/h-x86_64-mingw32/bin/../lib/gcc/nios2-elf/5.3.0\libgcc.a(gedf2.o)
                              c:/altera/18.1/nios2eds/bin/gnu/h-x86_64-mingw32/bin/../lib/gcc/nios2-elf/5.3.0/../../../../../H-x86_64-mingw32/nios2-elf/lib\libc.a(lib_a-dtoa.o) (__gedf2)
c:/altera/18.1/nios2eds/bin/gnu/h-x86_64-mingw32/bin/../lib/gcc/nios2-elf/5.3.0\libgcc.a(ledf2.o)
                              c:/altera/18.1/nios2eds/bin/gnu/h-x86_64-mingw32/bin/../lib/gcc/nios2-elf/5.3.0/../../../../../H-x86_64-mingw32/nios2-elf/lib\libc.a(lib_a-vfprintf.o) (__ltdf2)
c:/altera/18.1/nios2eds/bin/gnu/h-x86_64-mingw32/bin/../lib/gcc/nios2-elf/5.3.0\libgcc.a(muldf3.o)
                              c:/altera/18.1/nios2eds/bin/gnu/h-x86_64-mingw32/bin/../lib/gcc/nios2-elf/5.3.0/../../../../../H-x86_64-mingw32/nios2-elf/lib\libc.a(lib_a-dtoa.o) (__muldf3)
c:/altera/18.1/nios2eds/bin/gnu/h-x86_64-mingw32/bin/../lib/gcc/nios2-elf/5.3.0\libgcc.a(subdf3.o)
                              c:/altera/18.1/nios2eds/bin/gnu/h-x86_64-mingw32/bin/../lib/gcc/nios2-elf/5.3.0/../../../../../H-x86_64-mingw32/nios2-elf/lib\libc.a(lib_a-dtoa.o) (__subdf3)
c:/altera/18.1/nios2eds/bin/gnu/h-x86_64-mingw32/bin/../lib/gcc/nios2-elf/5.3.0\libgcc.a(fixdfsi.o)
                              c:/altera/18.1/nios2eds/bin/gnu/h-x86_64-mingw32/bin/../lib/gcc/nios2-elf/5.3.0/../../../../../H-x86_64-mingw32/nios2-elf/lib\libc.a(lib_a-dtoa.o) (__fixdfsi)
c:/altera/18.1/nios2eds/bin/gnu/h-x86_64-mingw32/bin/../lib/gcc/nios2-elf/5.3.0\libgcc.a(floatsidf.o)
                              c:/altera/18.1/nios2eds/bin/gnu/h-x86_64-mingw32/bin/../lib/gcc/nios2-elf/5.3.0/../../../../../H-x86_64-mingw32/nios2-elf/lib\libc.a(lib_a-dtoa.o) (__floatsidf)
c:/altera/18.1/nios2eds/bin/gnu/h-x86_64-mingw32/bin/../lib/gcc/nios2-elf/5.3.0\libgcc.a(floatunsidf.o)
                              c:/altera/18.1/nios2eds/bin/gnu/h-x86_64-mingw32/bin/../lib/gcc/nios2-elf/5.3.0/../../../../../H-x86_64-mingw32/nios2-elf/lib\libc.a(lib_a-dtoa.o) (__floatunsidf)
c:/altera/18.1/nios2eds/bin/gnu/h-x86_64-mingw32/bin/../lib/gcc/nios2-elf/5.3.0\libgcc.a(_clz.o)
                              c:/altera/18.1/nios2eds/bin/gnu/h-x86_64-mingw32/bin/../lib/gcc/nios2-elf/5.3.0\libgcc.a(_udivdi3.o) (__clz_tab)
c:/altera/18.1/nios2eds/bin/gnu/h-x86_64-mingw32/bin/../lib/gcc/nios2-elf/5.3.0\libgcc.a(_clzsi2.o)
                              c:/altera/18.1/nios2eds/bin/gnu/h-x86_64-mingw32/bin/../lib/gcc/nios2-elf/5.3.0\libgcc.a(adddf3.o) (__clzsi2)
../FreeRTOS_bsp/\libfreertos_bsp.a(alt_main.o)
                              ../FreeRTOS_bsp//obj/HAL/src/crt0.o (alt_main)
../FreeRTOS_bsp/\libfreertos_bsp.a(alt_malloc_lock.o)
                              ../FreeRTOS_bsp/\libfreertos_bsp.a(alt_main.o) (alt_heapsem)
../FreeRTOS_bsp/\libfreertos_bsp.a(queue.o)
                              ../FreeRTOS_bsp/\libfreertos_bsp.a(alt_main.o) (xQueueCreateMutex)
../FreeRTOS_bsp/\libfreertos_bsp.a(tasks.o)
                              ../FreeRTOS_bsp/\libfreertos_bsp.a(alt_malloc_lock.o) (xTaskGetSchedulerState)
../FreeRTOS_bsp/\libfreertos_bsp.a(timers.o)
                              ../FreeRTOS_bsp/\libfreertos_bsp.a(tasks.o) (xTimerCreateTimerTask)
../FreeRTOS_bsp/\libfreertos_bsp.a(alt_dev.o)
                              ../FreeRTOS_bsp/\libfreertos_bsp.a(alt_main.o) (alt_fd_list_lock)
../FreeRTOS_bsp/\libfreertos_bsp.a(alt_do_ctors.o)
                              ../FreeRTOS_bsp/\libfreertos_bsp.a(alt_main.o) (_do_ctors)
../FreeRTOS_bsp/\libfreertos_bsp.a(alt_do_dtors.o)
                              ../FreeRTOS_bsp/\libfreertos_bsp.a(alt_main.o) (_do_dtors)
../FreeRTOS_bsp/\libfreertos_bsp.a(alt_fstat.o)
                              c:/altera/18.1/nios2eds/bin/gnu/h-x86_64-mingw32/bin/../lib/gcc/nios2-elf/5.3.0/../../../../../H-x86_64-mingw32/nios2-elf/lib\libc.a(lib_a-fstatr.o) (fstat)
../FreeRTOS_bsp/\libfreertos_bsp.a(alt_io_redirect.o)
                              ../FreeRTOS_bsp/\libfreertos_bsp.a(alt_main.o) (alt_io_redirect)
../FreeRTOS_bsp/\libfreertos_bsp.a(alt_isatty.o)
                              c:/altera/18.1/nios2eds/bin/gnu/h-x86_64-mingw32/bin/../lib/gcc/nios2-elf/5.3.0/../../../../../H-x86_64-mingw32/nios2-elf/lib\libc.a(lib_a-isattyr.o) (isatty)
../FreeRTOS_bsp/\libfreertos_bsp.a(alt_load.o)
                              ../FreeRTOS_bsp//obj/HAL/src/crt0.o (alt_load)
../FreeRTOS_bsp/\libfreertos_bsp.a(alt_lseek.o)
                              c:/altera/18.1/nios2eds/bin/gnu/h-x86_64-mingw32/bin/../lib/gcc/nios2-elf/5.3.0/../../../../../H-x86_64-mingw32/nios2-elf/lib\libc.a(lib_a-lseekr.o) (lseek)
../FreeRTOS_bsp/\libfreertos_bsp.a(alt_open.o)
                              ../FreeRTOS_bsp/\libfreertos_bsp.a(alt_io_redirect.o) (open)
../FreeRTOS_bsp/\libfreertos_bsp.a(alt_printf.o)
                              obj/default/main.o (alt_printf)
../FreeRTOS_bsp/\libfreertos_bsp.a(alt_putchar.o)
                              ../FreeRTOS_bsp/\libfreertos_bsp.a(alt_printf.o) (alt_putchar)
../FreeRTOS_bsp/\libfreertos_bsp.a(alt_release_fd.o)
                              ../FreeRTOS_bsp/\libfreertos_bsp.a(alt_io_redirect.o) (alt_release_fd)
../FreeRTOS_bsp/\libfreertos_bsp.a(alt_sbrk.o)
                              c:/altera/18.1/nios2eds/bin/gnu/h-x86_64-mingw32/bin/../lib/gcc/nios2-elf/5.3.0/../../../../../H-x86_64-mingw32/nios2-elf/lib\libc.a(lib_a-sbrkr.o) (sbrk)
../FreeRTOS_bsp/\libfreertos_bsp.a(alt_lwip_close.o)
                              c:/altera/18.1/nios2eds/bin/gnu/h-x86_64-mingw32/bin/../lib/gcc/nios2-elf/5.3.0/../../../../../H-x86_64-mingw32/nios2-elf/lib\libc.a(closer.o) (close)
../FreeRTOS_bsp/\libfreertos_bsp.a(alt_lwip_read.o)
                              c:/altera/18.1/nios2eds/bin/gnu/h-x86_64-mingw32/bin/../lib/gcc/nios2-elf/5.3.0/../../../../../H-x86_64-mingw32/nios2-elf/lib\libc.a(lib_a-readr.o) (read)
../FreeRTOS_bsp/\libfreertos_bsp.a(alt_lwip_write.o)
                              c:/altera/18.1/nios2eds/bin/gnu/h-x86_64-mingw32/bin/../lib/gcc/nios2-elf/5.3.0/../../../../../H-x86_64-mingw32/nios2-elf/lib\libc.a(lib_a-writer.o) (write)
../FreeRTOS_bsp/\libfreertos_bsp.a(altera_tse_ethernetif.o)
                              obj/default/main.o (ethernetif_input)
../FreeRTOS_bsp/\libfreertos_bsp.a(lwip_main.o)
                              obj/default/main.o (lwip_initialize)
../FreeRTOS_bsp/\libfreertos_bsp.a(lwip_tse_mac.o)
                              ../FreeRTOS_bsp/\libfreertos_bsp.a(altera_tse_ethernetif.o) (tse_mac_init)
../FreeRTOS_bsp/\libfreertos_bsp.a(sys_arch.o)
                              ../FreeRTOS_bsp/\libfreertos_bsp.a(lwip_main.o) (sys_sem_new)
../FreeRTOS_bsp/\libfreertos_bsp.a(dhcp.o)
                              ../FreeRTOS_bsp/\libfreertos_bsp.a(lwip_main.o) (dhcp_start)
../FreeRTOS_bsp/\libfreertos_bsp.a(etharp.o)
                              ../FreeRTOS_bsp/\libfreertos_bsp.a(altera_tse_ethernetif.o) (etharp_output)
../FreeRTOS_bsp/\libfreertos_bsp.a(ip4_addr.o)
                              ../FreeRTOS_bsp/\libfreertos_bsp.a(dhcp.o) (ip_addr_any)
../FreeRTOS_bsp/\libfreertos_bsp.a(mem.o)
                              ../FreeRTOS_bsp/\libfreertos_bsp.a(dhcp.o) (mem_free)
../FreeRTOS_bsp/\libfreertos_bsp.a(memp.o)
                              ../FreeRTOS_bsp/\libfreertos_bsp.a(etharp.o) (memp_malloc)
../FreeRTOS_bsp/\libfreertos_bsp.a(netif.o)
                              ../FreeRTOS_bsp/\libfreertos_bsp.a(dhcp.o) (netif_list)
../FreeRTOS_bsp/\libfreertos_bsp.a(pbuf.o)
                              ../FreeRTOS_bsp/\libfreertos_bsp.a(altera_tse_ethernetif.o) (pbuf_alloc)
../FreeRTOS_bsp/\libfreertos_bsp.a(raw.o)
                              ../FreeRTOS_bsp/\libfreertos_bsp.a(netif.o) (raw_netif_ip_addr_changed)
../FreeRTOS_bsp/\libfreertos_bsp.a(stats.o)
                              ../FreeRTOS_bsp/\libfreertos_bsp.a(altera_tse_ethernetif.o) (lwip_stats)
../FreeRTOS_bsp/\libfreertos_bsp.a(tcp.o)
                              ../FreeRTOS_bsp/\libfreertos_bsp.a(pbuf.o) (tcp_active_pcbs)
../FreeRTOS_bsp/\libfreertos_bsp.a(tcp_in.o)
                              ../FreeRTOS_bsp/\libfreertos_bsp.a(tcp.o) (tcp_input_pcb)
../FreeRTOS_bsp/\libfreertos_bsp.a(tcp_out.o)
                              ../FreeRTOS_bsp/\libfreertos_bsp.a(tcp.o) (tcp_split_unsent_seg)
../FreeRTOS_bsp/\libfreertos_bsp.a(timeouts.o)
                              ../FreeRTOS_bsp/\libfreertos_bsp.a(tcp.o) (tcp_timer_needed)
../FreeRTOS_bsp/\libfreertos_bsp.a(udp.o)
                              ../FreeRTOS_bsp/\libfreertos_bsp.a(dhcp.o) (udp_sendto_if)
../FreeRTOS_bsp/\libfreertos_bsp.a(ethernet.o)
                              ../FreeRTOS_bsp/\libfreertos_bsp.a(etharp.o) (ethbroadcast)
../FreeRTOS_bsp/\libfreertos_bsp.a(alt_sys_init.o)
                              ../FreeRTOS_bsp/\libfreertos_bsp.a(alt_main.o) (alt_irq_init)
../FreeRTOS_bsp/\libfreertos_bsp.a(altera_avalon_jtag_uart_fd.o)
                              ../FreeRTOS_bsp/\libfreertos_bsp.a(alt_sys_init.o) (altera_avalon_jtag_uart_read_fd)
../FreeRTOS_bsp/\libfreertos_bsp.a(altera_avalon_jtag_uart_init.o)
                              ../FreeRTOS_bsp/\libfreertos_bsp.a(alt_sys_init.o) (altera_avalon_jtag_uart_init)
../FreeRTOS_bsp/\libfreertos_bsp.a(altera_avalon_jtag_uart_ioctl.o)
                              ../FreeRTOS_bsp/\libfreertos_bsp.a(altera_avalon_jtag_uart_fd.o) (altera_avalon_jtag_uart_ioctl)
../FreeRTOS_bsp/\libfreertos_bsp.a(altera_avalon_jtag_uart_read.o)
                              ../FreeRTOS_bsp/\libfreertos_bsp.a(altera_avalon_jtag_uart_fd.o) (altera_avalon_jtag_uart_read)
../FreeRTOS_bsp/\libfreertos_bsp.a(altera_avalon_jtag_uart_write.o)
                              ../FreeRTOS_bsp/\libfreertos_bsp.a(altera_avalon_jtag_uart_fd.o) (altera_avalon_jtag_uart_write)
../FreeRTOS_bsp/\libfreertos_bsp.a(altera_avalon_sgdma.o)
                              ../FreeRTOS_bsp/\libfreertos_bsp.a(lwip_tse_mac.o) (alt_avalon_sgdma_construct_stream_to_mem_desc)
../FreeRTOS_bsp/\libfreertos_bsp.a(altera_avalon_timer_sc.o)
                              ../FreeRTOS_bsp/\libfreertos_bsp.a(alt_sys_init.o) (alt_avalon_timer_sc_init)
../FreeRTOS_bsp/\libfreertos_bsp.a(altera_avalon_uart_fd.o)
                              ../FreeRTOS_bsp/\libfreertos_bsp.a(alt_sys_init.o) (altera_avalon_uart_read_fd)
../FreeRTOS_bsp/\libfreertos_bsp.a(altera_avalon_uart_init.o)
                              ../FreeRTOS_bsp/\libfreertos_bsp.a(alt_sys_init.o) (altera_avalon_uart_init)
../FreeRTOS_bsp/\libfreertos_bsp.a(altera_avalon_uart_read.o)
                              ../FreeRTOS_bsp/\libfreertos_bsp.a(altera_avalon_uart_fd.o) (altera_avalon_uart_read)
../FreeRTOS_bsp/\libfreertos_bsp.a(altera_avalon_uart_write.o)
                              ../FreeRTOS_bsp/\libfreertos_bsp.a(altera_avalon_uart_fd.o) (altera_avalon_uart_write)
../FreeRTOS_bsp/\libfreertos_bsp.a(alt_env_lock.o)
                              ../FreeRTOS_bsp/\libfreertos_bsp.a(alt_main.o) (alt_envsem)
../FreeRTOS_bsp/\libfreertos_bsp.a(heap_1.o)
                              ../FreeRTOS_bsp/\libfreertos_bsp.a(queue.o) (pvPortMalloc)
../FreeRTOS_bsp/\libfreertos_bsp.a(list.o)
                              ../FreeRTOS_bsp/\libfreertos_bsp.a(queue.o) (vListInitialise)
../FreeRTOS_bsp/\libfreertos_bsp.a(port.o)
                              ../FreeRTOS_bsp/\libfreertos_bsp.a(tasks.o) (enh_alt_irq_disable_all)
../FreeRTOS_bsp/\libfreertos_bsp.a(port_asm.o)
                              ../FreeRTOS_bsp/\libfreertos_bsp.a(port.o) (restore_sp_from_pxCurrentTCB)
../FreeRTOS_bsp/\libfreertos_bsp.a(tse_ethernet_phys.o)
                              ../FreeRTOS_bsp/\libfreertos_bsp.a(lwip_main.o) (tse_mac_device)
../FreeRTOS_bsp/\libfreertos_bsp.a(alt_alarm_start.o)
                              ../FreeRTOS_bsp/\libfreertos_bsp.a(altera_avalon_jtag_uart_init.o) (alt_alarm_start)
../FreeRTOS_bsp/\libfreertos_bsp.a(alt_close.o)
                              ../FreeRTOS_bsp/\libfreertos_bsp.a(alt_lwip_close.o) (alt_close)
../FreeRTOS_bsp/\libfreertos_bsp.a(alt_dcache_flush.o)
                              ../FreeRTOS_bsp/\libfreertos_bsp.a(altera_avalon_sgdma.o) (alt_dcache_flush)
../FreeRTOS_bsp/\libfreertos_bsp.a(alt_dcache_flush_all.o)
                              ../FreeRTOS_bsp/\libfreertos_bsp.a(alt_load.o) (alt_dcache_flush_all)
../FreeRTOS_bsp/\libfreertos_bsp.a(alt_dev_llist_insert.o)
                              ../FreeRTOS_bsp/\libfreertos_bsp.a(alt_sys_init.o) (alt_dev_llist_insert)
../FreeRTOS_bsp/\libfreertos_bsp.a(alt_errno.o)
                              ../FreeRTOS_bsp/\libfreertos_bsp.a(alt_fstat.o) (alt_errno)
../FreeRTOS_bsp/\libfreertos_bsp.a(alt_find_dev.o)
                              ../FreeRTOS_bsp/\libfreertos_bsp.a(alt_open.o) (alt_find_dev)
../FreeRTOS_bsp/\libfreertos_bsp.a(alt_find_file.o)
                              ../FreeRTOS_bsp/\libfreertos_bsp.a(alt_open.o) (alt_find_file)
../FreeRTOS_bsp/\libfreertos_bsp.a(alt_get_fd.o)
                              ../FreeRTOS_bsp/\libfreertos_bsp.a(alt_open.o) (alt_get_fd)
../FreeRTOS_bsp/\libfreertos_bsp.a(alt_icache_flush_all.o)
                              ../FreeRTOS_bsp/\libfreertos_bsp.a(alt_load.o) (alt_icache_flush_all)
../FreeRTOS_bsp/\libfreertos_bsp.a(alt_iic.o)
                              ../FreeRTOS_bsp/\libfreertos_bsp.a(altera_avalon_jtag_uart_init.o) (alt_ic_isr_register)
../FreeRTOS_bsp/\libfreertos_bsp.a(alt_iic_isr_register.o)
                              ../FreeRTOS_bsp/\libfreertos_bsp.a(alt_iic.o) (alt_iic_isr_register)
../FreeRTOS_bsp/\libfreertos_bsp.a(alt_irq_handler.o)
                              ../FreeRTOS_bsp/\libfreertos_bsp.a(port.o) (alt_irq)
../FreeRTOS_bsp/\libfreertos_bsp.a(alt_irq_vars.o)
                              ../FreeRTOS_bsp/\libfreertos_bsp.a(port.o) (alt_irq_active)
../FreeRTOS_bsp/\libfreertos_bsp.a(alt_read.o)
                              ../FreeRTOS_bsp/\libfreertos_bsp.a(alt_lwip_read.o) (alt_read)
../FreeRTOS_bsp/\libfreertos_bsp.a(alt_tick.o)
                              ../FreeRTOS_bsp/\libfreertos_bsp.a(altera_avalon_jtag_uart_init.o) (_alt_tick_rate)
../FreeRTOS_bsp/\libfreertos_bsp.a(alt_uncached_malloc.o)
                              ../FreeRTOS_bsp/\libfreertos_bsp.a(lwip_tse_mac.o) (alt_uncached_malloc)
../FreeRTOS_bsp/\libfreertos_bsp.a(alt_usleep.o)
                              ../FreeRTOS_bsp/\libfreertos_bsp.a(lwip_main.o) (usleep)
../FreeRTOS_bsp/\libfreertos_bsp.a(alt_write.o)
                              ../FreeRTOS_bsp/\libfreertos_bsp.a(alt_lwip_write.o) (alt_write)
../FreeRTOS_bsp/\libfreertos_bsp.a(altera_nios2_gen2_irq.o)
                              ../FreeRTOS_bsp/\libfreertos_bsp.a(alt_sys_init.o) (altera_nios2_gen2_irq_init)
../FreeRTOS_bsp/\libfreertos_bsp.a(sockets.o)
                              ../FreeRTOS_bsp/\libfreertos_bsp.a(alt_lwip_close.o) (lwip_close)
../FreeRTOS_bsp/\libfreertos_bsp.a(tcpip.o)
                              ../FreeRTOS_bsp/\libfreertos_bsp.a(lwip_main.o) (tcpip_input)
../FreeRTOS_bsp/\libfreertos_bsp.a(altera_avalon_tse.o)
                              ../FreeRTOS_bsp/\libfreertos_bsp.a(lwip_tse_mac.o) (tse_mac_initTransInfo2)
../FreeRTOS_bsp/\libfreertos_bsp.a(def.o)
                              ../FreeRTOS_bsp/\libfreertos_bsp.a(etharp.o) (lwip_htons)
../FreeRTOS_bsp/\libfreertos_bsp.a(inet_chksum.o)
                              ../FreeRTOS_bsp/\libfreertos_bsp.a(tcp_in.o) (ip_chksum_pseudo)
../FreeRTOS_bsp/\libfreertos_bsp.a(init.o)
                              ../FreeRTOS_bsp/\libfreertos_bsp.a(tcpip.o) (lwip_init)
../FreeRTOS_bsp/\libfreertos_bsp.a(ip.o)
                              ../FreeRTOS_bsp/\libfreertos_bsp.a(dhcp.o) (ip_data)
../FreeRTOS_bsp/\libfreertos_bsp.a(acd.o)
                              ../FreeRTOS_bsp/\libfreertos_bsp.a(dhcp.o) (acd_add)
../FreeRTOS_bsp/\libfreertos_bsp.a(icmp.o)
                              ../FreeRTOS_bsp/\libfreertos_bsp.a(udp.o) (icmp_dest_unreach)
../FreeRTOS_bsp/\libfreertos_bsp.a(ip4.o)
                              ../FreeRTOS_bsp/\libfreertos_bsp.a(raw.o) (ip4_route)
../FreeRTOS_bsp/\libfreertos_bsp.a(ip4_frag.o)
                              ../FreeRTOS_bsp/\libfreertos_bsp.a(timeouts.o) (ip_reass_tmr)
../FreeRTOS_bsp/\libfreertos_bsp.a(alt_busy_sleep.o)
                              ../FreeRTOS_bsp/\libfreertos_bsp.a(alt_usleep.o) (alt_busy_sleep)
../FreeRTOS_bsp/\libfreertos_bsp.a(alt_icache_flush.o)
                              ../FreeRTOS_bsp/\libfreertos_bsp.a(alt_icache_flush_all.o) (alt_icache_flush)
../FreeRTOS_bsp/\libfreertos_bsp.a(api_lib.o)
                              ../FreeRTOS_bsp/\libfreertos_bsp.a(sockets.o) (netconn_new_with_proto_and_callback)
../FreeRTOS_bsp/\libfreertos_bsp.a(api_msg.o)
                              ../FreeRTOS_bsp/\libfreertos_bsp.a(api_lib.o) (lwip_netconn_is_err_msg)
../FreeRTOS_bsp/\libfreertos_bsp.a(err.o)
                              ../FreeRTOS_bsp/\libfreertos_bsp.a(sockets.o) (err_to_errno)
../FreeRTOS_bsp/\libfreertos_bsp.a(netbuf.o)
                              ../FreeRTOS_bsp/\libfreertos_bsp.a(sockets.o) (netbuf_delete)
c:/altera/18.1/nios2eds/bin/gnu/h-x86_64-mingw32/bin/../lib/gcc/nios2-elf/5.3.0/../../../../../H-x86_64-mingw32/nios2-elf/lib\libc.a(lib_a-atexit.o)
                              ../FreeRTOS_bsp/\libfreertos_bsp.a(alt_main.o) (atexit)
c:/altera/18.1/nios2eds/bin/gnu/h-x86_64-mingw32/bin/../lib/gcc/nios2-elf/5.3.0/../../../../../H-x86_64-mingw32/nios2-elf/lib\libc.a(lib_a-atoi.o)
                              ../FreeRTOS_bsp/\libfreertos_bsp.a(netif.o) (atoi)
c:/altera/18.1/nios2eds/bin/gnu/h-x86_64-mingw32/bin/../lib/gcc/nios2-elf/5.3.0/../../../../../H-x86_64-mingw32/nios2-elf/lib\libc.a(lib_a-ctype_.o)
                              ../FreeRTOS_bsp/\libfreertos_bsp.a(ip4_addr.o) (__ctype_ptr__)
c:/altera/18.1/nios2eds/bin/gnu/h-x86_64-mingw32/bin/../lib/gcc/nios2-elf/5.3.0/../../../../../H-x86_64-mingw32/nios2-elf/lib\libc.a(lib_a-errno.o)
                              ../FreeRTOS_bsp/\libfreertos_bsp.a(sockets.o) (__errno)
c:/altera/18.1/nios2eds/bin/gnu/h-x86_64-mingw32/bin/../lib/gcc/nios2-elf/5.3.0/../../../../../H-x86_64-mingw32/nios2-elf/lib\libc.a(lib_a-exit.o)
                              ../FreeRTOS_bsp/\libfreertos_bsp.a(alt_main.o) (exit)
c:/altera/18.1/nios2eds/bin/gnu/h-x86_64-mingw32/bin/../lib/gcc/nios2-elf/5.3.0/../../../../../H-x86_64-mingw32/nios2-elf/lib\libc.a(lib_a-malloc.o)
                              ../FreeRTOS_bsp/\libfreertos_bsp.a(alt_uncached_malloc.o) (malloc)
c:/altera/18.1/nios2eds/bin/gnu/h-x86_64-mingw32/bin/../lib/gcc/nios2-elf/5.3.0/../../../../../H-x86_64-mingw32/nios2-elf/lib\libc.a(lib_a-memcmp.o)
                              ../FreeRTOS_bsp/\libfreertos_bsp.a(ethernet.o) (memcmp)
c:/altera/18.1/nios2eds/bin/gnu/h-x86_64-mingw32/bin/../lib/gcc/nios2-elf/5.3.0/../../../../../H-x86_64-mingw32/nios2-elf/lib\libc.a(lib_a-putc.o)
                              ../FreeRTOS_bsp/\libfreertos_bsp.a(alt_putchar.o) (putc)
c:/altera/18.1/nios2eds/bin/gnu/h-x86_64-mingw32/bin/../lib/gcc/nios2-elf/5.3.0/../../../../../H-x86_64-mingw32/nios2-elf/lib\libc.a(lib_a-puts.o)
                              ../FreeRTOS_bsp/\libfreertos_bsp.a(lwip_main.o) (puts)
c:/altera/18.1/nios2eds/bin/gnu/h-x86_64-mingw32/bin/../lib/gcc/nios2-elf/5.3.0/../../../../../H-x86_64-mingw32/nios2-elf/lib\libc.a(lib_a-snprintf.o)
                              ../FreeRTOS_bsp/\libfreertos_bsp.a(lwip_main.o) (snprintf)
c:/altera/18.1/nios2eds/bin/gnu/h-x86_64-mingw32/bin/../lib/gcc/nios2-elf/5.3.0/../../../../../H-x86_64-mingw32/nios2-elf/lib\libc.a(lib_a-strcpy.o)
                              ../FreeRTOS_bsp/\libfreertos_bsp.a(altera_avalon_tse.o) (strcpy)
c:/altera/18.1/nios2eds/bin/gnu/h-x86_64-mingw32/bin/../lib/gcc/nios2-elf/5.3.0/../../../../../H-x86_64-mingw32/nios2-elf/lib\libc.a(lib_a-strncmp.o)
                              ../FreeRTOS_bsp/\libfreertos_bsp.a(def.o) (strncmp)
c:/altera/18.1/nios2eds/bin/gnu/h-x86_64-mingw32/bin/../lib/gcc/nios2-elf/5.3.0/../../../../../H-x86_64-mingw32/nios2-elf/lib\libc.a(lib_a-strtol.o)
                              c:/altera/18.1/nios2eds/bin/gnu/h-x86_64-mingw32/bin/../lib/gcc/nios2-elf/5.3.0/../../../../../H-x86_64-mingw32/nios2-elf/lib\libc.a(lib_a-atoi.o) (_strtol_r)
c:/altera/18.1/nios2eds/bin/gnu/h-x86_64-mingw32/bin/../lib/gcc/nios2-elf/5.3.0/../../../../../H-x86_64-mingw32/nios2-elf/lib\libc.a(lib_a-svfprintf.o)
                              c:/altera/18.1/nios2eds/bin/gnu/h-x86_64-mingw32/bin/../lib/gcc/nios2-elf/5.3.0/../../../../../H-x86_64-mingw32/nios2-elf/lib\libc.a(lib_a-snprintf.o) (___svfprintf_internal_r)
c:/altera/18.1/nios2eds/bin/gnu/h-x86_64-mingw32/bin/../lib/gcc/nios2-elf/5.3.0/../../../../../H-x86_64-mingw32/nios2-elf/lib\libc.a(lib_a-__atexit.o)
                              c:/altera/18.1/nios2eds/bin/gnu/h-x86_64-mingw32/bin/../lib/gcc/nios2-elf/5.3.0/../../../../../H-x86_64-mingw32/nios2-elf/lib\libc.a(lib_a-atexit.o) (__register_exitproc)
c:/altera/18.1/nios2eds/bin/gnu/h-x86_64-mingw32/bin/../lib/gcc/nios2-elf/5.3.0/../../../../../H-x86_64-mingw32/nios2-elf/lib\libc.a(lib_a-__call_atexit.o)
                              c:/altera/18.1/nios2eds/bin/gnu/h-x86_64-mingw32/bin/../lib/gcc/nios2-elf/5.3.0/../../../../../H-x86_64-mingw32/nios2-elf/lib\libc.a(lib_a-exit.o) (__call_exitprocs)
c:/altera/18.1/nios2eds/bin/gnu/h-x86_64-mingw32/bin/../lib/gcc/nios2-elf/5.3.0/../../../../../H-x86_64-mingw32/nios2-elf/lib\libc.a(lib_a-svfiprintf.o)
                              c:/altera/18.1/nios2eds/bin/gnu/h-x86_64-mingw32/bin/../lib/gcc/nios2-elf/5.3.0/../../../../../H-x86_64-mingw32/nios2-elf/lib\libc.a(lib_a-svfprintf.o) (__ssprint_r)
../FreeRTOS_bsp/\libfreertos_bsp.a(alt_exit.o)
                              c:/altera/18.1/nios2eds/bin/gnu/h-x86_64-mingw32/bin/../lib/gcc/nios2-elf/5.3.0/../../../../../H-x86_64-mingw32/nios2-elf/lib\libc.a(lib_a-exit.o) (_exit)

Allocating common symbols
Common symbol       size              file

alt_irq             0x100             ../FreeRTOS_bsp/\libfreertos_bsp.a(alt_irq_handler.o)
netif_list          0x4               ../FreeRTOS_bsp/\libfreertos_bsp.a(netif.o)
ip_data             0x18              ../FreeRTOS_bsp/\libfreertos_bsp.a(ip.o)
memp_memory_NETBUF_base
                    0x34b             ../FreeRTOS_bsp/\libfreertos_bsp.a(memp.o)
tcp_active_pcbs_changed
                    0x1               ../FreeRTOS_bsp/\libfreertos_bsp.a(tcp.o)
tcp_active_pcbs     0x4               ../FreeRTOS_bsp/\libfreertos_bsp.a(tcp.o)
udp_pcbs            0x4               ../FreeRTOS_bsp/\libfreertos_bsp.a(udp.o)
errno               0x4               c:/altera/18.1/nios2eds/bin/gnu/h-x86_64-mingw32/bin/../lib/gcc/nios2-elf/5.3.0/../../../../../H-x86_64-mingw32/nios2-elf/lib\libc.a(lib_a-int_errno.o)
pmac_groups         0x20              ../FreeRTOS_bsp/\libfreertos_bsp.a(altera_avalon_tse.o)
alt_heapsem         0x4               ../FreeRTOS_bsp/\libfreertos_bsp.a(alt_malloc_lock.o)
memp_memory_TCPIP_MSG_INPKT_base
                    0x203             ../FreeRTOS_bsp/\libfreertos_bsp.a(memp.o)
memp_memory_ARP_QUEUE_base
                    0x7b              ../FreeRTOS_bsp/\libfreertos_bsp.a(memp.o)
tcp_ticks           0x4               ../FreeRTOS_bsp/\libfreertos_bsp.a(tcp.o)
tcp_listen_pcbs     0x4               ../FreeRTOS_bsp/\libfreertos_bsp.a(tcp.o)
memp_memory_RAW_PCB_base
                    0x43              ../FreeRTOS_bsp/\libfreertos_bsp.a(memp.o)
memp_memory_TCP_SEG_base
                    0x143             ../FreeRTOS_bsp/\libfreertos_bsp.a(memp.o)
tse                 0x24              ../FreeRTOS_bsp/\libfreertos_bsp.a(lwip_tse_mac.o)
alt_fd_list_lock    0x4               ../FreeRTOS_bsp/\libfreertos_bsp.a(alt_dev.o)
PingIp              0x4               obj/default/main.o
memp_memory_PBUF_POOL_base
                    0x17f03           ../FreeRTOS_bsp/\libfreertos_bsp.a(memp.o)
pphy_profiles       0x20              ../FreeRTOS_bsp/\libfreertos_bsp.a(altera_avalon_tse.o)
memp_memory_FRAG_PBUF_base
                    0x16b             ../FreeRTOS_bsp/\libfreertos_bsp.a(memp.o)
memp_memory_TCPIP_MSG_API_base
                    0x83              ../FreeRTOS_bsp/\libfreertos_bsp.a(memp.o)
tcp_input_pcb       0x4               ../FreeRTOS_bsp/\libfreertos_bsp.a(tcp_in.o)
dhcp_rx_options_given
                    0x8               ../FreeRTOS_bsp/\libfreertos_bsp.a(dhcp.o)
memp_memory_PBUF_base
                    0x203             ../FreeRTOS_bsp/\libfreertos_bsp.a(memp.o)
tcp_bound_pcbs      0x4               ../FreeRTOS_bsp/\libfreertos_bsp.a(tcp.o)
memp_memory_TCP_PCB_LISTEN_base
                    0x193             ../FreeRTOS_bsp/\libfreertos_bsp.a(memp.o)
memp_memory_REASSDATA_base
                    0xa3              ../FreeRTOS_bsp/\libfreertos_bsp.a(memp.o)
eth_tse             0x4c              obj/default/main.o
memp_memory_UDP_PCB_base
                    0x21f             ../FreeRTOS_bsp/\libfreertos_bsp.a(memp.o)
pbuf_free_ooseq_pending
                    0x1               ../FreeRTOS_bsp/\libfreertos_bsp.a(pbuf.o)
tcp_tw_pcbs         0x4               ../FreeRTOS_bsp/\libfreertos_bsp.a(tcp.o)
memp_memory_NETCONN_base
                    0x7e3             ../FreeRTOS_bsp/\libfreertos_bsp.a(memp.o)
lwip_stats          0x1c0             ../FreeRTOS_bsp/\libfreertos_bsp.a(stats.o)
netif_default       0x4               ../FreeRTOS_bsp/\libfreertos_bsp.a(netif.o)
lwipStaticIp        0x4               obj/default/main.o
dhcp_rx_options_val
                    0x20              ../FreeRTOS_bsp/\libfreertos_bsp.a(dhcp.o)
memp_memory_TCP_PCB_base
                    0xa17             ../FreeRTOS_bsp/\libfreertos_bsp.a(memp.o)
memp_memory_SYS_TIMEOUT_base
                    0xa3              ../FreeRTOS_bsp/\libfreertos_bsp.a(memp.o)
ram_heap            0x8013            ../FreeRTOS_bsp/\libfreertos_bsp.a(mem.o)
alt_envsem          0x4               ../FreeRTOS_bsp/\libfreertos_bsp.a(alt_env_lock.o)

Memory Configuration

Name             Origin             Length             Attributes
reset            0x0000000002000000 0x0000000000000020
sdram_controller_0 0x0000000002000020 0x0000000001ffffe0
tse_descriptor_memory_0 0x0000000004000000 0x0000000000002000
mem_0            0x0000000005020000 0x0000000000020000
*default*        0x0000000000000000 0xffffffffffffffff

Linker script and memory map

LOAD ../FreeRTOS_bsp//obj/HAL/src/crt0.o
LOAD obj/default/main.o
LOAD c:/altera/18.1/nios2eds/bin/gnu/h-x86_64-mingw32/bin/../lib/gcc/nios2-elf/5.3.0/../../../../../H-x86_64-mingw32/nios2-elf/lib\libstdc++.a
LOAD c:/altera/18.1/nios2eds/bin/gnu/h-x86_64-mingw32/bin/../lib/gcc/nios2-elf/5.3.0/../../../../../H-x86_64-mingw32/nios2-elf/lib\libm.a
LOAD c:/altera/18.1/nios2eds/bin/gnu/h-x86_64-mingw32/bin/../lib/gcc/nios2-elf/5.3.0\libgcc.a
START GROUP
LOAD c:/altera/18.1/nios2eds/bin/gnu/h-x86_64-mingw32/bin/../lib/gcc/nios2-elf/5.3.0/../../../../../H-x86_64-mingw32/nios2-elf/lib\libc.a
LOAD c:/altera/18.1/nios2eds/bin/gnu/h-x86_64-mingw32/bin/../lib/gcc/nios2-elf/5.3.0\libgcc.a
LOAD ../FreeRTOS_bsp/\libfreertos_bsp.a
LOAD c:/altera/18.1/nios2eds/bin/gnu/h-x86_64-mingw32/bin/../lib/gcc/nios2-elf/5.3.0/../../../../../H-x86_64-mingw32/nios2-elf/lib\libm.a
END GROUP
LOAD c:/altera/18.1/nios2eds/bin/gnu/h-x86_64-mingw32/bin/../lib/gcc/nios2-elf/5.3.0\libgcc.a
                0x0000000002000000                __alt_mem_sdram_controller_0 = 0x2000000
                0x0000000004000000                __alt_mem_tse_descriptor_memory_0 = 0x4000000
                0x0000000005020000                __alt_mem_mem_0 = 0x5020000

.entry          0x0000000002000000       0x20
 *(.entry)
 .entry         0x0000000002000000       0x20 ../FreeRTOS_bsp//obj/HAL/src/crt0.o
                0x0000000002000000                __reset

.exceptions     0x0000000002000020      0x228
                0x0000000002000020                PROVIDE (__ram_exceptions_start, ABSOLUTE (.))
                0x0000000002000020                . = ALIGN (0x20)
 *(.irq)
 *(.exceptions.entry.label)
 *(.exceptions.entry.user)
 *(.exceptions.entry.ecc_fatal)
 *(.exceptions.entry)
 .exceptions.entry
                0x0000000002000020       0x8c ../FreeRTOS_bsp/\libfreertos_bsp.a(port_asm.o)
 *(.exceptions.irqtest.user)
 *(.exceptions.irqtest)
 .exceptions.irqtest
                0x00000000020000ac       0x14 ../FreeRTOS_bsp/\libfreertos_bsp.a(port_asm.o)
 *(.exceptions.irqhandler.user)
 *(.exceptions.irqhandler)
 .exceptions.irqhandler
                0x00000000020000c0        0x4 ../FreeRTOS_bsp/\libfreertos_bsp.a(port_asm.o)
 *(.exceptions.irqreturn.user)
 *(.exceptions.irqreturn)
 .exceptions.irqreturn
                0x00000000020000c4       0x8c ../FreeRTOS_bsp/\libfreertos_bsp.a(port_asm.o)
                0x00000000020000c4                restore_sp_from_pxCurrentTCB
 *(.exceptions.notirq.label)
 *(.exceptions.notirq.user)
 *(.exceptions.notirq)
 *(.exceptions.soft.user)
 *(.exceptions.soft)
 .exceptions.soft
                0x0000000002000150       0x2c ../FreeRTOS_bsp/\libfreertos_bsp.a(port_asm.o)
 *(.exceptions.unknown.user)
 *(.exceptions.unknown)
 *(.exceptions.exit.label)
 *(.exceptions.exit.user)
 *(.exceptions.exit)
 *(.exceptions)
 .exceptions    0x000000000200017c       0xcc ../FreeRTOS_bsp/\libfreertos_bsp.a(alt_irq_handler.o)
                0x000000000200017c                alt_irq_handler
                0x0000000002000248                PROVIDE (__ram_exceptions_end, ABSOLUTE (.))
                0x0000000002000020                PROVIDE (__flash_exceptions_start, LOADADDR (.exceptions))

.text           0x0000000002000248    0x462b4
                [!provide]                        PROVIDE (stext, ABSOLUTE (.))
 *(.interp)
 *(.hash)
 *(.dynsym)
 *(.dynstr)
 *(.gnu.version)
 *(.gnu.version_d)
 *(.gnu.version_r)
 *(.rel.init)
 *(.rela.init)
 *(.rel.text .rel.text.* .rel.gnu.linkonce.t.*)
 *(.rela.text .rela.text.* .rela.gnu.linkonce.t.*)
 *(.rel.fini)
 *(.rela.fini)
 *(.rel.rodata .rel.rodata.* .rel.gnu.linkonce.r.*)
 *(.rela.rodata .rela.rodata.* .rela.gnu.linkonce.r.*)
 *(.rel.data .rel.data.* .rel.gnu.linkonce.d.*)
 *(.rela.data .rela.data.* .rela.gnu.linkonce.d.*)
 *(.rel.tdata .rel.tdata.* .rel.gnu.linkonce.td.*)
 *(.rela.tdata .rela.tdata.* .rela.gnu.linkonce.td.*)
 *(.rel.tbss .rel.tbss.* .rel.gnu.linkonce.tb.*)
 *(.rela.tbss .rela.tbss.* .rela.gnu.linkonce.tb.*)
 *(.rel.ctors)
 *(.rela.ctors)
 *(.rel.dtors)
 *(.rela.dtors)
 *(.rel.got)
 *(.rela.got)
 *(.rel.sdata .rel.sdata.* .rel.gnu.linkonce.s.*)
 *(.rela.sdata .rela.sdata.* .rela.gnu.linkonce.s.*)
 *(.rel.sbss .rel.sbss.* .rel.gnu.linkonce.sb.*)
 *(.rela.sbss .rela.sbss.* .rela.gnu.linkonce.sb.*)
 *(.rel.sdata2 .rel.sdata2.* .rel.gnu.linkonce.s2.*)
 *(.rela.sdata2 .rela.sdata2.* .rela.gnu.linkonce.s2.*)
 *(.rel.sbss2 .rel.sbss2.* .rel.gnu.linkonce.sb2.*)
 *(.rela.sbss2 .rela.sbss2.* .rela.gnu.linkonce.sb2.*)
 *(.rel.bss .rel.bss.* .rel.gnu.linkonce.b.*)
 *(.rela.bss .rela.bss.* .rela.gnu.linkonce.b.*)
 *(.rel.plt)
 *(.rela.plt)
 *(.rel.dyn)
 *(.init)
 *(.plt)
 *(.text .stub .text.* .gnu.linkonce.t.*)
 .text          0x0000000002000248       0x3c ../FreeRTOS_bsp//obj/HAL/src/crt0.o
                0x0000000002000248                _start
 .text          0x0000000002000284      0x730 obj/default/main.o
                0x0000000002000284                vApplicationMallocFailedHook
                0x00000000020002ac                vApplicationStackOverflowHook
                0x00000000020003d0                InitNetwork
                0x00000000020005e4                xEthernetRun
                0x0000000002000658                get_mac_addr
                0x0000000002000774                get_ip_addr
                0x000000000200082c                get_hostname
                0x0000000002000864                get_iface_name
                0x00000000020008ac                is_interface_active
                0x00000000020008d0                main
                0x0000000002000910                main_thread
 .text          0x00000000020009b4        0x0 c:/altera/18.1/nios2eds/bin/gnu/h-x86_64-mingw32/bin/../lib/gcc/nios2-elf/5.3.0/../../../../../H-x86_64-mingw32/nios2-elf/lib\libc.a(lib_a-printf.o)
 .text._printf_r
                0x00000000020009b4       0x30 c:/altera/18.1/nios2eds/bin/gnu/h-x86_64-mingw32/bin/../lib/gcc/nios2-elf/5.3.0/../../../../../H-x86_64-mingw32/nios2-elf/lib\libc.a(lib_a-printf.o)
                0x00000000020009b4                _printf_r
 .text.printf   0x00000000020009e4       0x3c c:/altera/18.1/nios2eds/bin/gnu/h-x86_64-mingw32/bin/../lib/gcc/nios2-elf/5.3.0/../../../../../H-x86_64-mingw32/nios2-elf/lib\libc.a(lib_a-printf.o)
                0x00000000020009e4                printf
 .text          0x0000000002000a20        0x0 c:/altera/18.1/nios2eds/bin/gnu/h-x86_64-mingw32/bin/../lib/gcc/nios2-elf/5.3.0/../../../../../H-x86_64-mingw32/nios2-elf/lib\libc.a(lib_a-vfprintf.o)
 .text.___vfprintf_internal_r
                0x0000000002000a20     0x21f8 c:/altera/18.1/nios2eds/bin/gnu/h-x86_64-mingw32/bin/../lib/gcc/nios2-elf/5.3.0/../../../../../H-x86_64-mingw32/nios2-elf/lib\libc.a(lib_a-vfprintf.o)
                0x0000000002000a20                ___vfprintf_internal_r
 .text.__vfprintf_internal
                0x0000000002002c18       0x1c c:/altera/18.1/nios2eds/bin/gnu/h-x86_64-mingw32/bin/../lib/gcc/nios2-elf/5.3.0/../../../../../H-x86_64-mingw32/nios2-elf/lib\libc.a(lib_a-vfprintf.o)
                0x0000000002002c18                __vfprintf_internal
 .text.__sbprintf
                0x0000000002002c34       0xbc c:/altera/18.1/nios2eds/bin/gnu/h-x86_64-mingw32/bin/../lib/gcc/nios2-elf/5.3.0/../../../../../H-x86_64-mingw32/nios2-elf/lib\libc.a(lib_a-vfprintf.o)
 .text          0x0000000002002cf0        0x0 c:/altera/18.1/nios2eds/bin/gnu/h-x86_64-mingw32/bin/../lib/gcc/nios2-elf/5.3.0/../../../../../H-x86_64-mingw32/nios2-elf/lib\libc.a(lib_a-wsetup.o)
 .text.__swsetup_r
                0x0000000002002cf0      0x154 c:/altera/18.1/nios2eds/bin/gnu/h-x86_64-mingw32/bin/../lib/gcc/nios2-elf/5.3.0/../../../../../H-x86_64-mingw32/nios2-elf/lib\libc.a(lib_a-wsetup.o)
                0x0000000002002cf0                __swsetup_r
 .text          0x0000000002002e44        0x0 c:/altera/18.1/nios2eds/bin/gnu/h-x86_64-mingw32/bin/../lib/gcc/nios2-elf/5.3.0/../../../../../H-x86_64-mingw32/nios2-elf/lib\libc.a(lib_a-dtoa.o)
 .text.quorem   0x0000000002002e44      0x200 c:/altera/18.1/nios2eds/bin/gnu/h-x86_64-mingw32/bin/../lib/gcc/nios2-elf/5.3.0/../../../../../H-x86_64-mingw32/nios2-elf/lib\libc.a(lib_a-dtoa.o)
 .text._dtoa_r  0x0000000002003044     0x1688 c:/altera/18.1/nios2eds/bin/gnu/h-x86_64-mingw32/bin/../lib/gcc/nios2-elf/5.3.0/../../../../../H-x86_64-mingw32/nios2-elf/lib\libc.a(lib_a-dtoa.o)
                0x0000000002003044                _dtoa_r
 .text          0x00000000020046cc        0x0 c:/altera/18.1/nios2eds/bin/gnu/h-x86_64-mingw32/bin/../lib/gcc/nios2-elf/5.3.0/../../../../../H-x86_64-mingw32/nios2-elf/lib\libc.a(lib_a-fflush.o)
 .text.__sflush_r
                0x00000000020046cc      0x21c c:/altera/18.1/nios2eds/bin/gnu/h-x86_64-mingw32/bin/../lib/gcc/nios2-elf/5.3.0/../../../../../H-x86_64-mingw32/nios2-elf/lib\libc.a(lib_a-fflush.o)
                0x00000000020046cc                __sflush_r
 .text._fflush_r
                0x00000000020048e8       0x5c c:/altera/18.1/nios2eds/bin/gnu/h-x86_64-mingw32/bin/../lib/gcc/nios2-elf/5.3.0/../../../../../H-x86_64-mingw32/nios2-elf/lib\libc.a(lib_a-fflush.o)
                0x00000000020048e8                _fflush_r
 .text.fflush   0x0000000002004944       0x30 c:/altera/18.1/nios2eds/bin/gnu/h-x86_64-mingw32/bin/../lib/gcc/nios2-elf/5.3.0/../../../../../H-x86_64-mingw32/nios2-elf/lib\libc.a(lib_a-fflush.o)
                0x0000000002004944                fflush
 .text          0x0000000002004974        0x0 c:/altera/18.1/nios2eds/bin/gnu/h-x86_64-mingw32/bin/../lib/gcc/nios2-elf/5.3.0/../../../../../H-x86_64-mingw32/nios2-elf/lib\libc.a(lib_a-findfp.o)
 .text.__fp_unlock
                0x0000000002004974        0x8 c:/altera/18.1/nios2eds/bin/gnu/h-x86_64-mingw32/bin/../lib/gcc/nios2-elf/5.3.0/../../../../../H-x86_64-mingw32/nios2-elf/lib\libc.a(lib_a-findfp.o)
 .text._cleanup_r
                0x000000000200497c        0xc c:/altera/18.1/nios2eds/bin/gnu/h-x86_64-mingw32/bin/../lib/gcc/nios2-elf/5.3.0/../../../../../H-x86_64-mingw32/nios2-elf/lib\libc.a(lib_a-findfp.o)
                0x000000000200497c                _cleanup_r
 .text.__sinit.part.1
                0x0000000002004988      0x19c c:/altera/18.1/nios2eds/bin/gnu/h-x86_64-mingw32/bin/../lib/gcc/nios2-elf/5.3.0/../../../../../H-x86_64-mingw32/nios2-elf/lib\libc.a(lib_a-findfp.o)
 .text.__fp_lock
                0x0000000002004b24        0x8 c:/altera/18.1/nios2eds/bin/gnu/h-x86_64-mingw32/bin/../lib/gcc/nios2-elf/5.3.0/../../../../../H-x86_64-mingw32/nios2-elf/lib\libc.a(lib_a-findfp.o)
 .text.__sfmoreglue
                0x0000000002004b2c       0x68 c:/altera/18.1/nios2eds/bin/gnu/h-x86_64-mingw32/bin/../lib/gcc/nios2-elf/5.3.0/../../../../../H-x86_64-mingw32/nios2-elf/lib\libc.a(lib_a-findfp.o)
                0x0000000002004b2c                __sfmoreglue
 .text.__sfp    0x0000000002004b94      0x118 c:/altera/18.1/nios2eds/bin/gnu/h-x86_64-mingw32/bin/../lib/gcc/nios2-elf/5.3.0/../../../../../H-x86_64-mingw32/nios2-elf/lib\libc.a(lib_a-findfp.o)
                0x0000000002004b94                __sfp
 .text._cleanup
                0x0000000002004cac       0x18 c:/altera/18.1/nios2eds/bin/gnu/h-x86_64-mingw32/bin/../lib/gcc/nios2-elf/5.3.0/../../../../../H-x86_64-mingw32/nios2-elf/lib\libc.a(lib_a-findfp.o)
                0x0000000002004cac                _cleanup
 .text.__sinit  0x0000000002004cc4       0x10 c:/altera/18.1/nios2eds/bin/gnu/h-x86_64-mingw32/bin/../lib/gcc/nios2-elf/5.3.0/../../../../../H-x86_64-mingw32/nios2-elf/lib\libc.a(lib_a-findfp.o)
                0x0000000002004cc4                __sinit
 .text.__sfp_lock_acquire
                0x0000000002004cd4        0x4 c:/altera/18.1/nios2eds/bin/gnu/h-x86_64-mingw32/bin/../lib/gcc/nios2-elf/5.3.0/../../../../../H-x86_64-mingw32/nios2-elf/lib\libc.a(lib_a-findfp.o)
                0x0000000002004cd4                __sfp_lock_acquire
 .text.__sfp_lock_release
                0x0000000002004cd8        0x4 c:/altera/18.1/nios2eds/bin/gnu/h-x86_64-mingw32/bin/../lib/gcc/nios2-elf/5.3.0/../../../../../H-x86_64-mingw32/nios2-elf/lib\libc.a(lib_a-findfp.o)
                0x0000000002004cd8                __sfp_lock_release
 .text.__sinit_lock_acquire
                0x0000000002004cdc        0x4 c:/altera/18.1/nios2eds/bin/gnu/h-x86_64-mingw32/bin/../lib/gcc/nios2-elf/5.3.0/../../../../../H-x86_64-mingw32/nios2-elf/lib\libc.a(lib_a-findfp.o)
                0x0000000002004cdc                __sinit_lock_acquire
 .text.__sinit_lock_release
                0x0000000002004ce0        0x4 c:/altera/18.1/nios2eds/bin/gnu/h-x86_64-mingw32/bin/../lib/gcc/nios2-elf/5.3.0/../../../../../H-x86_64-mingw32/nios2-elf/lib\libc.a(lib_a-findfp.o)
                0x0000000002004ce0                __sinit_lock_release
 .text.__fp_lock_all
                0x0000000002004ce4       0x18 c:/altera/18.1/nios2eds/bin/gnu/h-x86_64-mingw32/bin/../lib/gcc/nios2-elf/5.3.0/../../../../../H-x86_64-mingw32/nios2-elf/lib\libc.a(lib_a-findfp.o)
                0x0000000002004ce4                __fp_lock_all
 .text.__fp_unlock_all
                0x0000000002004cfc       0x18 c:/altera/18.1/nios2eds/bin/gnu/h-x86_64-mingw32/bin/../lib/gcc/nios2-elf/5.3.0/../../../../../H-x86_64-mingw32/nios2-elf/lib\libc.a(lib_a-findfp.o)
                0x0000000002004cfc                __fp_unlock_all
 .text          0x0000000002004d14        0x0 c:/altera/18.1/nios2eds/bin/gnu/h-x86_64-mingw32/bin/../lib/gcc/nios2-elf/5.3.0/../../../../../H-x86_64-mingw32/nios2-elf/lib\libc.a(lib_a-freer.o)
 .text._malloc_trim_r
                0x0000000002004d14      0x124 c:/altera/18.1/nios2eds/bin/gnu/h-x86_64-mingw32/bin/../lib/gcc/nios2-elf/5.3.0/../../../../../H-x86_64-mingw32/nios2-elf/lib\libc.a(lib_a-freer.o)
                0x0000000002004d14                _malloc_trim_r
 .text._free_r  0x0000000002004e38      0x310 c:/altera/18.1/nios2eds/bin/gnu/h-x86_64-mingw32/bin/../lib/gcc/nios2-elf/5.3.0/../../../../../H-x86_64-mingw32/nios2-elf/lib\libc.a(lib_a-freer.o)
                0x0000000002004e38                _free_r
 .text          0x0000000002005148        0x0 c:/altera/18.1/nios2eds/bin/gnu/h-x86_64-mingw32/bin/../lib/gcc/nios2-elf/5.3.0/../../../../../H-x86_64-mingw32/nios2-elf/lib\libc.a(lib_a-fwalk.o)
 .text._fwalk   0x0000000002005148       0xc4 c:/altera/18.1/nios2eds/bin/gnu/h-x86_64-mingw32/bin/../lib/gcc/nios2-elf/5.3.0/../../../../../H-x86_64-mingw32/nios2-elf/lib\libc.a(lib_a-fwalk.o)
                0x0000000002005148                _fwalk
 .text._fwalk_reent
                0x000000000200520c       0xc4 c:/altera/18.1/nios2eds/bin/gnu/h-x86_64-mingw32/bin/../lib/gcc/nios2-elf/5.3.0/../../../../../H-x86_64-mingw32/nios2-elf/lib\libc.a(lib_a-fwalk.o)
                0x000000000200520c                _fwalk_reent
 .text          0x00000000020052d0        0x0 c:/altera/18.1/nios2eds/bin/gnu/h-x86_64-mingw32/bin/../lib/gcc/nios2-elf/5.3.0/../../../../../H-x86_64-mingw32/nios2-elf/lib\libc.a(lib_a-impure.o)
 .text          0x00000000020052d0        0x0 c:/altera/18.1/nios2eds/bin/gnu/h-x86_64-mingw32/bin/../lib/gcc/nios2-elf/5.3.0/../../../../../H-x86_64-mingw32/nios2-elf/lib\libc.a(lib_a-locale.o)
 .text._setlocale_r
                0x00000000020052d0       0x7c c:/altera/18.1/nios2eds/bin/gnu/h-x86_64-mingw32/bin/../lib/gcc/nios2-elf/5.3.0/../../../../../H-x86_64-mingw32/nios2-elf/lib\libc.a(lib_a-locale.o)
                0x00000000020052d0                _setlocale_r
 .text.__locale_charset
                0x000000000200534c        0xc c:/altera/18.1/nios2eds/bin/gnu/h-x86_64-mingw32/bin/../lib/gcc/nios2-elf/5.3.0/../../../../../H-x86_64-mingw32/nios2-elf/lib\libc.a(lib_a-locale.o)
                0x000000000200534c                __locale_charset
 .text.__locale_mb_cur_max
                0x0000000002005358       0x10 c:/altera/18.1/nios2eds/bin/gnu/h-x86_64-mingw32/bin/../lib/gcc/nios2-elf/5.3.0/../../../../../H-x86_64-mingw32/nios2-elf/lib\libc.a(lib_a-locale.o)
                0x0000000002005358                __locale_mb_cur_max
 .text.__locale_msgcharset
                0x0000000002005368        0xc c:/altera/18.1/nios2eds/bin/gnu/h-x86_64-mingw32/bin/../lib/gcc/nios2-elf/5.3.0/../../../../../H-x86_64-mingw32/nios2-elf/lib\libc.a(lib_a-locale.o)
                0x0000000002005368                __locale_msgcharset
 .text.__locale_cjk_lang
                0x0000000002005374        0x8 c:/altera/18.1/nios2eds/bin/gnu/h-x86_64-mingw32/bin/../lib/gcc/nios2-elf/5.3.0/../../../../../H-x86_64-mingw32/nios2-elf/lib\libc.a(lib_a-locale.o)
                0x0000000002005374                __locale_cjk_lang
 .text._localeconv_r
                0x000000000200537c        0xc c:/altera/18.1/nios2eds/bin/gnu/h-x86_64-mingw32/bin/../lib/gcc/nios2-elf/5.3.0/../../../../../H-x86_64-mingw32/nios2-elf/lib\libc.a(lib_a-locale.o)
                0x000000000200537c                _localeconv_r
 .text.setlocale
                0x0000000002005388       0x18 c:/altera/18.1/nios2eds/bin/gnu/h-x86_64-mingw32/bin/../lib/gcc/nios2-elf/5.3.0/../../../../../H-x86_64-mingw32/nios2-elf/lib\libc.a(lib_a-locale.o)
                0x0000000002005388                setlocale
 .text.localeconv
                0x00000000020053a0        0xc c:/altera/18.1/nios2eds/bin/gnu/h-x86_64-mingw32/bin/../lib/gcc/nios2-elf/5.3.0/../../../../../H-x86_64-mingw32/nios2-elf/lib\libc.a(lib_a-locale.o)
                0x00000000020053a0                localeconv
 .text          0x00000000020053ac        0x0 c:/altera/18.1/nios2eds/bin/gnu/h-x86_64-mingw32/bin/../lib/gcc/nios2-elf/5.3.0/../../../../../H-x86_64-mingw32/nios2-elf/lib\libc.a(lib_a-makebuf.o)
 .text.__smakebuf_r
                0x00000000020053ac      0x1bc c:/altera/18.1/nios2eds/bin/gnu/h-x86_64-mingw32/bin/../lib/gcc/nios2-elf/5.3.0/../../../../../H-x86_64-mingw32/nios2-elf/lib\libc.a(lib_a-makebuf.o)
                0x00000000020053ac                __smakebuf_r
 .text          0x0000000002005568        0x0 c:/altera/18.1/nios2eds/bin/gnu/h-x86_64-mingw32/bin/../lib/gcc/nios2-elf/5.3.0/../../../../../H-x86_64-mingw32/nios2-elf/lib\libc.a(lib_a-mallocr.o)
 .text._malloc_r
                0x0000000002005568      0x80c c:/altera/18.1/nios2eds/bin/gnu/h-x86_64-mingw32/bin/../lib/gcc/nios2-elf/5.3.0/../../../../../H-x86_64-mingw32/nios2-elf/lib\libc.a(lib_a-mallocr.o)
                0x0000000002005568                _malloc_r
 .text          0x0000000002005d74        0x0 c:/altera/18.1/nios2eds/bin/gnu/h-x86_64-mingw32/bin/../lib/gcc/nios2-elf/5.3.0/../../../../../H-x86_64-mingw32/nios2-elf/lib\libc.a(lib_a-memchr.o)
 .text.memchr   0x0000000002005d74       0xe4 c:/altera/18.1/nios2eds/bin/gnu/h-x86_64-mingw32/bin/../lib/gcc/nios2-elf/5.3.0/../../../../../H-x86_64-mingw32/nios2-elf/lib\libc.a(lib_a-memchr.o)
                0x0000000002005d74                memchr
 .text          0x0000000002005e58        0x0 c:/altera/18.1/nios2eds/bin/gnu/h-x86_64-mingw32/bin/../lib/gcc/nios2-elf/5.3.0/../../../../../H-x86_64-mingw32/nios2-elf/lib\libc.a(lib_a-memcpy.o)
 .text.memcpy   0x0000000002005e58      0x148 c:/altera/18.1/nios2eds/bin/gnu/h-x86_64-mingw32/bin/../lib/gcc/nios2-elf/5.3.0/../../../../../H-x86_64-mingw32/nios2-elf/lib\libc.a(lib_a-memcpy.o)
                0x0000000002005e58                memcpy
 .text          0x0000000002005fa0        0x0 c:/altera/18.1/nios2eds/bin/gnu/h-x86_64-mingw32/bin/../lib/gcc/nios2-elf/5.3.0/../../../../../H-x86_64-mingw32/nios2-elf/lib\libc.a(lib_a-memset.o)
 .text.memset   0x0000000002005fa0      0x128 c:/altera/18.1/nios2eds/bin/gnu/h-x86_64-mingw32/bin/../lib/gcc/nios2-elf/5.3.0/../../../../../H-x86_64-mingw32/nios2-elf/lib\libc.a(lib_a-memset.o)
                0x0000000002005fa0                memset
 .text          0x00000000020060c8        0x0 c:/altera/18.1/nios2eds/bin/gnu/h-x86_64-mingw32/bin/../lib/gcc/nios2-elf/5.3.0/../../../../../H-x86_64-mingw32/nios2-elf/lib\libc.a(lib_a-mprec.o)
 .text._Balloc  0x00000000020060c8       0xa8 c:/altera/18.1/nios2eds/bin/gnu/h-x86_64-mingw32/bin/../lib/gcc/nios2-elf/5.3.0/../../../../../H-x86_64-mingw32/nios2-elf/lib\libc.a(lib_a-mprec.o)
                0x00000000020060c8                _Balloc
 .text._Bfree   0x0000000002006170       0x28 c:/altera/18.1/nios2eds/bin/gnu/h-x86_64-mingw32/bin/../lib/gcc/nios2-elf/5.3.0/../../../../../H-x86_64-mingw32/nios2-elf/lib\libc.a(lib_a-mprec.o)
                0x0000000002006170                _Bfree
 .text.__multadd
                0x0000000002006198      0x120 c:/altera/18.1/nios2eds/bin/gnu/h-x86_64-mingw32/bin/../lib/gcc/nios2-elf/5.3.0/../../../../../H-x86_64-mingw32/nios2-elf/lib\libc.a(lib_a-mprec.o)
                0x0000000002006198                __multadd
 .text.__s2b    0x00000000020062b8      0x104 c:/altera/18.1/nios2eds/bin/gnu/h-x86_64-mingw32/bin/../lib/gcc/nios2-elf/5.3.0/../../../../../H-x86_64-mingw32/nios2-elf/lib\libc.a(lib_a-mprec.o)
                0x00000000020062b8                __s2b
 .text.__hi0bits
                0x00000000020063bc       0x68 c:/altera/18.1/nios2eds/bin/gnu/h-x86_64-mingw32/bin/../lib/gcc/nios2-elf/5.3.0/../../../../../H-x86_64-mingw32/nios2-elf/lib\libc.a(lib_a-mprec.o)
                0x00000000020063bc                __hi0bits
 .text.__lo0bits
                0x0000000002006424       0xb0 c:/altera/18.1/nios2eds/bin/gnu/h-x86_64-mingw32/bin/../lib/gcc/nios2-elf/5.3.0/../../../../../H-x86_64-mingw32/nios2-elf/lib\libc.a(lib_a-mprec.o)
                0x0000000002006424                __lo0bits
 .text.__i2b    0x00000000020064d4       0x3c c:/altera/18.1/nios2eds/bin/gnu/h-x86_64-mingw32/bin/../lib/gcc/nios2-elf/5.3.0/../../../../../H-x86_64-mingw32/nios2-elf/lib\libc.a(lib_a-mprec.o)
                0x00000000020064d4                __i2b
 .text.__multiply
                0x0000000002006510      0x1f8 c:/altera/18.1/nios2eds/bin/gnu/h-x86_64-mingw32/bin/../lib/gcc/nios2-elf/5.3.0/../../../../../H-x86_64-mingw32/nios2-elf/lib\libc.a(lib_a-mprec.o)
                0x0000000002006510                __multiply
 .text.__pow5mult
                0x0000000002006708      0x140 c:/altera/18.1/nios2eds/bin/gnu/h-x86_64-mingw32/bin/../lib/gcc/nios2-elf/5.3.0/../../../../../H-x86_64-mingw32/nios2-elf/lib\libc.a(lib_a-mprec.o)
                0x0000000002006708                __pow5mult
 .text.__lshift
                0x0000000002006848      0x148 c:/altera/18.1/nios2eds/bin/gnu/h-x86_64-mingw32/bin/../lib/gcc/nios2-elf/5.3.0/../../../../../H-x86_64-mingw32/nios2-elf/lib\libc.a(lib_a-mprec.o)
                0x0000000002006848                __lshift
 .text.__mcmp   0x0000000002006990       0x60 c:/altera/18.1/nios2eds/bin/gnu/h-x86_64-mingw32/bin/../lib/gcc/nios2-elf/5.3.0/../../../../../H-x86_64-mingw32/nios2-elf/lib\libc.a(lib_a-mprec.o)
                0x0000000002006990                __mcmp
 .text.__mdiff  0x00000000020069f0      0x1fc c:/altera/18.1/nios2eds/bin/gnu/h-x86_64-mingw32/bin/../lib/gcc/nios2-elf/5.3.0/../../../../../H-x86_64-mingw32/nios2-elf/lib\libc.a(lib_a-mprec.o)
                0x00000000020069f0                __mdiff
 .text.__ulp    0x0000000002006bec       0x64 c:/altera/18.1/nios2eds/bin/gnu/h-x86_64-mingw32/bin/../lib/gcc/nios2-elf/5.3.0/../../../../../H-x86_64-mingw32/nios2-elf/lib\libc.a(lib_a-mprec.o)
                0x0000000002006bec                __ulp
 .text.__b2d    0x0000000002006c50      0x10c c:/altera/18.1/nios2eds/bin/gnu/h-x86_64-mingw32/bin/../lib/gcc/nios2-elf/5.3.0/../../../../../H-x86_64-mingw32/nios2-elf/lib\libc.a(lib_a-mprec.o)
                0x0000000002006c50                __b2d
 .text.__d2b    0x0000000002006d5c      0x14c c:/altera/18.1/nios2eds/bin/gnu/h-x86_64-mingw32/bin/../lib/gcc/nios2-elf/5.3.0/../../../../../H-x86_64-mingw32/nios2-elf/lib\libc.a(lib_a-mprec.o)
                0x0000000002006d5c                __d2b
 .text.__ratio  0x0000000002006ea8       0xa4 c:/altera/18.1/nios2eds/bin/gnu/h-x86_64-mingw32/bin/../lib/gcc/nios2-elf/5.3.0/../../../../../H-x86_64-mingw32/nios2-elf/lib\libc.a(lib_a-mprec.o)
                0x0000000002006ea8                __ratio
 .text._mprec_log10
                0x0000000002006f4c       0x74 c:/altera/18.1/nios2eds/bin/gnu/h-x86_64-mingw32/bin/../lib/gcc/nios2-elf/5.3.0/../../../../../H-x86_64-mingw32/nios2-elf/lib\libc.a(lib_a-mprec.o)
                0x0000000002006f4c                _mprec_log10
 .text.__copybits
                0x0000000002006fc0       0x78 c:/altera/18.1/nios2eds/bin/gnu/h-x86_64-mingw32/bin/../lib/gcc/nios2-elf/5.3.0/../../../../../H-x86_64-mingw32/nios2-elf/lib\libc.a(lib_a-mprec.o)
                0x0000000002006fc0                __copybits
 .text.__any_on
                0x0000000002007038       0x8c c:/altera/18.1/nios2eds/bin/gnu/h-x86_64-mingw32/bin/../lib/gcc/nios2-elf/5.3.0/../../../../../H-x86_64-mingw32/nios2-elf/lib\libc.a(lib_a-mprec.o)
                0x0000000002007038                __any_on
 .text          0x00000000020070c4        0x0 c:/altera/18.1/nios2eds/bin/gnu/h-x86_64-mingw32/bin/../lib/gcc/nios2-elf/5.3.0/../../../../../H-x86_64-mingw32/nios2-elf/lib\libc.a(lib_a-s_fpclassify.o)
 .text.__fpclassifyd
                0x00000000020070c4       0x74 c:/altera/18.1/nios2eds/bin/gnu/h-x86_64-mingw32/bin/../lib/gcc/nios2-elf/5.3.0/../../../../../H-x86_64-mingw32/nios2-elf/lib\libc.a(lib_a-s_fpclassify.o)
                0x00000000020070c4                __fpclassifyd
 .text          0x0000000002007138        0x0 c:/altera/18.1/nios2eds/bin/gnu/h-x86_64-mingw32/bin/../lib/gcc/nios2-elf/5.3.0/../../../../../H-x86_64-mingw32/nios2-elf/lib\libc.a(lib_a-sbrkr.o)
 .text._sbrk_r  0x0000000002007138       0x54 c:/altera/18.1/nios2eds/bin/gnu/h-x86_64-mingw32/bin/../lib/gcc/nios2-elf/5.3.0/../../../../../H-x86_64-mingw32/nios2-elf/lib\libc.a(lib_a-sbrkr.o)
                0x0000000002007138                _sbrk_r
 .text          0x000000000200718c        0x0 c:/altera/18.1/nios2eds/bin/gnu/h-x86_64-mingw32/bin/../lib/gcc/nios2-elf/5.3.0/../../../../../H-x86_64-mingw32/nios2-elf/lib\libc.a(lib_a-stdio.o)
 .text.__sread  0x000000000200718c       0x54 c:/altera/18.1/nios2eds/bin/gnu/h-x86_64-mingw32/bin/../lib/gcc/nios2-elf/5.3.0/../../../../../H-x86_64-mingw32/nios2-elf/lib\libc.a(lib_a-stdio.o)
                0x000000000200718c                __sread
 .text.__seofread
                0x00000000020071e0        0x8 c:/altera/18.1/nios2eds/bin/gnu/h-x86_64-mingw32/bin/../lib/gcc/nios2-elf/5.3.0/../../../../../H-x86_64-mingw32/nios2-elf/lib\libc.a(lib_a-stdio.o)
                0x00000000020071e0                __seofread
 .text.__swrite
                0x00000000020071e8       0x7c c:/altera/18.1/nios2eds/bin/gnu/h-x86_64-mingw32/bin/../lib/gcc/nios2-elf/5.3.0/../../../../../H-x86_64-mingw32/nios2-elf/lib\libc.a(lib_a-stdio.o)
                0x00000000020071e8                __swrite
 .text.__sseek  0x0000000002007264       0x5c c:/altera/18.1/nios2eds/bin/gnu/h-x86_64-mingw32/bin/../lib/gcc/nios2-elf/5.3.0/../../../../../H-x86_64-mingw32/nios2-elf/lib\libc.a(lib_a-stdio.o)
                0x0000000002007264                __sseek
 .text.__sclose
                0x00000000020072c0        0x8 c:/altera/18.1/nios2eds/bin/gnu/h-x86_64-mingw32/bin/../lib/gcc/nios2-elf/5.3.0/../../../../../H-x86_64-mingw32/nios2-elf/lib\libc.a(lib_a-stdio.o)
                0x00000000020072c0                __sclose
 .text          0x00000000020072c8        0x0 c:/altera/18.1/nios2eds/bin/gnu/h-x86_64-mingw32/bin/../lib/gcc/nios2-elf/5.3.0/../../../../../H-x86_64-mingw32/nios2-elf/lib\libc.a(lib_a-strcmp.o)
 .text.strcmp   0x00000000020072c8       0xdc c:/altera/18.1/nios2eds/bin/gnu/h-x86_64-mingw32/bin/../lib/gcc/nios2-elf/5.3.0/../../../../../H-x86_64-mingw32/nios2-elf/lib\libc.a(lib_a-strcmp.o)
                0x00000000020072c8                strcmp
 .text          0x00000000020073a4        0x0 c:/altera/18.1/nios2eds/bin/gnu/h-x86_64-mingw32/bin/../lib/gcc/nios2-elf/5.3.0/../../../../../H-x86_64-mingw32/nios2-elf/lib\libc.a(lib_a-strlen.o)
 .text.strlen   0x00000000020073a4       0x98 c:/altera/18.1/nios2eds/bin/gnu/h-x86_64-mingw32/bin/../lib/gcc/nios2-elf/5.3.0/../../../../../H-x86_64-mingw32/nios2-elf/lib\libc.a(lib_a-strlen.o)
                0x00000000020073a4                strlen
 .text          0x000000000200743c        0x0 c:/altera/18.1/nios2eds/bin/gnu/h-x86_64-mingw32/bin/../lib/gcc/nios2-elf/5.3.0/../../../../../H-x86_64-mingw32/nios2-elf/lib\libc.a(lib_a-vfiprintf.o)
 .text.__sprint_r.part.0
                0x000000000200743c       0xfc c:/altera/18.1/nios2eds/bin/gnu/h-x86_64-mingw32/bin/../lib/gcc/nios2-elf/5.3.0/../../../../../H-x86_64-mingw32/nios2-elf/lib\libc.a(lib_a-vfiprintf.o)
 .text.__sprint_r
                0x0000000002007538       0x18 c:/altera/18.1/nios2eds/bin/gnu/h-x86_64-mingw32/bin/../lib/gcc/nios2-elf/5.3.0/../../../../../H-x86_64-mingw32/nios2-elf/lib\libc.a(lib_a-vfiprintf.o)
                0x0000000002007538                __sprint_r
 .text.___vfiprintf_internal_r
                0x0000000002007550     0x145c c:/altera/18.1/nios2eds/bin/gnu/h-x86_64-mingw32/bin/../lib/gcc/nios2-elf/5.3.0/../../../../../H-x86_64-mingw32/nios2-elf/lib\libc.a(lib_a-vfiprintf.o)
                0x0000000002007550                ___vfiprintf_internal_r
 .text.__vfiprintf_internal
                0x00000000020089ac       0x1c c:/altera/18.1/nios2eds/bin/gnu/h-x86_64-mingw32/bin/../lib/gcc/nios2-elf/5.3.0/../../../../../H-x86_64-mingw32/nios2-elf/lib\libc.a(lib_a-vfiprintf.o)
                0x00000000020089ac                __vfiprintf_internal
 .text.__sbprintf
                0x00000000020089c8       0xbc c:/altera/18.1/nios2eds/bin/gnu/h-x86_64-mingw32/bin/../lib/gcc/nios2-elf/5.3.0/../../../../../H-x86_64-mingw32/nios2-elf/lib\libc.a(lib_a-vfiprintf.o)
 .text          0x0000000002008a84        0x0 c:/altera/18.1/nios2eds/bin/gnu/h-x86_64-mingw32/bin/../lib/gcc/nios2-elf/5.3.0/../../../../../H-x86_64-mingw32/nios2-elf/lib\libc.a(lib_a-writer.o)
 .text._write_r
                0x0000000002008a84       0x60 c:/altera/18.1/nios2eds/bin/gnu/h-x86_64-mingw32/bin/../lib/gcc/nios2-elf/5.3.0/../../../../../H-x86_64-mingw32/nios2-elf/lib\libc.a(lib_a-writer.o)
                0x0000000002008a84                _write_r
 .text          0x0000000002008ae4        0x0 c:/altera/18.1/nios2eds/bin/gnu/h-x86_64-mingw32/bin/../lib/gcc/nios2-elf/5.3.0/../../../../../H-x86_64-mingw32/nios2-elf/lib\libc.a(closer.o)
 .text._close_r
                0x0000000002008ae4       0x54 c:/altera/18.1/nios2eds/bin/gnu/h-x86_64-mingw32/bin/../lib/gcc/nios2-elf/5.3.0/../../../../../H-x86_64-mingw32/nios2-elf/lib\libc.a(closer.o)
                0x0000000002008ae4                _close_r
 .text          0x0000000002008b38        0x0 c:/altera/18.1/nios2eds/bin/gnu/h-x86_64-mingw32/bin/../lib/gcc/nios2-elf/5.3.0/../../../../../H-x86_64-mingw32/nios2-elf/lib\libc.a(lib_a-callocr.o)
 .text._calloc_r
                0x0000000002008b38       0xc4 c:/altera/18.1/nios2eds/bin/gnu/h-x86_64-mingw32/bin/../lib/gcc/nios2-elf/5.3.0/../../../../../H-x86_64-mingw32/nios2-elf/lib\libc.a(lib_a-callocr.o)
                0x0000000002008b38                _calloc_r
 .text          0x0000000002008bfc        0x0 c:/altera/18.1/nios2eds/bin/gnu/h-x86_64-mingw32/bin/../lib/gcc/nios2-elf/5.3.0/../../../../../H-x86_64-mingw32/nios2-elf/lib\libc.a(lib_a-fclose.o)
 .text._fclose_r
                0x0000000002008bfc       0xf0 c:/altera/18.1/nios2eds/bin/gnu/h-x86_64-mingw32/bin/../lib/gcc/nios2-elf/5.3.0/../../../../../H-x86_64-mingw32/nios2-elf/lib\libc.a(lib_a-fclose.o)
                0x0000000002008bfc                _fclose_r
 .text.fclose   0x0000000002008cec       0x14 c:/altera/18.1/nios2eds/bin/gnu/h-x86_64-mingw32/bin/../lib/gcc/nios2-elf/5.3.0/../../../../../H-x86_64-mingw32/nios2-elf/lib\libc.a(lib_a-fclose.o)
                0x0000000002008cec                fclose
 .text          0x0000000002008d00        0x0 c:/altera/18.1/nios2eds/bin/gnu/h-x86_64-mingw32/bin/../lib/gcc/nios2-elf/5.3.0/../../../../../H-x86_64-mingw32/nios2-elf/lib\libc.a(lib_a-fputwc.o)
 .text.__fputwc
                0x0000000002008d00      0x164 c:/altera/18.1/nios2eds/bin/gnu/h-x86_64-mingw32/bin/../lib/gcc/nios2-elf/5.3.0/../../../../../H-x86_64-mingw32/nios2-elf/lib\libc.a(lib_a-fputwc.o)
                0x0000000002008d00                __fputwc
 .text._fputwc_r
                0x0000000002008e64       0x24 c:/altera/18.1/nios2eds/bin/gnu/h-x86_64-mingw32/bin/../lib/gcc/nios2-elf/5.3.0/../../../../../H-x86_64-mingw32/nios2-elf/lib\libc.a(lib_a-fputwc.o)
                0x0000000002008e64                _fputwc_r
 .text.fputwc   0x0000000002008e88       0x80 c:/altera/18.1/nios2eds/bin/gnu/h-x86_64-mingw32/bin/../lib/gcc/nios2-elf/5.3.0/../../../../../H-x86_64-mingw32/nios2-elf/lib\libc.a(lib_a-fputwc.o)
                0x0000000002008e88                fputwc
 .text          0x0000000002008f08        0x0 c:/altera/18.1/nios2eds/bin/gnu/h-x86_64-mingw32/bin/../lib/gcc/nios2-elf/5.3.0/../../../../../H-x86_64-mingw32/nios2-elf/lib\libc.a(lib_a-fstatr.o)
 .text._fstat_r
                0x0000000002008f08       0x5c c:/altera/18.1/nios2eds/bin/gnu/h-x86_64-mingw32/bin/../lib/gcc/nios2-elf/5.3.0/../../../../../H-x86_64-mingw32/nios2-elf/lib\libc.a(lib_a-fstatr.o)
                0x0000000002008f08                _fstat_r
 .text          0x0000000002008f64        0x0 c:/altera/18.1/nios2eds/bin/gnu/h-x86_64-mingw32/bin/../lib/gcc/nios2-elf/5.3.0/../../../../../H-x86_64-mingw32/nios2-elf/lib\libc.a(lib_a-fvwrite.o)
 .text.__sfvwrite_r
                0x0000000002008f64      0x4bc c:/altera/18.1/nios2eds/bin/gnu/h-x86_64-mingw32/bin/../lib/gcc/nios2-elf/5.3.0/../../../../../H-x86_64-mingw32/nios2-elf/lib\libc.a(lib_a-fvwrite.o)
                0x0000000002008f64                __sfvwrite_r
 .text          0x0000000002009420        0x0 c:/altera/18.1/nios2eds/bin/gnu/h-x86_64-mingw32/bin/../lib/gcc/nios2-elf/5.3.0/../../../../../H-x86_64-mingw32/nios2-elf/lib\libc.a(lib_a-int_errno.o)
 .text          0x0000000002009420        0x0 c:/altera/18.1/nios2eds/bin/gnu/h-x86_64-mingw32/bin/../lib/gcc/nios2-elf/5.3.0/../../../../../H-x86_64-mingw32/nios2-elf/lib\libc.a(lib_a-isattyr.o)
 .text._isatty_r
                0x0000000002009420       0x54 c:/altera/18.1/nios2eds/bin/gnu/h-x86_64-mingw32/bin/../lib/gcc/nios2-elf/5.3.0/../../../../../H-x86_64-mingw32/nios2-elf/lib\libc.a(lib_a-isattyr.o)
                0x0000000002009420                _isatty_r
 .text          0x0000000002009474        0x0 c:/altera/18.1/nios2eds/bin/gnu/h-x86_64-mingw32/bin/../lib/gcc/nios2-elf/5.3.0/../../../../../H-x86_64-mingw32/nios2-elf/lib\libc.a(lib_a-lseekr.o)
 .text._lseek_r
                0x0000000002009474       0x60 c:/altera/18.1/nios2eds/bin/gnu/h-x86_64-mingw32/bin/../lib/gcc/nios2-elf/5.3.0/../../../../../H-x86_64-mingw32/nios2-elf/lib\libc.a(lib_a-lseekr.o)
                0x0000000002009474                _lseek_r
 .text          0x00000000020094d4        0x0 c:/altera/18.1/nios2eds/bin/gnu/h-x86_64-mingw32/bin/../lib/gcc/nios2-elf/5.3.0/../../../../../H-x86_64-mingw32/nios2-elf/lib\libc.a(lib_a-memmove.o)
 .text.memmove  0x00000000020094d4      0x15c c:/altera/18.1/nios2eds/bin/gnu/h-x86_64-mingw32/bin/../lib/gcc/nios2-elf/5.3.0/../../../../../H-x86_64-mingw32/nios2-elf/lib\libc.a(lib_a-memmove.o)
                0x00000000020094d4                memmove
 .text          0x0000000002009630        0x0 c:/altera/18.1/nios2eds/bin/gnu/h-x86_64-mingw32/bin/../lib/gcc/nios2-elf/5.3.0/../../../../../H-x86_64-mingw32/nios2-elf/lib\libc.a(lib_a-readr.o)
 .text._read_r  0x0000000002009630       0x60 c:/altera/18.1/nios2eds/bin/gnu/h-x86_64-mingw32/bin/../lib/gcc/nios2-elf/5.3.0/../../../../../H-x86_64-mingw32/nios2-elf/lib\libc.a(lib_a-readr.o)
                0x0000000002009630                _read_r
 .text          0x0000000002009690        0x0 c:/altera/18.1/nios2eds/bin/gnu/h-x86_64-mingw32/bin/../lib/gcc/nios2-elf/5.3.0/../../../../../H-x86_64-mingw32/nios2-elf/lib\libc.a(lib_a-reallocr.o)
 .text._realloc_r
                0x0000000002009690      0x564 c:/altera/18.1/nios2eds/bin/gnu/h-x86_64-mingw32/bin/../lib/gcc/nios2-elf/5.3.0/../../../../../H-x86_64-mingw32/nios2-elf/lib\libc.a(lib_a-reallocr.o)
                0x0000000002009690                _realloc_r
 .text          0x0000000002009bf4        0x0 c:/altera/18.1/nios2eds/bin/gnu/h-x86_64-mingw32/bin/../lib/gcc/nios2-elf/5.3.0/../../../../../H-x86_64-mingw32/nios2-elf/lib\libc.a(lib_a-wbuf.o)
 .text.__swbuf_r
                0x0000000002009bf4      0x140 c:/altera/18.1/nios2eds/bin/gnu/h-x86_64-mingw32/bin/../lib/gcc/nios2-elf/5.3.0/../../../../../H-x86_64-mingw32/nios2-elf/lib\libc.a(lib_a-wbuf.o)
                0x0000000002009bf4                __swbuf_r
 .text.__swbuf  0x0000000002009d34       0x18 c:/altera/18.1/nios2eds/bin/gnu/h-x86_64-mingw32/bin/../lib/gcc/nios2-elf/5.3.0/../../../../../H-x86_64-mingw32/nios2-elf/lib\libc.a(lib_a-wbuf.o)
                0x0000000002009d34                __swbuf
 .text          0x0000000002009d4c        0x0 c:/altera/18.1/nios2eds/bin/gnu/h-x86_64-mingw32/bin/../lib/gcc/nios2-elf/5.3.0/../../../../../H-x86_64-mingw32/nios2-elf/lib\libc.a(lib_a-wcrtomb.o)
 .text._wcrtomb_r
                0x0000000002009d4c       0x9c c:/altera/18.1/nios2eds/bin/gnu/h-x86_64-mingw32/bin/../lib/gcc/nios2-elf/5.3.0/../../../../../H-x86_64-mingw32/nios2-elf/lib\libc.a(lib_a-wcrtomb.o)
                0x0000000002009d4c                _wcrtomb_r
 .text.wcrtomb  0x0000000002009de8       0xc0 c:/altera/18.1/nios2eds/bin/gnu/h-x86_64-mingw32/bin/../lib/gcc/nios2-elf/5.3.0/../../../../../H-x86_64-mingw32/nios2-elf/lib\libc.a(lib_a-wcrtomb.o)
                0x0000000002009de8                wcrtomb
 .text          0x0000000002009ea8        0x0 c:/altera/18.1/nios2eds/bin/gnu/h-x86_64-mingw32/bin/../lib/gcc/nios2-elf/5.3.0/../../../../../H-x86_64-mingw32/nios2-elf/lib\libc.a(lib_a-wctomb_r.o)
 .text.__ascii_wctomb
                0x0000000002009ea8       0x30 c:/altera/18.1/nios2eds/bin/gnu/h-x86_64-mingw32/bin/../lib/gcc/nios2-elf/5.3.0/../../../../../H-x86_64-mingw32/nios2-elf/lib\libc.a(lib_a-wctomb_r.o)
                0x0000000002009ea8                __ascii_wctomb
 .text._wctomb_r
                0x0000000002009ed8       0x5c c:/altera/18.1/nios2eds/bin/gnu/h-x86_64-mingw32/bin/../lib/gcc/nios2-elf/5.3.0/../../../../../H-x86_64-mingw32/nios2-elf/lib\libc.a(lib_a-wctomb_r.o)
                0x0000000002009ed8                _wctomb_r
 .text          0x0000000002009f34      0x578 c:/altera/18.1/nios2eds/bin/gnu/h-x86_64-mingw32/bin/../lib/gcc/nios2-elf/5.3.0\libgcc.a(_udivdi3.o)
                0x0000000002009f34                __udivdi3
 .text          0x000000000200a4ac      0x538 c:/altera/18.1/nios2eds/bin/gnu/h-x86_64-mingw32/bin/../lib/gcc/nios2-elf/5.3.0\libgcc.a(_umoddi3.o)
                0x000000000200a4ac                __umoddi3
 .text          0x000000000200a9e4      0x1b4 c:/altera/18.1/nios2eds/bin/gnu/h-x86_64-mingw32/bin/../lib/gcc/nios2-elf/5.3.0\libgcc.a(lib2-divmod.o)
                0x000000000200a9e4                __divsi3
                0x000000000200aa68                __modsi3
                0x000000000200aadc                __udivsi3
                0x000000000200ab40                __umodsi3
 .text          0x000000000200ab98      0x8ac c:/altera/18.1/nios2eds/bin/gnu/h-x86_64-mingw32/bin/../lib/gcc/nios2-elf/5.3.0\libgcc.a(adddf3.o)
                0x000000000200ab98                __adddf3
 .text          0x000000000200b444      0x8e8 c:/altera/18.1/nios2eds/bin/gnu/h-x86_64-mingw32/bin/../lib/gcc/nios2-elf/5.3.0\libgcc.a(divdf3.o)
                0x000000000200b444                __divdf3
 .text          0x000000000200bd2c       0x88 c:/altera/18.1/nios2eds/bin/gnu/h-x86_64-mingw32/bin/../lib/gcc/nios2-elf/5.3.0\libgcc.a(eqdf2.o)
                0x000000000200bd2c                __nedf2
                0x000000000200bd2c                __eqdf2
 .text          0x000000000200bdb4       0xdc c:/altera/18.1/nios2eds/bin/gnu/h-x86_64-mingw32/bin/../lib/gcc/nios2-elf/5.3.0\libgcc.a(gedf2.o)
                0x000000000200bdb4                __gedf2
                0x000000000200bdb4                __gtdf2
 .text          0x000000000200be90       0xf4 c:/altera/18.1/nios2eds/bin/gnu/h-x86_64-mingw32/bin/../lib/gcc/nios2-elf/5.3.0\libgcc.a(ledf2.o)
                0x000000000200be90                __ledf2
                0x000000000200be90                __ltdf2
 .text          0x000000000200bf84      0x718 c:/altera/18.1/nios2eds/bin/gnu/h-x86_64-mingw32/bin/../lib/gcc/nios2-elf/5.3.0\libgcc.a(muldf3.o)
                0x000000000200bf84                __muldf3
 .text          0x000000000200c69c      0x8fc c:/altera/18.1/nios2eds/bin/gnu/h-x86_64-mingw32/bin/../lib/gcc/nios2-elf/5.3.0\libgcc.a(subdf3.o)
                0x000000000200c69c                __subdf3
 .text          0x000000000200cf98       0x80 c:/altera/18.1/nios2eds/bin/gnu/h-x86_64-mingw32/bin/../lib/gcc/nios2-elf/5.3.0\libgcc.a(fixdfsi.o)
                0x000000000200cf98                __fixdfsi
 .text          0x000000000200d018       0xdc c:/altera/18.1/nios2eds/bin/gnu/h-x86_64-mingw32/bin/../lib/gcc/nios2-elf/5.3.0\libgcc.a(floatsidf.o)
                0x000000000200d018                __floatsidf
 .text          0x000000000200d0f4       0xa8 c:/altera/18.1/nios2eds/bin/gnu/h-x86_64-mingw32/bin/../lib/gcc/nios2-elf/5.3.0\libgcc.a(floatunsidf.o)
                0x000000000200d0f4                __floatunsidf
 .text          0x000000000200d19c        0x0 c:/altera/18.1/nios2eds/bin/gnu/h-x86_64-mingw32/bin/../lib/gcc/nios2-elf/5.3.0\libgcc.a(_clz.o)
 .text          0x000000000200d19c       0x64 c:/altera/18.1/nios2eds/bin/gnu/h-x86_64-mingw32/bin/../lib/gcc/nios2-elf/5.3.0\libgcc.a(_clzsi2.o)
                0x000000000200d19c                __clzsi2
 .text          0x000000000200d200      0x118 ../FreeRTOS_bsp/\libfreertos_bsp.a(alt_main.o)
                0x000000000200d200                pre_constructors
                0x000000000200d220                post_constructors
                0x000000000200d240                alt_main
 .text          0x000000000200d318       0xa4 ../FreeRTOS_bsp/\libfreertos_bsp.a(alt_malloc_lock.o)
                0x000000000200d318                __malloc_lock
                0x000000000200d378                __malloc_unlock
 .text          0x000000000200d3bc     0x1718 ../FreeRTOS_bsp/\libfreertos_bsp.a(queue.o)
                0x000000000200d3bc                xQueueGenericReset
                0x000000000200d4e0                xQueueGenericCreate
                0x000000000200d668                xQueueCreateMutex
                0x000000000200d6c4                xQueueGiveMutexRecursive
                0x000000000200d754                xQueueTakeMutexRecursive
                0x000000000200d7f0                xQueueCreateCountingSemaphore
                0x000000000200d848                xQueueGenericSend
                0x000000000200da2c                xQueueGenericSendFromISR
                0x000000000200db20                xQueueGiveFromISR
                0x000000000200dbfc                xQueueReceive
                0x000000000200ddd4                xQueueSemaphoreTake
                0x000000000200e034                xQueuePeek
                0x000000000200e214                xQueueReceiveFromISR
                0x000000000200e2f8                xQueuePeekFromISR
                0x000000000200e374                uxQueueMessagesWaiting
                0x000000000200e3c4                uxQueueSpacesAvailable
                0x000000000200e428                uxQueueMessagesWaitingFromISR
                0x000000000200e460                vQueueDelete
                0x000000000200e49c                uxQueueGetQueueNumber
                0x000000000200e4c4                vQueueSetQueueNumber
                0x000000000200e4f8                ucQueueGetQueueType
                0x000000000200e90c                xQueueIsQueueEmptyFromISR
                0x000000000200e9bc                xQueueIsQueueFullFromISR
                0x000000000200ea0c                vQueueWaitForMessageRestricted
 .text          0x000000000200ead4     0x2cd0 ../FreeRTOS_bsp/\libfreertos_bsp.a(tasks.o)
                0x000000000200ead4                xTaskCreate
                0x000000000200eeb0                vTaskDelete
                0x000000000200efa8                vTaskDelayUntil
                0x000000000200f098                vTaskDelay
                0x000000000200f0f4                eTaskGetState
                0x000000000200f214                uxTaskPriorityGet
                0x000000000200f27c                uxTaskPriorityGetFromISR
                0x000000000200f2c8                vTaskPrioritySet
                0x000000000200f47c                vTaskSuspend
                0x000000000200f604                vTaskResume
                0x000000000200f6e0                xTaskResumeFromISR
                0x000000000200f7c0                vTaskStartScheduler
                0x000000000200f850                vTaskEndScheduler
                0x000000000200f884                vTaskSuspendAll
                0x000000000200f8b0                xTaskResumeAll
                0x000000000200fa18                xTaskGetTickCount
                0x000000000200fa40                xTaskGetTickCountFromISR
                0x000000000200fa6c                uxTaskGetNumberOfTasks
                0x000000000200fa8c                pcTaskGetName
                0x000000000200facc                uxTaskGetSystemState
                0x000000000200fc54                xTaskCatchUpTicks
                0x000000000200fca0                xTaskIncrementTick
                0x000000000200fe50                vTaskSwitchContext
                0x000000000200ffac                vTaskPlaceOnEventList
                0x000000000200fffc                vTaskPlaceOnUnorderedEventList
                0x0000000002010060                vTaskPlaceOnEventListRestricted
                0x00000000020100c4                xTaskRemoveFromEventList
                0x00000000020101b8                vTaskRemoveFromUnorderedEventList
                0x0000000002010280                vTaskSetTimeOutState
                0x00000000020102dc                vTaskInternalSetTimeOutState
                0x0000000002010318                xTaskCheckForTimeOut
                0x0000000002010408                vTaskMissedYield
                0x0000000002010430                uxTaskGetTaskNumber
                0x0000000002010478                vTaskSetTaskNumber
                0x0000000002010620                vTaskGetInfo
                0x0000000002010904                uxTaskGetStackHighWaterMark
                0x00000000020109f8                xTaskGetCurrentTaskHandle
                0x0000000002010a20                xTaskGetSchedulerState
                0x0000000002010a6c                xTaskPriorityInherit
                0x0000000002010bac                xTaskPriorityDisinherit
                0x0000000002010ca8                vTaskPriorityDisinheritAfterTimeout
                0x0000000002010de8                vTaskEnterCritical
                0x0000000002010e30                vTaskExitCritical
                0x0000000002010e8c                uxTaskResetEventItemValue
                0x0000000002010ed0                pvTaskIncrementMutexHeldCount
                0x0000000002010f08                ulTaskNotifyTake
                0x0000000002010fd8                xTaskNotifyWait
                0x00000000020110ec                xTaskGenericNotify
                0x00000000020112a8                xTaskGenericNotifyFromISR
                0x000000000201148c                vTaskNotifyGiveFromISR
                0x00000000020115ac                xTaskNotifyStateClear
                0x0000000002011634                ulTaskNotifyValueClear
 .text          0x00000000020117a4      0xcd4 ../FreeRTOS_bsp/\libfreertos_bsp.a(timers.o)
                0x00000000020117a4                xTimerCreateTimerTask
                0x000000000201180c                xTimerCreate
                0x0000000002011928                xTimerGenericCommand
                0x0000000002011a04                xTimerGetTimerDaemonTaskHandle
                0x0000000002011a24                xTimerGetPeriod
                0x0000000002011a54                vTimerSetReloadMode
                0x0000000002011ae4                uxTimerGetReloadMode
                0x0000000002011b54                xTimerGetExpiryTime
                0x0000000002011b8c                pcTimerGetName
                0x00000000020122f8                xTimerIsTimerActive
                0x0000000002012368                pvTimerGetTimerID
                0x00000000020123c0                vTimerSetTimerID
                0x000000000201241c                uxTimerGetTimerNumber
                0x0000000002012444                vTimerSetTimerNumber
 .text          0x0000000002012478       0x2c ../FreeRTOS_bsp/\libfreertos_bsp.a(alt_dev.o)
 .text          0x00000000020124a4       0x60 ../FreeRTOS_bsp/\libfreertos_bsp.a(alt_do_ctors.o)
                0x00000000020124a4                _do_ctors
 .text          0x0000000002012504       0x60 ../FreeRTOS_bsp/\libfreertos_bsp.a(alt_do_dtors.o)
                0x0000000002012504                _do_dtors
 .text          0x0000000002012564       0xec ../FreeRTOS_bsp/\libfreertos_bsp.a(alt_fstat.o)
                0x00000000020125a0                fstat
 .text          0x0000000002012650      0x140 ../FreeRTOS_bsp/\libfreertos_bsp.a(alt_io_redirect.o)
                0x0000000002012714                alt_io_redirect
 .text          0x0000000002012790       0xe0 ../FreeRTOS_bsp/\libfreertos_bsp.a(alt_isatty.o)
                0x00000000020127cc                isatty
 .text          0x0000000002012870       0xec ../FreeRTOS_bsp/\libfreertos_bsp.a(alt_load.o)
                0x00000000020128d8                alt_load
 .text          0x000000000201295c      0x110 ../FreeRTOS_bsp/\libfreertos_bsp.a(alt_lseek.o)
                0x0000000002012998                lseek
 .text          0x0000000002012a6c      0x254 ../FreeRTOS_bsp/\libfreertos_bsp.a(alt_open.o)
                0x0000000002012b6c                open
 .text          0x0000000002012cc0      0x22c ../FreeRTOS_bsp/\libfreertos_bsp.a(alt_printf.o)
                0x0000000002012cc0                alt_printf
 .text          0x0000000002012eec       0x3c ../FreeRTOS_bsp/\libfreertos_bsp.a(alt_putchar.o)
                0x0000000002012eec                alt_putchar
 .text          0x0000000002012f28       0x64 ../FreeRTOS_bsp/\libfreertos_bsp.a(alt_release_fd.o)
                0x0000000002012f28                alt_release_fd
 .text          0x0000000002012f8c       0xb0 ../FreeRTOS_bsp/\libfreertos_bsp.a(alt_sbrk.o)
                0x0000000002012f8c                sbrk
 .text          0x000000000201303c       0x48 ../FreeRTOS_bsp/\libfreertos_bsp.a(alt_lwip_close.o)
                0x000000000201303c                close
 .text          0x0000000002013084       0x6c ../FreeRTOS_bsp/\libfreertos_bsp.a(alt_lwip_read.o)
                0x0000000002013084                read
 .text          0x00000000020130f0       0x64 ../FreeRTOS_bsp/\libfreertos_bsp.a(alt_lwip_write.o)
                0x00000000020130f0                write
 .text          0x0000000002013154      0x474 ../FreeRTOS_bsp/\libfreertos_bsp.a(altera_tse_ethernetif.o)
                0x000000000201331c                ethernetif_input
                0x0000000002013418                ethernetif_init
 .text          0x00000000020135c8      0x9d4 ../FreeRTOS_bsp/\libfreertos_bsp.a(lwip_main.o)
                0x00000000020135c8                lwip_initialize
                0x00000000020136dc                lwip_wait_for_an
                0x00000000020139b4                get_mac_count
                0x00000000020139d4                get_mac_base
                0x0000000002013a20                get_netif
                0x0000000002013a68                lwip_set_status_callback
                0x0000000002013a9c                lwip_set_link_callback
                0x0000000002013ad0                lwip_is_interface_up
                0x0000000002013cb4                print_ipad
                0x0000000002013dac                lwip_initialize_phys
 .text          0x0000000002013f9c      0xce0 ../FreeRTOS_bsp/\libfreertos_bsp.a(lwip_tse_mac.o)
                0x0000000002013f9c                tse_mac_init
                0x0000000002014814                tse_sgdma_read_init
                0x00000000020148b8                tse_sgdma_rx_isr
                0x000000000201494c                tse_mac_raw_send
                0x0000000002014aac                tse_mac_rcv
 .text          0x0000000002014c7c      0x918 ../FreeRTOS_bsp/\libfreertos_bsp.a(sys_arch.o)
                0x0000000002014c7c                sys_init
                0x0000000002014c9c                sys_now
                0x0000000002014cc4                sys_jiffies
                0x0000000002014cec                sys_arch_protect
                0x0000000002014d20                sys_arch_unprotect
                0x0000000002014d58                sys_arch_msleep
                0x0000000002014d94                sys_mutex_new
                0x0000000002014e54                sys_mutex_lock
                0x0000000002014e98                sys_mutex_unlock
                0x0000000002014ed8                sys_mutex_free
                0x0000000002014f38                sys_sem_new
                0x0000000002015034                sys_sem_signal
                0x0000000002015080                sys_arch_sem_wait
                0x0000000002015104                sys_sem_free
                0x0000000002015164                sys_mbox_new
                0x0000000002015234                sys_mbox_post
                0x0000000002015288                sys_mbox_trypost
                0x000000000201530c                sys_mbox_trypost_fromisr
                0x00000000020153ac                sys_arch_mbox_fetch
                0x0000000002015454                sys_arch_mbox_tryfetch
                0x00000000020154c8                sys_mbox_free
                0x0000000002015520                sys_thread_new
 .text          0x0000000002015594     0x3298 ../FreeRTOS_bsp/\libfreertos_bsp.a(dhcp.o)
                0x0000000002015bf0                dhcp_coarse_tmr
                0x0000000002015d30                dhcp_fine_tmr
                0x0000000002016224                dhcp_set_struct
                0x0000000002016270                dhcp_cleanup
                0x00000000020162c0                dhcp_start
                0x0000000002016428                dhcp_inform
                0x0000000002016578                dhcp_network_changed_link_up
                0x0000000002016c48                dhcp_renew
                0x0000000002017364                dhcp_release_and_stop
                0x000000000201757c                dhcp_release
                0x00000000020175b0                dhcp_stop
                0x000000000201879c                dhcp_supplied_address
 .text          0x000000000201882c     0x19e4 ../FreeRTOS_bsp/\libfreertos_bsp.a(etharp.o)
                0x0000000002018930                etharp_tmr
                0x000000000201909c                etharp_cleanup_netif
                0x000000000201913c                etharp_find_addr
                0x0000000002019200                etharp_get_entry
                0x00000000020192d0                etharp_input
                0x0000000002019710                etharp_output
                0x0000000002019a18                etharp_query
                0x000000000201a0f4                etharp_request
                0x000000000201a130                etharp_acd_probe
                0x000000000201a1a0                etharp_acd_announce
 .text          0x000000000201a210      0x79c ../FreeRTOS_bsp/\libfreertos_bsp.a(ip4_addr.o)
                0x000000000201a210                ip4_addr_isbroadcast_u32
                0x000000000201a2f0                ip4_addr_netmask_valid
                0x000000000201a390                ipaddr_addr
                0x000000000201a3d4                ip4addr_aton
                0x000000000201a7dc                ip4addr_ntoa
                0x000000000201a818                ip4addr_ntoa_r
 .text          0x000000000201a9ac      0xbf8 ../FreeRTOS_bsp/\libfreertos_bsp.a(mem.o)
                0x000000000201ab68                mem_init
                0x000000000201acfc                mem_free
                0x000000000201aec4                mem_trim
                0x000000000201b1d4                mem_malloc
                0x000000000201b518                mem_calloc
 .text          0x000000000201b5a4      0x438 ../FreeRTOS_bsp/\libfreertos_bsp.a(memp.o)
                0x000000000201b5a4                memp_init_pool
                0x000000000201b664                memp_init
                0x000000000201b7ec                memp_malloc_pool
                0x000000000201b82c                memp_malloc
                0x000000000201b914                memp_free_pool
                0x000000000201b964                memp_free
 .text          0x000000000201b9dc      0xdd8 ../FreeRTOS_bsp/\libfreertos_bsp.a(netif.o)
                0x000000000201b9dc                netif_init
                0x000000000201b9fc                netif_input
                0x000000000201ba58                netif_add_noaddr
                0x000000000201bab8                netif_add
                0x000000000201be04                netif_set_ipaddr
                0x000000000201becc                netif_set_netmask
                0x000000000201bf98                netif_set_gw
                0x000000000201bff8                netif_set_addr
                0x000000000201c0e4                netif_remove
                0x000000000201c1d0                netif_set_default
                0x000000000201c1fc                netif_set_up
                0x000000000201c2e0                netif_set_down
                0x000000000201c380                netif_set_status_callback
                0x000000000201c3bc                netif_set_link_up
                0x000000000201c450                netif_set_link_down
                0x000000000201c4dc                netif_set_link_callback
                0x000000000201c544                netif_name_to_index
                0x000000000201c594                netif_index_to_name
                0x000000000201c62c                netif_get_by_index
                0x000000000201c69c                netif_find
 .text          0x000000000201c7b4     0x1c64 ../FreeRTOS_bsp/\libfreertos_bsp.a(pbuf.o)
                0x000000000201c974                pbuf_alloc
                0x000000000201cbf0                pbuf_alloc_reference
                0x000000000201cc6c                pbuf_alloced_custom
                0x000000000201cd3c                pbuf_realloc
                0x000000000201cff4                pbuf_add_header
                0x000000000201d030                pbuf_add_header_force
                0x000000000201d06c                pbuf_remove_header
                0x000000000201d1b0                pbuf_header
                0x000000000201d1f4                pbuf_header_force
                0x000000000201d238                pbuf_free_header
                0x000000000201d2f4                pbuf_free
                0x000000000201d42c                pbuf_clen
                0x000000000201d478                pbuf_ref
                0x000000000201d4d4                pbuf_cat
                0x000000000201d580                pbuf_chain
                0x000000000201d5c4                pbuf_dechain
                0x000000000201d660                pbuf_copy
                0x000000000201d850                pbuf_copy_partial
                0x000000000201d99c                pbuf_get_contiguous
                0x000000000201db40                pbuf_skip
                0x000000000201db90                pbuf_take
                0x000000000201dcc8                pbuf_take_at
                0x000000000201de10                pbuf_coalesce
                0x000000000201de80                pbuf_clone
                0x000000000201def4                pbuf_fill_chksum
                0x000000000201e000                pbuf_get_at
                0x000000000201e058                pbuf_try_get_at
                0x000000000201e0e8                pbuf_put_at
                0x000000000201e17c                pbuf_memcmp
                0x000000000201e2b0                pbuf_memfind
                0x000000000201e374                pbuf_strstr
 .text          0x000000000201e418      0x948 ../FreeRTOS_bsp/\libfreertos_bsp.a(raw.o)
                0x000000000201e4dc                raw_input
                0x000000000201e650                raw_bind
                0x000000000201e6b0                raw_bind_netif
                0x000000000201e704                raw_connect
                0x000000000201e77c                raw_disconnect
                0x000000000201e7cc                raw_recv
                0x000000000201e810                raw_sendto
                0x000000000201e90c                raw_sendto_if_src
                0x000000000201eb1c                raw_send
                0x000000000201eb60                raw_remove
                0x000000000201ec04                raw_new
                0x000000000201ec84                raw_new_ip_type
                0x000000000201eccc                raw_netif_ip_addr_changed
 .text          0x000000000201ed60       0x20 ../FreeRTOS_bsp/\libfreertos_bsp.a(stats.o)
                0x000000000201ed60                stats_init
 .text          0x000000000201ed80     0x2f38 ../FreeRTOS_bsp/\libfreertos_bsp.a(tcp.o)
                0x000000000201ed80                tcp_init
                0x000000000201eda0                tcp_free
                0x000000000201ee10                tcp_tmr
                0x000000000201ef38                tcp_backlog_delayed
                0x000000000201efa8                tcp_backlog_accepted
                0x000000000201f388                tcp_close
                0x000000000201f3f4                tcp_shutdown
                0x000000000201f4f4                tcp_abandon
                0x000000000201f70c                tcp_abort
                0x000000000201f744                tcp_bind
                0x000000000201f928                tcp_bind_netif
                0x000000000201f9bc                tcp_listen_with_backlog
                0x000000000201fa00                tcp_listen_with_backlog_and_err
                0x000000000201fc88                tcp_update_rcv_ann_wnd
                0x000000000201fd78                tcp_recved
                0x000000000201ff1c                tcp_connect
                0x000000000202030c                tcp_slowtmr
                0x0000000002020b80                tcp_fasttmr
                0x0000000002020cc0                tcp_txnow
                0x0000000002020d24                tcp_process_refused_data
                0x0000000002020e8c                tcp_segs_free
                0x0000000002020ee0                tcp_seg_free
                0x0000000002020f3c                tcp_setprio
                0x0000000002020f80                tcp_seg_copy
                0x0000000002020fe8                tcp_recv_null
                0x0000000002021348                tcp_alloc
                0x000000000202156c                tcp_new
                0x0000000002021598                tcp_new_ip_type
                0x00000000020215d4                tcp_arg
                0x0000000002021610                tcp_recv
                0x000000000202164c                tcp_sent
                0x0000000002021688                tcp_err
                0x00000000020216c4                tcp_accept
                0x0000000002021718                tcp_poll
                0x000000000202176c                tcp_pcb_purge
                0x000000000202185c                tcp_pcb_remove
                0x0000000002021970                tcp_next_iss
                0x00000000020219a4                tcp_eff_send_mss_netif
                0x0000000002021ac4                tcp_netif_ip_addr_changed
                0x0000000002021b80                tcp_debug_state_str
                0x0000000002021bbc                tcp_tcp_get_tcp_addrinfo
                0x0000000002021c68                tcp_free_ooseq
 .text          0x0000000002021cb8     0x3eec ../FreeRTOS_bsp/\libfreertos_bsp.a(tcp_in.o)
                0x0000000002021cb8                tcp_input
                0x0000000002025b78                tcp_trigger_input_pcb_close
 .text          0x0000000002025ba4     0x36b8 ../FreeRTOS_bsp/\libfreertos_bsp.a(tcp_out.o)
                0x0000000002026204                tcp_write
                0x0000000002026cd0                tcp_split_unsent_seg
                0x0000000002027268                tcp_send_fin
                0x00000000020273a8                tcp_enqueue_flags
                0x00000000020275b4                tcp_output
                0x000000000202822c                tcp_rexmit_rto_prepare
                0x00000000020283a8                tcp_rexmit_rto_commit
                0x0000000002028408                tcp_rexmit_rto
                0x0000000002028454                tcp_rexmit
                0x00000000020285d8                tcp_rexmit_fast
                0x0000000002028cf4                tcp_rst
                0x0000000002028dd0                tcp_send_empty_ack
                0x0000000002028efc                tcp_keepalive
                0x0000000002028fb0                tcp_zero_window_probe
 .text          0x000000000202925c      0x5d0 ../FreeRTOS_bsp/\libfreertos_bsp.a(timeouts.o)
                0x00000000020292b8                tcp_timer_needed
                0x00000000020294e0                sys_timeouts_init
                0x0000000002029568                sys_timeout
                0x00000000020295c0                sys_untimeout
                0x0000000002029684                sys_check_timeouts
                0x0000000002029734                sys_restart_timeouts
                0x00000000020297bc                sys_timeouts_sleeptime
 .text          0x000000000202982c     0x14dc ../FreeRTOS_bsp/\libfreertos_bsp.a(udp.o)
                0x000000000202982c                udp_init
                0x00000000020299f0                udp_input
                0x0000000002029eb8                udp_send
                0x0000000002029f2c                udp_send_chksum
                0x0000000002029fc0                udp_sendto
                0x000000000202a018                udp_sendto_chksum
                0x000000000202a124                udp_sendto_if
                0x000000000202a184                udp_sendto_if_chksum
                0x000000000202a2a4                udp_sendto_if_src
                0x000000000202a30c                udp_sendto_if_src_chksum
                0x000000000202a75c                udp_bind
                0x000000000202a904                udp_bind_netif
                0x000000000202a958                udp_connect
                0x000000000202aa80                udp_disconnect
                0x000000000202aae4                udp_recv
                0x000000000202ab34                udp_remove
                0x000000000202abe4                udp_new
                0x000000000202ac3c                udp_new_ip_type
                0x000000000202ac74                udp_netif_ip_addr_changed
 .text          0x000000000202ad08      0x3bc ../FreeRTOS_bsp/\libfreertos_bsp.a(ethernet.o)
                0x000000000202ad08                ethernet_input
                0x000000000202afa4                ethernet_output
 .text          0x000000000202b0c4      0x118 ../FreeRTOS_bsp/\libfreertos_bsp.a(alt_sys_init.o)
                0x000000000202b0f8                alt_irq_init
                0x000000000202b130                alt_sys_init
 .text          0x000000000202b1dc      0x164 ../FreeRTOS_bsp/\libfreertos_bsp.a(altera_avalon_jtag_uart_fd.o)
                0x000000000202b1dc                altera_avalon_jtag_uart_read_fd
                0x000000000202b23c                altera_avalon_jtag_uart_write_fd
                0x000000000202b29c                altera_avalon_jtag_uart_close_fd
                0x000000000202b2ec                altera_avalon_jtag_uart_ioctl_fd
 .text          0x000000000202b340      0x45c ../FreeRTOS_bsp/\libfreertos_bsp.a(altera_avalon_jtag_uart_init.o)
                0x000000000202b340                altera_avalon_jtag_uart_init
                0x000000000202b734                altera_avalon_jtag_uart_close
 .text          0x000000000202b79c       0xf0 ../FreeRTOS_bsp/\libfreertos_bsp.a(altera_avalon_jtag_uart_ioctl.o)
                0x000000000202b79c                altera_avalon_jtag_uart_ioctl
 .text          0x000000000202b88c      0x258 ../FreeRTOS_bsp/\libfreertos_bsp.a(altera_avalon_jtag_uart_read.o)
                0x000000000202b88c                altera_avalon_jtag_uart_read
 .text          0x000000000202bae4      0x260 ../FreeRTOS_bsp/\libfreertos_bsp.a(altera_avalon_jtag_uart_write.o)
                0x000000000202bae4                altera_avalon_jtag_uart_write
 .text          0x000000000202bd44      0xd94 ../FreeRTOS_bsp/\libfreertos_bsp.a(altera_avalon_sgdma.o)
                0x000000000202bd80                alt_avalon_sgdma_do_async_transfer
                0x000000000202bea4                alt_avalon_sgdma_do_sync_transfer
                0x000000000202bfb4                alt_avalon_sgdma_construct_mem_to_mem_desc
                0x000000000202c028                alt_avalon_sgdma_construct_mem_to_mem_desc_burst
                0x000000000202c0ac                alt_avalon_sgdma_construct_stream_to_mem_desc
                0x000000000202c10c                alt_avalon_sgdma_construct_stream_to_mem_desc_burst
                0x000000000202c184                alt_avalon_sgdma_construct_mem_to_stream_desc
                0x000000000202c204                alt_avalon_sgdma_construct_mem_to_stream_desc_burst
                0x000000000202c290                alt_avalon_sgdma_register_callback
                0x000000000202c2e4                alt_avalon_sgdma_start
                0x000000000202c33c                alt_avalon_sgdma_stop
                0x000000000202c398                alt_avalon_sgdma_check_descriptor_status
                0x000000000202c3fc                alt_avalon_sgdma_open
                0x000000000202c450                alt_avalon_sgdma_construct_descriptor
                0x000000000202c4dc                alt_avalon_sgdma_enable_desc_poll
                0x000000000202c55c                alt_avalon_sgdma_disable_desc_poll
                0x000000000202c5bc                alt_avalon_sgdma_construct_descriptor_burst
                0x000000000202ca30                alt_avalon_sgdma_init
 .text          0x000000000202cad8       0xf4 ../FreeRTOS_bsp/\libfreertos_bsp.a(altera_avalon_timer_sc.o)
                0x000000000202cb50                alt_avalon_timer_sc_init
 .text          0x000000000202cbcc      0x110 ../FreeRTOS_bsp/\libfreertos_bsp.a(altera_avalon_uart_fd.o)
                0x000000000202cbcc                altera_avalon_uart_read_fd
                0x000000000202cc2c                altera_avalon_uart_write_fd
                0x000000000202cc8c                altera_avalon_uart_close_fd
 .text          0x000000000202ccdc      0x478 ../FreeRTOS_bsp/\libfreertos_bsp.a(altera_avalon_uart_init.o)
                0x000000000202ccdc                altera_avalon_uart_init
                0x000000000202d100                altera_avalon_uart_close
 .text          0x000000000202d154      0x254 ../FreeRTOS_bsp/\libfreertos_bsp.a(altera_avalon_uart_read.o)
                0x000000000202d190                altera_avalon_uart_read
 .text          0x000000000202d3a8      0x224 ../FreeRTOS_bsp/\libfreertos_bsp.a(altera_avalon_uart_write.o)
                0x000000000202d3e4                altera_avalon_uart_write
 .text          0x000000000202d5cc       0xa4 ../FreeRTOS_bsp/\libfreertos_bsp.a(alt_env_lock.o)
                0x000000000202d5cc                __env_lock
                0x000000000202d62c                __env_unlock
 .text          0x000000000202d670      0x134 ../FreeRTOS_bsp/\libfreertos_bsp.a(heap_1.o)
                0x000000000202d670                pvPortMalloc
                0x000000000202d730                vPortFree
                0x000000000202d754                vPortInitialiseBlocks
                0x000000000202d778                xPortGetFreeHeapSize
 .text          0x000000000202d7a4      0x290 ../FreeRTOS_bsp/\libfreertos_bsp.a(list.o)
                0x000000000202d7a4                vListInitialise
                0x000000000202d80c                vListInitialiseItem
                0x000000000202d838                vListInsertEnd
                0x000000000202d8c4                vListInsert
                0x000000000202d99c                uxListRemove
 .text          0x000000000202da34      0x448 ../FreeRTOS_bsp/\libfreertos_bsp.a(port.o)
                0x000000000202da60                enh_alt_irq_disable_all
                0x000000000202dab0                enh_alt_irq_enable_all
                0x000000000202daec                pxPortInitialiseStack
                0x000000000202dbcc                xPortStartScheduler
                0x000000000202dc04                vPortEndScheduler
                0x000000000202dcc0                vPortSysTickHandler
                0x000000000202dd0c                alt_irq_register
 .text          0x000000000202de7c        0x0 ../FreeRTOS_bsp/\libfreertos_bsp.a(port_asm.o)
 .text          0x000000000202de7c        0x0 ../FreeRTOS_bsp/\libfreertos_bsp.a(tse_ethernet_phys.o)
 .text          0x000000000202de7c      0x12c ../FreeRTOS_bsp/\libfreertos_bsp.a(alt_alarm_start.o)
                0x000000000202de7c                alt_alarm_start
 .text          0x000000000202dfa8      0x10c ../FreeRTOS_bsp/\libfreertos_bsp.a(alt_close.o)
                0x000000000202dfe4                alt_close
 .text          0x000000000202e0b4       0x28 ../FreeRTOS_bsp/\libfreertos_bsp.a(alt_dcache_flush.o)
                0x000000000202e0b4                alt_dcache_flush
 .text          0x000000000202e0dc       0x20 ../FreeRTOS_bsp/\libfreertos_bsp.a(alt_dcache_flush_all.o)
                0x000000000202e0dc                alt_dcache_flush_all
 .text          0x000000000202e0fc       0xe0 ../FreeRTOS_bsp/\libfreertos_bsp.a(alt_dev_llist_insert.o)
                0x000000000202e138                alt_dev_llist_insert
 .text          0x000000000202e1dc        0x0 ../FreeRTOS_bsp/\libfreertos_bsp.a(alt_errno.o)
 .text          0x000000000202e1dc       0x90 ../FreeRTOS_bsp/\libfreertos_bsp.a(alt_find_dev.o)
                0x000000000202e1dc                alt_find_dev
 .text          0x000000000202e26c      0x108 ../FreeRTOS_bsp/\libfreertos_bsp.a(alt_find_file.o)
                0x000000000202e26c                alt_find_file
 .text          0x000000000202e374       0xe0 ../FreeRTOS_bsp/\libfreertos_bsp.a(alt_get_fd.o)
                0x000000000202e374                alt_get_fd
 .text          0x000000000202e454       0x34 ../FreeRTOS_bsp/\libfreertos_bsp.a(alt_icache_flush_all.o)
                0x000000000202e454                alt_icache_flush_all
 .text          0x000000000202e488      0x1b0 ../FreeRTOS_bsp/\libfreertos_bsp.a(alt_iic.o)
                0x000000000202e488                alt_ic_isr_register
                0x000000000202e4d8                alt_ic_irq_enable
                0x000000000202e560                alt_ic_irq_disable
                0x000000000202e5ec                alt_ic_irq_enabled
 .text          0x000000000202e638       0xf0 ../FreeRTOS_bsp/\libfreertos_bsp.a(alt_iic_isr_register.o)
                0x000000000202e638                alt_iic_isr_register
 .text          0x000000000202e728        0x0 ../FreeRTOS_bsp/\libfreertos_bsp.a(alt_irq_handler.o)
 .text          0x000000000202e728        0x0 ../FreeRTOS_bsp/\libfreertos_bsp.a(alt_irq_vars.o)
 .text          0x000000000202e728      0x138 ../FreeRTOS_bsp/\libfreertos_bsp.a(alt_read.o)
                0x000000000202e764                alt_read
 .text          0x000000000202e860      0x1a4 ../FreeRTOS_bsp/\libfreertos_bsp.a(alt_tick.o)
                0x000000000202e860                alt_alarm_stop
                0x000000000202e8fc                alt_tick
 .text          0x000000000202ea04       0x30 ../FreeRTOS_bsp/\libfreertos_bsp.a(alt_uncached_malloc.o)
                0x000000000202ea04                alt_uncached_malloc
 .text          0x000000000202ea34       0x30 ../FreeRTOS_bsp/\libfreertos_bsp.a(alt_usleep.o)
                0x000000000202ea34                usleep
 .text          0x000000000202ea64      0x134 ../FreeRTOS_bsp/\libfreertos_bsp.a(alt_write.o)
                0x000000000202eaa0                alt_write
 .text          0x000000000202eb98       0x24 ../FreeRTOS_bsp/\libfreertos_bsp.a(altera_nios2_gen2_irq.o)
                0x000000000202eb98                altera_nios2_gen2_irq_init
 .text          0x000000000202ebbc     0x4ee0 ../FreeRTOS_bsp/\libfreertos_bsp.a(sockets.o)
                0x000000000202ebbc                lwip_socket_thread_init
                0x000000000202ebdc                lwip_socket_thread_cleanup
                0x000000000202ec58                lwip_socket_dbg_get_socket
                0x000000000202f048                lwip_accept
                0x000000000202f328                lwip_bind
                0x000000000202f454                lwip_close
                0x000000000202f528                lwip_connect
                0x000000000202f68c                lwip_listen
                0x000000000202fe1c                lwip_recvfrom
                0x000000000202ffc8                lwip_read
                0x0000000002030014                lwip_readv
                0x0000000002030078                lwip_recv
                0x00000000020300c8                lwip_recvmsg
                0x0000000002030404                lwip_send
                0x000000000203053c                lwip_sendmsg
                0x0000000002030998                lwip_sendto
                0x0000000002030b94                lwip_socket
                0x0000000002030cdc                lwip_write
                0x0000000002030d20                lwip_writev
                0x00000000020312b4                lwip_select
                0x0000000002031b4c                lwip_poll
                0x000000000203221c                lwip_shutdown
                0x00000000020324e8                lwip_getpeername
                0x000000000203252c                lwip_getsockname
                0x0000000002032570                lwip_getsockopt
                0x0000000002032e70                lwip_setsockopt
                0x00000000020336b4                lwip_ioctl
                0x0000000002033798                lwip_fcntl
                0x0000000002033974                lwip_inet_ntop
                0x0000000002033a2c                lwip_inet_pton
 .text          0x0000000002033a9c      0x9fc ../FreeRTOS_bsp/\libfreertos_bsp.a(tcpip.o)
                0x0000000002033d78                tcpip_inpkt
                0x0000000002033e28                tcpip_input
                0x0000000002033e94                tcpip_callback
                0x0000000002033f10                tcpip_try_callback
                0x0000000002033fb0                tcpip_timeout
                0x000000000203403c                tcpip_untimeout
                0x00000000020340b8                tcpip_send_msg_wait_sem
                0x0000000002034118                tcpip_api_call
                0x00000000020341c8                tcpip_callbackmsg_new
                0x0000000002034238                tcpip_callbackmsg_delete
                0x0000000002034270                tcpip_callbackmsg_trycallback
                0x00000000020342a4                tcpip_callbackmsg_trycallback_fromisr
                0x00000000020342d8                tcpip_callback_wait
                0x0000000002034378                tcpip_init
                0x0000000002034428                pbuf_free_callback
                0x0000000002034460                mem_free_callback
 .text          0x0000000002034498     0x4fdc ../FreeRTOS_bsp/\libfreertos_bsp.a(altera_avalon_tse.o)
                0x0000000002034498                no_printf
                0x00000000020344c8                tse_mac_initTransInfo2
                0x0000000002034528                tse_mac_sTxWrite
                0x000000000203460c                tse_mac_aRxRead
                0x00000000020346b4                tse_mac_SwReset
                0x000000000203473c                tse_mac_setMIImode
                0x0000000002034790                tse_mac_setGMIImode
                0x00000000020347e0                alt_tse_phy_add_profile
                0x00000000020349c4                alt_tse_system_add_sys
                0x00000000020353c0                alt_tse_sys_enable_mdio_sharing
                0x0000000002035528                alt_tse_mac_get_common_speed
                0x0000000002035568                alt_tse_mac_set_common_speed
                0x00000000020355b0                alt_tse_get_system_index
                0x000000000203561c                alt_tse_get_mac_group_index
                0x0000000002035690                alt_tse_get_mac_info_index
                0x0000000002035710                alt_tse_get_mac_info
                0x00000000020357e8                alt_tse_mac_set_speed
                0x00000000020358c8                alt_tse_mac_set_duplex
                0x0000000002035954                getPHYSpeed
                0x00000000020363d0                alt_tse_phy_rd_mdio_addr
                0x0000000002036418                alt_tse_phy_wr_mdio_addr
                0x0000000002036470                alt_tse_phy_wr_mdio_reg
                0x0000000002036598                alt_tse_phy_rd_mdio_reg
                0x0000000002036664                alt_tse_phy_add_profile_default
                0x0000000002036900                alt_tse_phy_print_profile
                0x0000000002036b10                alt_tse_mac_group_init
                0x00000000020371b4                alt_tse_mac_get_phy
                0x00000000020375d8                alt_tse_mac_associate_phy
                0x0000000002037820                alt_tse_phy_cfg_pcs
                0x0000000002037948                alt_tse_phy_init
                0x0000000002037a60                alt_tse_phy_restart_an
                0x0000000002037c1c                alt_tse_phy_check_link
                0x0000000002037d7c                alt_tse_phy_get_cap
                0x0000000002038310                alt_tse_phy_set_adv_1000
                0x00000000020384d4                alt_tse_phy_set_adv_100
                0x0000000002038728                alt_tse_phy_set_adv_10
                0x00000000020388d0                alt_tse_phy_get_common_speed
                0x0000000002038bf8                alt_tse_phy_set_common_speed
                0x00000000020390ac                marvell_phy_cfg
                0x0000000002039144                marvell_cfg_gmii
                0x0000000002039228                marvell_cfg_sgmii
                0x000000000203930c                marvell_cfg_rgmii
                0x00000000020393fc                DP83848C_link_status_read
 .text          0x0000000002039474      0x530 ../FreeRTOS_bsp/\libfreertos_bsp.a(def.o)
                0x0000000002039474                lwip_htons
                0x00000000020394b0                lwip_htonl
                0x0000000002039504                lwip_strnstr
                0x00000000020395e8                lwip_strnistr
                0x00000000020396a0                lwip_stricmp
                0x0000000002039754                lwip_strnicmp
                0x0000000002039820                lwip_itoa
 .text          0x00000000020399a4      0x9c8 ../FreeRTOS_bsp/\libfreertos_bsp.a(inet_chksum.o)
                0x00000000020399a4                lwip_standard_chksum
                0x0000000002039d5c                inet_chksum_pseudo
                0x0000000002039e44                ip_chksum_pseudo
                0x000000000203a05c                inet_chksum_pseudo_partial
                0x000000000203a154                ip_chksum_pseudo_partial
                0x000000000203a1c4                inet_chksum
                0x000000000203a208                inet_chksum_pbuf
                0x000000000203a314                lwip_chksum_copy
 .text          0x000000000203a36c       0x4c ../FreeRTOS_bsp/\libfreertos_bsp.a(init.o)
                0x000000000203a36c                lwip_init
 .text          0x000000000203a3b8        0x0 ../FreeRTOS_bsp/\libfreertos_bsp.a(ip.o)
 .text          0x000000000203a3b8      0x934 ../FreeRTOS_bsp/\libfreertos_bsp.a(acd.o)
                0x000000000203a3b8                acd_add
                0x000000000203a444                acd_start
                0x000000000203a514                acd_stop
                0x000000000203a548                acd_network_changed_link_down
                0x000000000203a5a0                acd_tmr
                0x000000000203a944                acd_arp_reply
                0x000000000203ac20                acd_netif_ip_addr_changed
 .text          0x000000000203acec      0x8d8 ../FreeRTOS_bsp/\libfreertos_bsp.a(icmp.o)
                0x000000000203acec                icmp_input
                0x000000000203b338                icmp_dest_unreach
                0x000000000203b380                icmp_time_exceeded
 .text          0x000000000203b5c4     0x111c ../FreeRTOS_bsp/\libfreertos_bsp.a(ip4.o)
                0x000000000203b5c4                ip4_route
                0x000000000203b7b4                ip4_input
                0x000000000203be1c                ip4_output_if
                0x000000000203bec4                ip4_output_if_src
                0x000000000203c564                ip4_output
                0x000000000203c614                ip4_output_hinted
 .text          0x000000000203c6e0     0x183c ../FreeRTOS_bsp/\libfreertos_bsp.a(ip4_frag.o)
                0x000000000203c6e0                ip_reass_tmr
                0x000000000203d388                ip4_reass
                0x000000000203da94                ip4_frag
 .text          0x000000000203df1c      0x158 ../FreeRTOS_bsp/\libfreertos_bsp.a(alt_busy_sleep.o)
                0x000000000203df1c                alt_busy_sleep
 .text          0x000000000203e074       0x90 ../FreeRTOS_bsp/\libfreertos_bsp.a(alt_icache_flush.o)
                0x000000000203e074                alt_icache_flush
 .text          0x000000000203e104     0x1250 ../FreeRTOS_bsp/\libfreertos_bsp.a(api_lib.o)
                0x000000000203e168                netconn_new_with_proto_and_callback
                0x000000000203e21c                netconn_prepare_delete
                0x000000000203e290                netconn_delete
                0x000000000203e2e8                netconn_getaddr
                0x000000000203e38c                netconn_bind
                0x000000000203e414                netconn_bind_if
                0x000000000203e480                netconn_connect
                0x000000000203e508                netconn_disconnect
                0x000000000203e564                netconn_listen_with_backlog
                0x000000000203e5d0                netconn_accept
                0x000000000203ea1c                netconn_tcp_recvd
                0x000000000203ec28                netconn_recv_tcp_pbuf
                0x000000000203ec88                netconn_recv_tcp_pbuf_flags
                0x000000000203ecf4                netconn_recv_udp_raw_netbuf
                0x000000000203ed54                netconn_recv_udp_raw_netbuf_flags
                0x000000000203edc0                netconn_recv
                0x000000000203eecc                netconn_sendto
                0x000000000203ef4c                netconn_send
                0x000000000203efb4                netconn_write_partly
                0x000000000203f01c                netconn_write_vectors_partly
                0x000000000203f24c                netconn_close
                0x000000000203f280                netconn_err
                0x000000000203f2e0                netconn_shutdown
 .text          0x000000000203f354     0x2b3c ../FreeRTOS_bsp/\libfreertos_bsp.a(api_msg.o)
                0x000000000203f3b4                lwip_netconn_is_err_msg
                0x00000000020400a8                lwip_netconn_do_newconn
                0x0000000002040110                netconn_alloc
                0x000000000204027c                netconn_free
                0x0000000002040774                lwip_netconn_do_delconn
                0x0000000002040984                lwip_netconn_do_bind
                0x0000000002040ac4                lwip_netconn_do_bind_if
                0x0000000002040d08                lwip_netconn_do_connect
                0x0000000002040f3c                lwip_netconn_do_disconnect
                0x0000000002040fc8                lwip_netconn_do_listen
                0x0000000002041228                lwip_netconn_do_send
                0x000000000204144c                lwip_netconn_do_recv
                0x0000000002041520                lwip_netconn_do_accepted
                0x0000000002041a2c                lwip_netconn_do_write
                0x0000000002041b24                lwip_netconn_do_getaddr
                0x0000000002041d58                lwip_netconn_do_close
 .text          0x0000000002041e90       0x64 ../FreeRTOS_bsp/\libfreertos_bsp.a(err.o)
                0x0000000002041e90                err_to_errno
 .text          0x0000000002041ef4      0x498 ../FreeRTOS_bsp/\libfreertos_bsp.a(netbuf.o)
                0x0000000002041ef4                netbuf_new
                0x0000000002041f40                netbuf_delete
                0x0000000002041fb4                netbuf_alloc
                0x0000000002042060                netbuf_free
                0x00000000020420dc                netbuf_ref
                0x00000000020421b8                netbuf_chain
                0x000000000204223c                netbuf_data
                0x00000000020422d4                netbuf_next
                0x000000000204234c                netbuf_first
 .text          0x000000000204238c        0x0 c:/altera/18.1/nios2eds/bin/gnu/h-x86_64-mingw32/bin/../lib/gcc/nios2-elf/5.3.0/../../../../../H-x86_64-mingw32/nios2-elf/lib\libc.a(lib_a-atexit.o)
 .text.atexit   0x000000000204238c       0x14 c:/altera/18.1/nios2eds/bin/gnu/h-x86_64-mingw32/bin/../lib/gcc/nios2-elf/5.3.0/../../../../../H-x86_64-mingw32/nios2-elf/lib\libc.a(lib_a-atexit.o)
                0x000000000204238c                atexit
 .text          0x00000000020423a0        0x0 c:/altera/18.1/nios2eds/bin/gnu/h-x86_64-mingw32/bin/../lib/gcc/nios2-elf/5.3.0/../../../../../H-x86_64-mingw32/nios2-elf/lib\libc.a(lib_a-atoi.o)
 .text.atoi     0x00000000020423a0        0xc c:/altera/18.1/nios2eds/bin/gnu/h-x86_64-mingw32/bin/../lib/gcc/nios2-elf/5.3.0/../../../../../H-x86_64-mingw32/nios2-elf/lib\libc.a(lib_a-atoi.o)
                0x00000000020423a0                atoi
 .text._atoi_r  0x00000000020423ac        0xc c:/altera/18.1/nios2eds/bin/gnu/h-x86_64-mingw32/bin/../lib/gcc/nios2-elf/5.3.0/../../../../../H-x86_64-mingw32/nios2-elf/lib\libc.a(lib_a-atoi.o)
                0x00000000020423ac                _atoi_r
 .text          0x00000000020423b8        0x0 c:/altera/18.1/nios2eds/bin/gnu/h-x86_64-mingw32/bin/../lib/gcc/nios2-elf/5.3.0/../../../../../H-x86_64-mingw32/nios2-elf/lib\libc.a(lib_a-ctype_.o)
 .text          0x00000000020423b8        0x0 c:/altera/18.1/nios2eds/bin/gnu/h-x86_64-mingw32/bin/../lib/gcc/nios2-elf/5.3.0/../../../../../H-x86_64-mingw32/nios2-elf/lib\libc.a(lib_a-errno.o)
 .text.__errno  0x00000000020423b8       0x10 c:/altera/18.1/nios2eds/bin/gnu/h-x86_64-mingw32/bin/../lib/gcc/nios2-elf/5.3.0/../../../../../H-x86_64-mingw32/nios2-elf/lib\libc.a(lib_a-errno.o)
                0x00000000020423b8                __errno
 .text          0x00000000020423c8        0x0 c:/altera/18.1/nios2eds/bin/gnu/h-x86_64-mingw32/bin/../lib/gcc/nios2-elf/5.3.0/../../../../../H-x86_64-mingw32/nios2-elf/lib\libc.a(lib_a-exit.o)
 .text.exit     0x00000000020423c8       0x38 c:/altera/18.1/nios2eds/bin/gnu/h-x86_64-mingw32/bin/../lib/gcc/nios2-elf/5.3.0/../../../../../H-x86_64-mingw32/nios2-elf/lib\libc.a(lib_a-exit.o)
                0x00000000020423c8                exit
 .text          0x0000000002042400        0x0 c:/altera/18.1/nios2eds/bin/gnu/h-x86_64-mingw32/bin/../lib/gcc/nios2-elf/5.3.0/../../../../../H-x86_64-mingw32/nios2-elf/lib\libc.a(lib_a-malloc.o)
 .text.malloc   0x0000000002042400       0x14 c:/altera/18.1/nios2eds/bin/gnu/h-x86_64-mingw32/bin/../lib/gcc/nios2-elf/5.3.0/../../../../../H-x86_64-mingw32/nios2-elf/lib\libc.a(lib_a-malloc.o)
                0x0000000002042400                malloc
 .text.free     0x0000000002042414       0x14 c:/altera/18.1/nios2eds/bin/gnu/h-x86_64-mingw32/bin/../lib/gcc/nios2-elf/5.3.0/../../../../../H-x86_64-mingw32/nios2-elf/lib\libc.a(lib_a-malloc.o)
                0x0000000002042414                free
 .text          0x0000000002042428        0x0 c:/altera/18.1/nios2eds/bin/gnu/h-x86_64-mingw32/bin/../lib/gcc/nios2-elf/5.3.0/../../../../../H-x86_64-mingw32/nios2-elf/lib\libc.a(lib_a-memcmp.o)
 .text.memcmp   0x0000000002042428       0x7c c:/altera/18.1/nios2eds/bin/gnu/h-x86_64-mingw32/bin/../lib/gcc/nios2-elf/5.3.0/../../../../../H-x86_64-mingw32/nios2-elf/lib\libc.a(lib_a-memcmp.o)
                0x0000000002042428                memcmp
 .text          0x00000000020424a4        0x0 c:/altera/18.1/nios2eds/bin/gnu/h-x86_64-mingw32/bin/../lib/gcc/nios2-elf/5.3.0/../../../../../H-x86_64-mingw32/nios2-elf/lib\libc.a(lib_a-putc.o)
 .text._putc_r  0x00000000020424a4       0xa0 c:/altera/18.1/nios2eds/bin/gnu/h-x86_64-mingw32/bin/../lib/gcc/nios2-elf/5.3.0/../../../../../H-x86_64-mingw32/nios2-elf/lib\libc.a(lib_a-putc.o)
                0x00000000020424a4                _putc_r
 .text.putc     0x0000000002042544       0xc8 c:/altera/18.1/nios2eds/bin/gnu/h-x86_64-mingw32/bin/../lib/gcc/nios2-elf/5.3.0/../../../../../H-x86_64-mingw32/nios2-elf/lib\libc.a(lib_a-putc.o)
                0x0000000002042544                putc
 .text          0x000000000204260c        0x0 c:/altera/18.1/nios2eds/bin/gnu/h-x86_64-mingw32/bin/../lib/gcc/nios2-elf/5.3.0/../../../../../H-x86_64-mingw32/nios2-elf/lib\libc.a(lib_a-puts.o)
 .text._puts_r  0x000000000204260c       0xc0 c:/altera/18.1/nios2eds/bin/gnu/h-x86_64-mingw32/bin/../lib/gcc/nios2-elf/5.3.0/../../../../../H-x86_64-mingw32/nios2-elf/lib\libc.a(lib_a-puts.o)
                0x000000000204260c                _puts_r
 .text.puts     0x00000000020426cc       0x14 c:/altera/18.1/nios2eds/bin/gnu/h-x86_64-mingw32/bin/../lib/gcc/nios2-elf/5.3.0/../../../../../H-x86_64-mingw32/nios2-elf/lib\libc.a(lib_a-puts.o)
                0x00000000020426cc                puts
 .text          0x00000000020426e0        0x0 c:/altera/18.1/nios2eds/bin/gnu/h-x86_64-mingw32/bin/../lib/gcc/nios2-elf/5.3.0/../../../../../H-x86_64-mingw32/nios2-elf/lib\libc.a(lib_a-snprintf.o)
 .text._snprintf_r
                0x00000000020426e0       0xd8 c:/altera/18.1/nios2eds/bin/gnu/h-x86_64-mingw32/bin/../lib/gcc/nios2-elf/5.3.0/../../../../../H-x86_64-mingw32/nios2-elf/lib\libc.a(lib_a-snprintf.o)
                0x00000000020426e0                _snprintf_r
 .text.snprintf
                0x00000000020427b8       0xe4 c:/altera/18.1/nios2eds/bin/gnu/h-x86_64-mingw32/bin/../lib/gcc/nios2-elf/5.3.0/../../../../../H-x86_64-mingw32/nios2-elf/lib\libc.a(lib_a-snprintf.o)
                0x00000000020427b8                snprintf
 .text          0x000000000204289c        0x0 c:/altera/18.1/nios2eds/bin/gnu/h-x86_64-mingw32/bin/../lib/gcc/nios2-elf/5.3.0/../../../../../H-x86_64-mingw32/nios2-elf/lib\libc.a(lib_a-strcpy.o)
 .text.strcpy   0x000000000204289c       0x90 c:/altera/18.1/nios2eds/bin/gnu/h-x86_64-mingw32/bin/../lib/gcc/nios2-elf/5.3.0/../../../../../H-x86_64-mingw32/nios2-elf/lib\libc.a(lib_a-strcpy.o)
                0x000000000204289c                strcpy
 .text          0x000000000204292c        0x0 c:/altera/18.1/nios2eds/bin/gnu/h-x86_64-mingw32/bin/../lib/gcc/nios2-elf/5.3.0/../../../../../H-x86_64-mingw32/nios2-elf/lib\libc.a(lib_a-strncmp.o)
 .text.strncmp  0x000000000204292c       0xd0 c:/altera/18.1/nios2eds/bin/gnu/h-x86_64-mingw32/bin/../lib/gcc/nios2-elf/5.3.0/../../../../../H-x86_64-mingw32/nios2-elf/lib\libc.a(lib_a-strncmp.o)
                0x000000000204292c                strncmp
 .text          0x00000000020429fc        0x0 c:/altera/18.1/nios2eds/bin/gnu/h-x86_64-mingw32/bin/../lib/gcc/nios2-elf/5.3.0/../../../../../H-x86_64-mingw32/nios2-elf/lib\libc.a(lib_a-strtol.o)
 .text._strtol_r
                0x00000000020429fc      0x238 c:/altera/18.1/nios2eds/bin/gnu/h-x86_64-mingw32/bin/../lib/gcc/nios2-elf/5.3.0/../../../../../H-x86_64-mingw32/nios2-elf/lib\libc.a(lib_a-strtol.o)
                0x00000000020429fc                _strtol_r
 .text.strtol   0x0000000002042c34       0x1c c:/altera/18.1/nios2eds/bin/gnu/h-x86_64-mingw32/bin/../lib/gcc/nios2-elf/5.3.0/../../../../../H-x86_64-mingw32/nios2-elf/lib\libc.a(lib_a-strtol.o)
                0x0000000002042c34                strtol
 .text          0x0000000002042c50        0x0 c:/altera/18.1/nios2eds/bin/gnu/h-x86_64-mingw32/bin/../lib/gcc/nios2-elf/5.3.0/../../../../../H-x86_64-mingw32/nios2-elf/lib\libc.a(lib_a-svfprintf.o)
 .text.___svfprintf_internal_r
                0x0000000002042c50     0x21d8 c:/altera/18.1/nios2eds/bin/gnu/h-x86_64-mingw32/bin/../lib/gcc/nios2-elf/5.3.0/../../../../../H-x86_64-mingw32/nios2-elf/lib\libc.a(lib_a-svfprintf.o)
                0x0000000002042c50                ___svfprintf_internal_r
 .text          0x0000000002044e28        0x0 c:/altera/18.1/nios2eds/bin/gnu/h-x86_64-mingw32/bin/../lib/gcc/nios2-elf/5.3.0/../../../../../H-x86_64-mingw32/nios2-elf/lib\libc.a(lib_a-__atexit.o)
 .text.__register_exitproc
                0x0000000002044e28      0x118 c:/altera/18.1/nios2eds/bin/gnu/h-x86_64-mingw32/bin/../lib/gcc/nios2-elf/5.3.0/../../../../../H-x86_64-mingw32/nios2-elf/lib\libc.a(lib_a-__atexit.o)
                0x0000000002044e28                __register_exitproc
 .text          0x0000000002044f40        0x0 c:/altera/18.1/nios2eds/bin/gnu/h-x86_64-mingw32/bin/../lib/gcc/nios2-elf/5.3.0/../../../../../H-x86_64-mingw32/nios2-elf/lib\libc.a(lib_a-__call_atexit.o)
 .text.__call_exitprocs
                0x0000000002044f40      0x180 c:/altera/18.1/nios2eds/bin/gnu/h-x86_64-mingw32/bin/../lib/gcc/nios2-elf/5.3.0/../../../../../H-x86_64-mingw32/nios2-elf/lib\libc.a(lib_a-__call_atexit.o)
                0x0000000002044f40                __call_exitprocs
 .text          0x00000000020450c0        0x0 c:/altera/18.1/nios2eds/bin/gnu/h-x86_64-mingw32/bin/../lib/gcc/nios2-elf/5.3.0/../../../../../H-x86_64-mingw32/nios2-elf/lib\libc.a(lib_a-svfiprintf.o)
 .text.__ssprint_r
                0x00000000020450c0      0x1d0 c:/altera/18.1/nios2eds/bin/gnu/h-x86_64-mingw32/bin/../lib/gcc/nios2-elf/5.3.0/../../../../../H-x86_64-mingw32/nios2-elf/lib\libc.a(lib_a-svfiprintf.o)
                0x00000000020450c0                __ssprint_r
 .text.___svfiprintf_internal_r
                0x0000000002045290     0x123c c:/altera/18.1/nios2eds/bin/gnu/h-x86_64-mingw32/bin/../lib/gcc/nios2-elf/5.3.0/../../../../../H-x86_64-mingw32/nios2-elf/lib\libc.a(lib_a-svfiprintf.o)
                0x0000000002045290                ___svfiprintf_internal_r
 .text          0x00000000020464cc       0x30 ../FreeRTOS_bsp/\libfreertos_bsp.a(alt_exit.o)
                0x00000000020464cc                _exit
 *(.gnu.warning.*)
 *(.fini)
                [!provide]                        PROVIDE (__etext, ABSOLUTE (.))
                [!provide]                        PROVIDE (_etext, ABSOLUTE (.))
                [!provide]                        PROVIDE (etext, ABSOLUTE (.))
 *(.eh_frame_hdr)
                0x00000000020464fc                . = ALIGN (0x4)
                [!provide]                        PROVIDE (__preinit_array_start, ABSOLUTE (.))
 *(.preinit_array)
                [!provide]                        PROVIDE (__preinit_array_end, ABSOLUTE (.))
                [!provide]                        PROVIDE (__init_array_start, ABSOLUTE (.))
 *(.init_array)
                [!provide]                        PROVIDE (__init_array_end, ABSOLUTE (.))
                [!provide]                        PROVIDE (__fini_array_start, ABSOLUTE (.))
 *(.fini_array)
                [!provide]                        PROVIDE (__fini_array_end, ABSOLUTE (.))
 *(.eh_frame)
 *(.gcc_except_table .gcc_except_table.*)
 *(.dynamic)
                0x00000000020464fc                PROVIDE (__CTOR_LIST__, ABSOLUTE (.))
 *(.ctors)
 *(SORT(.ctors.*))
                0x00000000020464fc                PROVIDE (__CTOR_END__, ABSOLUTE (.))
                0x00000000020464fc                PROVIDE (__DTOR_LIST__, ABSOLUTE (.))
 *(.dtors)
 *(SORT(.dtors.*))
                0x00000000020464fc                PROVIDE (__DTOR_END__, ABSOLUTE (.))
 *(.jcr)
                0x00000000020464fc                . = ALIGN (0x4)

.rodata         0x00000000020464fc     0x2aa0
                0x00000000020464fc                PROVIDE (__ram_rodata_start, ABSOLUTE (.))
                0x00000000020464fc                . = ALIGN (0x4)
 *(.rodata .rodata.* .gnu.linkonce.r.*)
 .rodata        0x00000000020464fc      0x4f4 obj/default/main.o
 .rodata.str1.4
                0x00000000020469f0       0x42 c:/altera/18.1/nios2eds/bin/gnu/h-x86_64-mingw32/bin/../lib/gcc/nios2-elf/5.3.0/../../../../../H-x86_64-mingw32/nios2-elf/lib\libc.a(lib_a-vfprintf.o)
 .rodata.zeroes.4404
                0x0000000002046a32       0x10 c:/altera/18.1/nios2eds/bin/gnu/h-x86_64-mingw32/bin/../lib/gcc/nios2-elf/5.3.0/../../../../../H-x86_64-mingw32/nios2-elf/lib\libc.a(lib_a-vfprintf.o)
 .rodata.blanks.4403
                0x0000000002046a42       0x10 c:/altera/18.1/nios2eds/bin/gnu/h-x86_64-mingw32/bin/../lib/gcc/nios2-elf/5.3.0/../../../../../H-x86_64-mingw32/nios2-elf/lib\libc.a(lib_a-vfprintf.o)
 *fill*         0x0000000002046a52        0x2 
 .rodata.str1.4
                0x0000000002046a54       0x10 c:/altera/18.1/nios2eds/bin/gnu/h-x86_64-mingw32/bin/../lib/gcc/nios2-elf/5.3.0/../../../../../H-x86_64-mingw32/nios2-elf/lib\libc.a(lib_a-dtoa.o)
                                         0x12 (size before relaxing)
 .rodata.str1.4
                0x0000000002046a64        0x2 c:/altera/18.1/nios2eds/bin/gnu/h-x86_64-mingw32/bin/../lib/gcc/nios2-elf/5.3.0/../../../../../H-x86_64-mingw32/nios2-elf/lib\libc.a(lib_a-impure.o)
 *fill*         0x0000000002046a66        0x2 
 .rodata.str1.4
                0x0000000002046a68        0xa c:/altera/18.1/nios2eds/bin/gnu/h-x86_64-mingw32/bin/../lib/gcc/nios2-elf/5.3.0/../../../../../H-x86_64-mingw32/nios2-elf/lib\libc.a(lib_a-locale.o)
                                         0x12 (size before relaxing)
 *fill*         0x0000000002046a72        0x2 
 .rodata.p05.2768
                0x0000000002046a74        0xc c:/altera/18.1/nios2eds/bin/gnu/h-x86_64-mingw32/bin/../lib/gcc/nios2-elf/5.3.0/../../../../../H-x86_64-mingw32/nios2-elf/lib\libc.a(lib_a-mprec.o)
 .rodata.__mprec_tinytens
                0x0000000002046a80       0x28 c:/altera/18.1/nios2eds/bin/gnu/h-x86_64-mingw32/bin/../lib/gcc/nios2-elf/5.3.0/../../../../../H-x86_64-mingw32/nios2-elf/lib\libc.a(lib_a-mprec.o)
                0x0000000002046a80                __mprec_tinytens
 .rodata.__mprec_bigtens
                0x0000000002046aa8       0x28 c:/altera/18.1/nios2eds/bin/gnu/h-x86_64-mingw32/bin/../lib/gcc/nios2-elf/5.3.0/../../../../../H-x86_64-mingw32/nios2-elf/lib\libc.a(lib_a-mprec.o)
                0x0000000002046aa8                __mprec_bigtens
 .rodata.__mprec_tens
                0x0000000002046ad0       0xc8 c:/altera/18.1/nios2eds/bin/gnu/h-x86_64-mingw32/bin/../lib/gcc/nios2-elf/5.3.0/../../../../../H-x86_64-mingw32/nios2-elf/lib\libc.a(lib_a-mprec.o)
                0x0000000002046ad0                __mprec_tens
 .rodata.str1.4
                0x0000000002046b98       0x2f c:/altera/18.1/nios2eds/bin/gnu/h-x86_64-mingw32/bin/../lib/gcc/nios2-elf/5.3.0/../../../../../H-x86_64-mingw32/nios2-elf/lib\libc.a(lib_a-vfiprintf.o)
 .rodata.zeroes.4349
                0x0000000002046b98       0x10 c:/altera/18.1/nios2eds/bin/gnu/h-x86_64-mingw32/bin/../lib/gcc/nios2-elf/5.3.0/../../../../../H-x86_64-mingw32/nios2-elf/lib\libc.a(lib_a-vfiprintf.o)
 .rodata.blanks.4348
                0x0000000002046ba8       0x10 c:/altera/18.1/nios2eds/bin/gnu/h-x86_64-mingw32/bin/../lib/gcc/nios2-elf/5.3.0/../../../../../H-x86_64-mingw32/nios2-elf/lib\libc.a(lib_a-vfiprintf.o)
 .rodata        0x0000000002046bb8      0x100 c:/altera/18.1/nios2eds/bin/gnu/h-x86_64-mingw32/bin/../lib/gcc/nios2-elf/5.3.0\libgcc.a(_clz.o)
                0x0000000002046bb8                __clz_tab
 .rodata        0x0000000002046cb8        0xc ../FreeRTOS_bsp/\libfreertos_bsp.a(alt_main.o)
 .rodata        0x0000000002046cc4        0x5 ../FreeRTOS_bsp/\libfreertos_bsp.a(tasks.o)
 *fill*         0x0000000002046cc9        0x3 
 .rodata        0x0000000002046ccc        0x8 ../FreeRTOS_bsp/\libfreertos_bsp.a(timers.o)
 .rodata        0x0000000002046cd4        0xa ../FreeRTOS_bsp/\libfreertos_bsp.a(alt_dev.o)
 *fill*         0x0000000002046cde        0x2 
 .rodata        0x0000000002046ce0        0x5 ../FreeRTOS_bsp/\libfreertos_bsp.a(altera_tse_ethernetif.o)
 *fill*         0x0000000002046ce5        0x3 
 .rodata        0x0000000002046ce8      0x104 ../FreeRTOS_bsp/\libfreertos_bsp.a(lwip_main.o)
 .rodata        0x0000000002046dec      0x12c ../FreeRTOS_bsp/\libfreertos_bsp.a(memp.o)
                0x0000000002046dec                memp_RAW_PCB
                0x0000000002046dfc                memp_UDP_PCB
                0x0000000002046e0c                memp_TCP_PCB
                0x0000000002046e1c                memp_TCP_PCB_LISTEN
                0x0000000002046e2c                memp_TCP_SEG
                0x0000000002046e3c                memp_REASSDATA
                0x0000000002046e4c                memp_FRAG_PBUF
                0x0000000002046e5c                memp_NETBUF
                0x0000000002046e6c                memp_NETCONN
                0x0000000002046e7c                memp_TCPIP_MSG_API
                0x0000000002046e8c                memp_TCPIP_MSG_INPKT
                0x0000000002046e9c                memp_ARP_QUEUE
                0x0000000002046eac                memp_SYS_TIMEOUT
                0x0000000002046ebc                memp_PBUF
                0x0000000002046ecc                memp_PBUF_POOL
                0x0000000002046edc                memp_pools
 .rodata        0x0000000002046f18       0xc4 ../FreeRTOS_bsp/\libfreertos_bsp.a(tcp.o)
                0x0000000002046fcc                tcp_pcb_lists
 .rodata        0x0000000002046fdc        0xf ../FreeRTOS_bsp/\libfreertos_bsp.a(tcp_in.o)
 *fill*         0x0000000002046feb        0x1 
 .rodata        0x0000000002046fec       0x30 ../FreeRTOS_bsp/\libfreertos_bsp.a(timeouts.o)
                0x0000000002046fec                lwip_cyclic_timers
 .rodata        0x000000000204701c       0x48 ../FreeRTOS_bsp/\libfreertos_bsp.a(alt_sys_init.o)
 .rodata        0x0000000002047064       0x28 ../FreeRTOS_bsp/\libfreertos_bsp.a(tse_ethernet_phys.o)
 .rodata        0x000000000204708c        0xe ../FreeRTOS_bsp/\libfreertos_bsp.a(sockets.o)
 *fill*         0x000000000204709a        0x2 
 .rodata        0x000000000204709c        0xe ../FreeRTOS_bsp/\libfreertos_bsp.a(tcpip.o)
 *fill*         0x00000000020470aa        0x2 
 .rodata        0x00000000020470ac     0x1be2 ../FreeRTOS_bsp/\libfreertos_bsp.a(altera_avalon_tse.o)
 *fill*         0x0000000002048c8e        0x2 
 .rodata        0x0000000002048c90       0x44 ../FreeRTOS_bsp/\libfreertos_bsp.a(err.o)
 .rodata._ctype_
                0x0000000002048cd4      0x101 c:/altera/18.1/nios2eds/bin/gnu/h-x86_64-mingw32/bin/../lib/gcc/nios2-elf/5.3.0/../../../../../H-x86_64-mingw32/nios2-elf/lib\libc.a(lib_a-ctype_.o)
                0x0000000002048cd4                _ctype_
 .rodata._ctype_b
                0x0000000002048dd5      0x180 c:/altera/18.1/nios2eds/bin/gnu/h-x86_64-mingw32/bin/../lib/gcc/nios2-elf/5.3.0/../../../../../H-x86_64-mingw32/nios2-elf/lib\libc.a(lib_a-ctype_.o)
 *fill*         0x0000000002048f55        0x3 
 .rodata.str1.4
                0x0000000002048f58        0x4 c:/altera/18.1/nios2eds/bin/gnu/h-x86_64-mingw32/bin/../lib/gcc/nios2-elf/5.3.0/../../../../../H-x86_64-mingw32/nios2-elf/lib\libc.a(lib_a-puts.o)
                                          0x2 (size before relaxing)
 .rodata.str1.4
                0x0000000002048f5c       0x42 c:/altera/18.1/nios2eds/bin/gnu/h-x86_64-mingw32/bin/../lib/gcc/nios2-elf/5.3.0/../../../../../H-x86_64-mingw32/nios2-elf/lib\libc.a(lib_a-svfprintf.o)
 .rodata.zeroes.4389
                0x0000000002048f5c       0x10 c:/altera/18.1/nios2eds/bin/gnu/h-x86_64-mingw32/bin/../lib/gcc/nios2-elf/5.3.0/../../../../../H-x86_64-mingw32/nios2-elf/lib\libc.a(lib_a-svfprintf.o)
 .rodata.blanks.4388
                0x0000000002048f6c       0x10 c:/altera/18.1/nios2eds/bin/gnu/h-x86_64-mingw32/bin/../lib/gcc/nios2-elf/5.3.0/../../../../../H-x86_64-mingw32/nios2-elf/lib\libc.a(lib_a-svfprintf.o)
 .rodata.str1.4
                0x0000000002048f7c       0x2f c:/altera/18.1/nios2eds/bin/gnu/h-x86_64-mingw32/bin/../lib/gcc/nios2-elf/5.3.0/../../../../../H-x86_64-mingw32/nios2-elf/lib\libc.a(lib_a-svfiprintf.o)
 .rodata.zeroes.4333
                0x0000000002048f7c       0x10 c:/altera/18.1/nios2eds/bin/gnu/h-x86_64-mingw32/bin/../lib/gcc/nios2-elf/5.3.0/../../../../../H-x86_64-mingw32/nios2-elf/lib\libc.a(lib_a-svfiprintf.o)
 .rodata.blanks.4332
                0x0000000002048f8c       0x10 c:/altera/18.1/nios2eds/bin/gnu/h-x86_64-mingw32/bin/../lib/gcc/nios2-elf/5.3.0/../../../../../H-x86_64-mingw32/nios2-elf/lib\libc.a(lib_a-svfiprintf.o)
 *(.rodata1)
                0x0000000002048fac                . = ALIGN (0x4)
                0x0000000002048fac                PROVIDE (__ram_rodata_end, ABSOLUTE (.))
                0x00000000020464fc                PROVIDE (__flash_rodata_start, LOADADDR (.rodata))

.rwdata         0x0000000002048f9c     0x1de4 load address 0x000000000204ad80
                0x0000000002048f9c                PROVIDE (__ram_rwdata_start, ABSOLUTE (.))
                0x0000000002048f9c                . = ALIGN (0x4)
 *(.got.plt)
 *(.got)
 *(.data1)
 *(.data .data.* .gnu.linkonce.d.*)
 .data          0x0000000002048f9c        0x0 ../FreeRTOS_bsp//obj/HAL/src/crt0.o
 .data          0x0000000002048f9c        0x0 obj/default/main.o
 .data          0x0000000002048f9c        0x0 c:/altera/18.1/nios2eds/bin/gnu/h-x86_64-mingw32/bin/../lib/gcc/nios2-elf/5.3.0/../../../../../H-x86_64-mingw32/nios2-elf/lib\libc.a(lib_a-printf.o)
 .data          0x0000000002048f9c        0x0 c:/altera/18.1/nios2eds/bin/gnu/h-x86_64-mingw32/bin/../lib/gcc/nios2-elf/5.3.0/../../../../../H-x86_64-mingw32/nios2-elf/lib\libc.a(lib_a-vfprintf.o)
 .data          0x0000000002048f9c        0x0 c:/altera/18.1/nios2eds/bin/gnu/h-x86_64-mingw32/bin/../lib/gcc/nios2-elf/5.3.0/../../../../../H-x86_64-mingw32/nios2-elf/lib\libc.a(lib_a-wsetup.o)
 .data          0x0000000002048f9c        0x0 c:/altera/18.1/nios2eds/bin/gnu/h-x86_64-mingw32/bin/../lib/gcc/nios2-elf/5.3.0/../../../../../H-x86_64-mingw32/nios2-elf/lib\libc.a(lib_a-dtoa.o)
 .data          0x0000000002048f9c        0x0 c:/altera/18.1/nios2eds/bin/gnu/h-x86_64-mingw32/bin/../lib/gcc/nios2-elf/5.3.0/../../../../../H-x86_64-mingw32/nios2-elf/lib\libc.a(lib_a-fflush.o)
 .data          0x0000000002048f9c        0x0 c:/altera/18.1/nios2eds/bin/gnu/h-x86_64-mingw32/bin/../lib/gcc/nios2-elf/5.3.0/../../../../../H-x86_64-mingw32/nios2-elf/lib\libc.a(lib_a-findfp.o)
 .data          0x0000000002048f9c        0x0 c:/altera/18.1/nios2eds/bin/gnu/h-x86_64-mingw32/bin/../lib/gcc/nios2-elf/5.3.0/../../../../../H-x86_64-mingw32/nios2-elf/lib\libc.a(lib_a-freer.o)
 .data          0x0000000002048f9c        0x0 c:/altera/18.1/nios2eds/bin/gnu/h-x86_64-mingw32/bin/../lib/gcc/nios2-elf/5.3.0/../../../../../H-x86_64-mingw32/nios2-elf/lib\libc.a(lib_a-fwalk.o)
 .data          0x0000000002048f9c        0x0 c:/altera/18.1/nios2eds/bin/gnu/h-x86_64-mingw32/bin/../lib/gcc/nios2-elf/5.3.0/../../../../../H-x86_64-mingw32/nios2-elf/lib\libc.a(lib_a-impure.o)
 .data.impure_data
                0x0000000002048f9c      0x424 c:/altera/18.1/nios2eds/bin/gnu/h-x86_64-mingw32/bin/../lib/gcc/nios2-elf/5.3.0/../../../../../H-x86_64-mingw32/nios2-elf/lib\libc.a(lib_a-impure.o)
 .data          0x00000000020493c0        0x0 c:/altera/18.1/nios2eds/bin/gnu/h-x86_64-mingw32/bin/../lib/gcc/nios2-elf/5.3.0/../../../../../H-x86_64-mingw32/nios2-elf/lib\libc.a(lib_a-locale.o)
 .data.lc_message_charset
                0x00000000020493c0       0x20 c:/altera/18.1/nios2eds/bin/gnu/h-x86_64-mingw32/bin/../lib/gcc/nios2-elf/5.3.0/../../../../../H-x86_64-mingw32/nios2-elf/lib\libc.a(lib_a-locale.o)
 .data.lc_ctype_charset
                0x00000000020493e0       0x20 c:/altera/18.1/nios2eds/bin/gnu/h-x86_64-mingw32/bin/../lib/gcc/nios2-elf/5.3.0/../../../../../H-x86_64-mingw32/nios2-elf/lib\libc.a(lib_a-locale.o)
 .data.lconv    0x0000000002049400       0x38 c:/altera/18.1/nios2eds/bin/gnu/h-x86_64-mingw32/bin/../lib/gcc/nios2-elf/5.3.0/../../../../../H-x86_64-mingw32/nios2-elf/lib\libc.a(lib_a-locale.o)
 .data          0x0000000002049438        0x0 c:/altera/18.1/nios2eds/bin/gnu/h-x86_64-mingw32/bin/../lib/gcc/nios2-elf/5.3.0/../../../../../H-x86_64-mingw32/nios2-elf/lib\libc.a(lib_a-makebuf.o)
 .data          0x0000000002049438        0x0 c:/altera/18.1/nios2eds/bin/gnu/h-x86_64-mingw32/bin/../lib/gcc/nios2-elf/5.3.0/../../../../../H-x86_64-mingw32/nios2-elf/lib\libc.a(lib_a-mallocr.o)
 .data.__malloc_av_
                0x0000000002049438      0x408 c:/altera/18.1/nios2eds/bin/gnu/h-x86_64-mingw32/bin/../lib/gcc/nios2-elf/5.3.0/../../../../../H-x86_64-mingw32/nios2-elf/lib\libc.a(lib_a-mallocr.o)
                0x0000000002049438                __malloc_av_
 .data          0x0000000002049840        0x0 c:/altera/18.1/nios2eds/bin/gnu/h-x86_64-mingw32/bin/../lib/gcc/nios2-elf/5.3.0/../../../../../H-x86_64-mingw32/nios2-elf/lib\libc.a(lib_a-memchr.o)
 .data          0x0000000002049840        0x0 c:/altera/18.1/nios2eds/bin/gnu/h-x86_64-mingw32/bin/../lib/gcc/nios2-elf/5.3.0/../../../../../H-x86_64-mingw32/nios2-elf/lib\libc.a(lib_a-memcpy.o)
 .data          0x0000000002049840        0x0 c:/altera/18.1/nios2eds/bin/gnu/h-x86_64-mingw32/bin/../lib/gcc/nios2-elf/5.3.0/../../../../../H-x86_64-mingw32/nios2-elf/lib\libc.a(lib_a-memset.o)
 .data          0x0000000002049840        0x0 c:/altera/18.1/nios2eds/bin/gnu/h-x86_64-mingw32/bin/../lib/gcc/nios2-elf/5.3.0/../../../../../H-x86_64-mingw32/nios2-elf/lib\libc.a(lib_a-mprec.o)
 .data          0x0000000002049840        0x0 c:/altera/18.1/nios2eds/bin/gnu/h-x86_64-mingw32/bin/../lib/gcc/nios2-elf/5.3.0/../../../../../H-x86_64-mingw32/nios2-elf/lib\libc.a(lib_a-s_fpclassify.o)
 .data          0x0000000002049840        0x0 c:/altera/18.1/nios2eds/bin/gnu/h-x86_64-mingw32/bin/../lib/gcc/nios2-elf/5.3.0/../../../../../H-x86_64-mingw32/nios2-elf/lib\libc.a(lib_a-sbrkr.o)
 .data          0x0000000002049840        0x0 c:/altera/18.1/nios2eds/bin/gnu/h-x86_64-mingw32/bin/../lib/gcc/nios2-elf/5.3.0/../../../../../H-x86_64-mingw32/nios2-elf/lib\libc.a(lib_a-stdio.o)
 .data          0x0000000002049840        0x0 c:/altera/18.1/nios2eds/bin/gnu/h-x86_64-mingw32/bin/../lib/gcc/nios2-elf/5.3.0/../../../../../H-x86_64-mingw32/nios2-elf/lib\libc.a(lib_a-strcmp.o)
 .data          0x0000000002049840        0x0 c:/altera/18.1/nios2eds/bin/gnu/h-x86_64-mingw32/bin/../lib/gcc/nios2-elf/5.3.0/../../../../../H-x86_64-mingw32/nios2-elf/lib\libc.a(lib_a-strlen.o)
 .data          0x0000000002049840        0x0 c:/altera/18.1/nios2eds/bin/gnu/h-x86_64-mingw32/bin/../lib/gcc/nios2-elf/5.3.0/../../../../../H-x86_64-mingw32/nios2-elf/lib\libc.a(lib_a-vfiprintf.o)
 .data          0x0000000002049840        0x0 c:/altera/18.1/nios2eds/bin/gnu/h-x86_64-mingw32/bin/../lib/gcc/nios2-elf/5.3.0/../../../../../H-x86_64-mingw32/nios2-elf/lib\libc.a(lib_a-writer.o)
 .data          0x0000000002049840        0x0 c:/altera/18.1/nios2eds/bin/gnu/h-x86_64-mingw32/bin/../lib/gcc/nios2-elf/5.3.0/../../../../../H-x86_64-mingw32/nios2-elf/lib\libc.a(closer.o)
 .data          0x0000000002049840        0x0 c:/altera/18.1/nios2eds/bin/gnu/h-x86_64-mingw32/bin/../lib/gcc/nios2-elf/5.3.0/../../../../../H-x86_64-mingw32/nios2-elf/lib\libc.a(lib_a-callocr.o)
 .data          0x0000000002049840        0x0 c:/altera/18.1/nios2eds/bin/gnu/h-x86_64-mingw32/bin/../lib/gcc/nios2-elf/5.3.0/../../../../../H-x86_64-mingw32/nios2-elf/lib\libc.a(lib_a-fclose.o)
 .data          0x0000000002049840        0x0 c:/altera/18.1/nios2eds/bin/gnu/h-x86_64-mingw32/bin/../lib/gcc/nios2-elf/5.3.0/../../../../../H-x86_64-mingw32/nios2-elf/lib\libc.a(lib_a-fputwc.o)
 .data          0x0000000002049840        0x0 c:/altera/18.1/nios2eds/bin/gnu/h-x86_64-mingw32/bin/../lib/gcc/nios2-elf/5.3.0/../../../../../H-x86_64-mingw32/nios2-elf/lib\libc.a(lib_a-fstatr.o)
 .data          0x0000000002049840        0x0 c:/altera/18.1/nios2eds/bin/gnu/h-x86_64-mingw32/bin/../lib/gcc/nios2-elf/5.3.0/../../../../../H-x86_64-mingw32/nios2-elf/lib\libc.a(lib_a-fvwrite.o)
 .data          0x0000000002049840        0x0 c:/altera/18.1/nios2eds/bin/gnu/h-x86_64-mingw32/bin/../lib/gcc/nios2-elf/5.3.0/../../../../../H-x86_64-mingw32/nios2-elf/lib\libc.a(lib_a-int_errno.o)
 .data          0x0000000002049840        0x0 c:/altera/18.1/nios2eds/bin/gnu/h-x86_64-mingw32/bin/../lib/gcc/nios2-elf/5.3.0/../../../../../H-x86_64-mingw32/nios2-elf/lib\libc.a(lib_a-isattyr.o)
 .data          0x0000000002049840        0x0 c:/altera/18.1/nios2eds/bin/gnu/h-x86_64-mingw32/bin/../lib/gcc/nios2-elf/5.3.0/../../../../../H-x86_64-mingw32/nios2-elf/lib\libc.a(lib_a-lseekr.o)
 .data          0x0000000002049840        0x0 c:/altera/18.1/nios2eds/bin/gnu/h-x86_64-mingw32/bin/../lib/gcc/nios2-elf/5.3.0/../../../../../H-x86_64-mingw32/nios2-elf/lib\libc.a(lib_a-memmove.o)
 .data          0x0000000002049840        0x0 c:/altera/18.1/nios2eds/bin/gnu/h-x86_64-mingw32/bin/../lib/gcc/nios2-elf/5.3.0/../../../../../H-x86_64-mingw32/nios2-elf/lib\libc.a(lib_a-readr.o)
 .data          0x0000000002049840        0x0 c:/altera/18.1/nios2eds/bin/gnu/h-x86_64-mingw32/bin/../lib/gcc/nios2-elf/5.3.0/../../../../../H-x86_64-mingw32/nios2-elf/lib\libc.a(lib_a-reallocr.o)
 .data          0x0000000002049840        0x0 c:/altera/18.1/nios2eds/bin/gnu/h-x86_64-mingw32/bin/../lib/gcc/nios2-elf/5.3.0/../../../../../H-x86_64-mingw32/nios2-elf/lib\libc.a(lib_a-wbuf.o)
 .data          0x0000000002049840        0x0 c:/altera/18.1/nios2eds/bin/gnu/h-x86_64-mingw32/bin/../lib/gcc/nios2-elf/5.3.0/../../../../../H-x86_64-mingw32/nios2-elf/lib\libc.a(lib_a-wcrtomb.o)
 .data          0x0000000002049840        0x0 c:/altera/18.1/nios2eds/bin/gnu/h-x86_64-mingw32/bin/../lib/gcc/nios2-elf/5.3.0/../../../../../H-x86_64-mingw32/nios2-elf/lib\libc.a(lib_a-wctomb_r.o)
 .data          0x0000000002049840        0x0 c:/altera/18.1/nios2eds/bin/gnu/h-x86_64-mingw32/bin/../lib/gcc/nios2-elf/5.3.0\libgcc.a(_udivdi3.o)
 .data          0x0000000002049840        0x0 c:/altera/18.1/nios2eds/bin/gnu/h-x86_64-mingw32/bin/../lib/gcc/nios2-elf/5.3.0\libgcc.a(_umoddi3.o)
 .data          0x0000000002049840        0x0 c:/altera/18.1/nios2eds/bin/gnu/h-x86_64-mingw32/bin/../lib/gcc/nios2-elf/5.3.0\libgcc.a(lib2-divmod.o)
 .data          0x0000000002049840        0x0 c:/altera/18.1/nios2eds/bin/gnu/h-x86_64-mingw32/bin/../lib/gcc/nios2-elf/5.3.0\libgcc.a(adddf3.o)
 .data          0x0000000002049840        0x0 c:/altera/18.1/nios2eds/bin/gnu/h-x86_64-mingw32/bin/../lib/gcc/nios2-elf/5.3.0\libgcc.a(divdf3.o)
 .data          0x0000000002049840        0x0 c:/altera/18.1/nios2eds/bin/gnu/h-x86_64-mingw32/bin/../lib/gcc/nios2-elf/5.3.0\libgcc.a(eqdf2.o)
 .data          0x0000000002049840        0x0 c:/altera/18.1/nios2eds/bin/gnu/h-x86_64-mingw32/bin/../lib/gcc/nios2-elf/5.3.0\libgcc.a(gedf2.o)
 .data          0x0000000002049840        0x0 c:/altera/18.1/nios2eds/bin/gnu/h-x86_64-mingw32/bin/../lib/gcc/nios2-elf/5.3.0\libgcc.a(ledf2.o)
 .data          0x0000000002049840        0x0 c:/altera/18.1/nios2eds/bin/gnu/h-x86_64-mingw32/bin/../lib/gcc/nios2-elf/5.3.0\libgcc.a(muldf3.o)
 .data          0x0000000002049840        0x0 c:/altera/18.1/nios2eds/bin/gnu/h-x86_64-mingw32/bin/../lib/gcc/nios2-elf/5.3.0\libgcc.a(subdf3.o)
 .data          0x0000000002049840        0x0 c:/altera/18.1/nios2eds/bin/gnu/h-x86_64-mingw32/bin/../lib/gcc/nios2-elf/5.3.0\libgcc.a(fixdfsi.o)
 .data          0x0000000002049840        0x0 c:/altera/18.1/nios2eds/bin/gnu/h-x86_64-mingw32/bin/../lib/gcc/nios2-elf/5.3.0\libgcc.a(floatsidf.o)
 .data          0x0000000002049840        0x0 c:/altera/18.1/nios2eds/bin/gnu/h-x86_64-mingw32/bin/../lib/gcc/nios2-elf/5.3.0\libgcc.a(floatunsidf.o)
 .data          0x0000000002049840        0x0 c:/altera/18.1/nios2eds/bin/gnu/h-x86_64-mingw32/bin/../lib/gcc/nios2-elf/5.3.0\libgcc.a(_clz.o)
 .data          0x0000000002049840        0x0 c:/altera/18.1/nios2eds/bin/gnu/h-x86_64-mingw32/bin/../lib/gcc/nios2-elf/5.3.0\libgcc.a(_clzsi2.o)
 .data          0x0000000002049840        0x0 ../FreeRTOS_bsp/\libfreertos_bsp.a(alt_main.o)
 .data          0x0000000002049840        0x0 ../FreeRTOS_bsp/\libfreertos_bsp.a(alt_malloc_lock.o)
 .data          0x0000000002049840        0x0 ../FreeRTOS_bsp/\libfreertos_bsp.a(queue.o)
 .data          0x0000000002049840        0x0 ../FreeRTOS_bsp/\libfreertos_bsp.a(tasks.o)
 .data          0x0000000002049840        0x0 ../FreeRTOS_bsp/\libfreertos_bsp.a(timers.o)
 .data          0x0000000002049840       0xe8 ../FreeRTOS_bsp/\libfreertos_bsp.a(alt_dev.o)
                0x0000000002049840                alt_dev_null
                0x0000000002049868                alt_fd_list
 .data          0x0000000002049928        0x0 ../FreeRTOS_bsp/\libfreertos_bsp.a(alt_do_ctors.o)
 .data          0x0000000002049928        0x0 ../FreeRTOS_bsp/\libfreertos_bsp.a(alt_do_dtors.o)
 .data          0x0000000002049928        0x0 ../FreeRTOS_bsp/\libfreertos_bsp.a(alt_fstat.o)
 .data          0x0000000002049928        0x0 ../FreeRTOS_bsp/\libfreertos_bsp.a(alt_io_redirect.o)
 .data          0x0000000002049928        0x0 ../FreeRTOS_bsp/\libfreertos_bsp.a(alt_isatty.o)
 .data          0x0000000002049928        0x0 ../FreeRTOS_bsp/\libfreertos_bsp.a(alt_load.o)
 .data          0x0000000002049928        0x0 ../FreeRTOS_bsp/\libfreertos_bsp.a(alt_lseek.o)
 .data          0x0000000002049928        0x0 ../FreeRTOS_bsp/\libfreertos_bsp.a(alt_open.o)
 .data          0x0000000002049928        0x0 ../FreeRTOS_bsp/\libfreertos_bsp.a(alt_printf.o)
 .data          0x0000000002049928        0x0 ../FreeRTOS_bsp/\libfreertos_bsp.a(alt_putchar.o)
 .data          0x0000000002049928        0x0 ../FreeRTOS_bsp/\libfreertos_bsp.a(alt_release_fd.o)
 .data          0x0000000002049928        0x0 ../FreeRTOS_bsp/\libfreertos_bsp.a(alt_sbrk.o)
 .data          0x0000000002049928        0x0 ../FreeRTOS_bsp/\libfreertos_bsp.a(alt_lwip_close.o)
 .data          0x0000000002049928        0x0 ../FreeRTOS_bsp/\libfreertos_bsp.a(alt_lwip_read.o)
 .data          0x0000000002049928        0x0 ../FreeRTOS_bsp/\libfreertos_bsp.a(alt_lwip_write.o)
 .data          0x0000000002049928        0x0 ../FreeRTOS_bsp/\libfreertos_bsp.a(altera_tse_ethernetif.o)
 .data          0x0000000002049928        0x0 ../FreeRTOS_bsp/\libfreertos_bsp.a(lwip_main.o)
 .data          0x0000000002049928        0x0 ../FreeRTOS_bsp/\libfreertos_bsp.a(lwip_tse_mac.o)
 .data          0x0000000002049928        0x0 ../FreeRTOS_bsp/\libfreertos_bsp.a(sys_arch.o)
 .data          0x0000000002049928        0x0 ../FreeRTOS_bsp/\libfreertos_bsp.a(dhcp.o)
 .data          0x0000000002049928        0x0 ../FreeRTOS_bsp/\libfreertos_bsp.a(etharp.o)
 .data          0x0000000002049928        0x0 ../FreeRTOS_bsp/\libfreertos_bsp.a(ip4_addr.o)
 .data          0x0000000002049928        0x0 ../FreeRTOS_bsp/\libfreertos_bsp.a(mem.o)
 .data          0x0000000002049928        0x0 ../FreeRTOS_bsp/\libfreertos_bsp.a(memp.o)
 .data          0x0000000002049928        0x0 ../FreeRTOS_bsp/\libfreertos_bsp.a(netif.o)
 .data          0x0000000002049928        0x0 ../FreeRTOS_bsp/\libfreertos_bsp.a(pbuf.o)
 .data          0x0000000002049928        0x0 ../FreeRTOS_bsp/\libfreertos_bsp.a(raw.o)
 .data          0x0000000002049928        0x0 ../FreeRTOS_bsp/\libfreertos_bsp.a(stats.o)
 .data          0x0000000002049928        0x0 ../FreeRTOS_bsp/\libfreertos_bsp.a(tcp.o)
 .data          0x0000000002049928        0x0 ../FreeRTOS_bsp/\libfreertos_bsp.a(tcp_in.o)
 .data          0x0000000002049928        0x0 ../FreeRTOS_bsp/\libfreertos_bsp.a(tcp_out.o)
 .data          0x0000000002049928        0x0 ../FreeRTOS_bsp/\libfreertos_bsp.a(timeouts.o)
 .data          0x0000000002049928        0x0 ../FreeRTOS_bsp/\libfreertos_bsp.a(udp.o)
 .data          0x0000000002049928        0x0 ../FreeRTOS_bsp/\libfreertos_bsp.a(ethernet.o)
 .data          0x0000000002049928     0x1194 ../FreeRTOS_bsp/\libfreertos_bsp.a(alt_sys_init.o)
 .data          0x000000000204aabc        0x0 ../FreeRTOS_bsp/\libfreertos_bsp.a(altera_avalon_jtag_uart_fd.o)
 .data          0x000000000204aabc        0x0 ../FreeRTOS_bsp/\libfreertos_bsp.a(altera_avalon_jtag_uart_init.o)
 .data          0x000000000204aabc        0x0 ../FreeRTOS_bsp/\libfreertos_bsp.a(altera_avalon_jtag_uart_ioctl.o)
 .data          0x000000000204aabc        0x0 ../FreeRTOS_bsp/\libfreertos_bsp.a(altera_avalon_jtag_uart_read.o)
 .data          0x000000000204aabc        0x0 ../FreeRTOS_bsp/\libfreertos_bsp.a(altera_avalon_jtag_uart_write.o)
 .data          0x000000000204aabc        0x0 ../FreeRTOS_bsp/\libfreertos_bsp.a(altera_avalon_sgdma.o)
 .data          0x000000000204aabc        0x0 ../FreeRTOS_bsp/\libfreertos_bsp.a(altera_avalon_timer_sc.o)
 .data          0x000000000204aabc        0x0 ../FreeRTOS_bsp/\libfreertos_bsp.a(altera_avalon_uart_fd.o)
 .data          0x000000000204aabc        0x0 ../FreeRTOS_bsp/\libfreertos_bsp.a(altera_avalon_uart_init.o)
 .data          0x000000000204aabc        0x0 ../FreeRTOS_bsp/\libfreertos_bsp.a(altera_avalon_uart_read.o)
 .data          0x000000000204aabc        0x0 ../FreeRTOS_bsp/\libfreertos_bsp.a(altera_avalon_uart_write.o)
 .data          0x000000000204aabc        0x0 ../FreeRTOS_bsp/\libfreertos_bsp.a(alt_env_lock.o)
 .data          0x000000000204aabc        0x0 ../FreeRTOS_bsp/\libfreertos_bsp.a(heap_1.o)
 .data          0x000000000204aabc        0x0 ../FreeRTOS_bsp/\libfreertos_bsp.a(list.o)
 .data          0x000000000204aabc        0x0 ../FreeRTOS_bsp/\libfreertos_bsp.a(port.o)
 .data          0x000000000204aabc        0x0 ../FreeRTOS_bsp/\libfreertos_bsp.a(port_asm.o)
 .data          0x000000000204aabc      0x240 ../FreeRTOS_bsp/\libfreertos_bsp.a(tse_ethernet_phys.o)
                0x000000000204aabc                tse_mac_device
 .data          0x000000000204acfc        0x0 ../FreeRTOS_bsp/\libfreertos_bsp.a(alt_alarm_start.o)
 .data          0x000000000204acfc        0x0 ../FreeRTOS_bsp/\libfreertos_bsp.a(alt_close.o)
 .data          0x000000000204acfc        0x0 ../FreeRTOS_bsp/\libfreertos_bsp.a(alt_dcache_flush.o)
 .data          0x000000000204acfc        0x0 ../FreeRTOS_bsp/\libfreertos_bsp.a(alt_dcache_flush_all.o)
 .data          0x000000000204acfc        0x0 ../FreeRTOS_bsp/\libfreertos_bsp.a(alt_dev_llist_insert.o)
 .data          0x000000000204acfc        0x0 ../FreeRTOS_bsp/\libfreertos_bsp.a(alt_errno.o)
 .data          0x000000000204acfc        0x0 ../FreeRTOS_bsp/\libfreertos_bsp.a(alt_find_dev.o)
 .data          0x000000000204acfc        0x0 ../FreeRTOS_bsp/\libfreertos_bsp.a(alt_find_file.o)
 .data          0x000000000204acfc        0x0 ../FreeRTOS_bsp/\libfreertos_bsp.a(alt_get_fd.o)
 .data          0x000000000204acfc        0x0 ../FreeRTOS_bsp/\libfreertos_bsp.a(alt_icache_flush_all.o)
 .data          0x000000000204acfc        0x0 ../FreeRTOS_bsp/\libfreertos_bsp.a(alt_iic.o)
 .data          0x000000000204acfc        0x0 ../FreeRTOS_bsp/\libfreertos_bsp.a(alt_iic_isr_register.o)
 .data          0x000000000204acfc        0x0 ../FreeRTOS_bsp/\libfreertos_bsp.a(alt_irq_handler.o)
 .data          0x000000000204acfc        0x0 ../FreeRTOS_bsp/\libfreertos_bsp.a(alt_irq_vars.o)
 .data          0x000000000204acfc        0x0 ../FreeRTOS_bsp/\libfreertos_bsp.a(alt_read.o)
 .data          0x000000000204acfc        0x0 ../FreeRTOS_bsp/\libfreertos_bsp.a(alt_tick.o)
 .data          0x000000000204acfc        0x0 ../FreeRTOS_bsp/\libfreertos_bsp.a(alt_uncached_malloc.o)
 .data          0x000000000204acfc        0x0 ../FreeRTOS_bsp/\libfreertos_bsp.a(alt_usleep.o)
 .data          0x000000000204acfc        0x0 ../FreeRTOS_bsp/\libfreertos_bsp.a(alt_write.o)
 .data          0x000000000204acfc        0x0 ../FreeRTOS_bsp/\libfreertos_bsp.a(altera_nios2_gen2_irq.o)
 .data          0x000000000204acfc        0x0 ../FreeRTOS_bsp/\libfreertos_bsp.a(sockets.o)
 .data          0x000000000204acfc        0x0 ../FreeRTOS_bsp/\libfreertos_bsp.a(tcpip.o)
 .data          0x000000000204acfc        0x0 ../FreeRTOS_bsp/\libfreertos_bsp.a(altera_avalon_tse.o)
 .data          0x000000000204acfc        0x0 ../FreeRTOS_bsp/\libfreertos_bsp.a(def.o)
 .data          0x000000000204acfc        0x0 ../FreeRTOS_bsp/\libfreertos_bsp.a(inet_chksum.o)
 .data          0x000000000204acfc        0x0 ../FreeRTOS_bsp/\libfreertos_bsp.a(init.o)
 .data          0x000000000204acfc        0x0 ../FreeRTOS_bsp/\libfreertos_bsp.a(ip.o)
 .data          0x000000000204acfc        0x0 ../FreeRTOS_bsp/\libfreertos_bsp.a(acd.o)
 .data          0x000000000204acfc        0x0 ../FreeRTOS_bsp/\libfreertos_bsp.a(icmp.o)
 .data          0x000000000204acfc        0x0 ../FreeRTOS_bsp/\libfreertos_bsp.a(ip4.o)
 .data          0x000000000204acfc        0x0 ../FreeRTOS_bsp/\libfreertos_bsp.a(ip4_frag.o)
 .data          0x000000000204acfc        0x0 ../FreeRTOS_bsp/\libfreertos_bsp.a(alt_busy_sleep.o)
 .data          0x000000000204acfc        0x0 ../FreeRTOS_bsp/\libfreertos_bsp.a(alt_icache_flush.o)
 .data          0x000000000204acfc        0x0 ../FreeRTOS_bsp/\libfreertos_bsp.a(api_lib.o)
 .data          0x000000000204acfc        0x0 ../FreeRTOS_bsp/\libfreertos_bsp.a(api_msg.o)
 .data          0x000000000204acfc        0x0 ../FreeRTOS_bsp/\libfreertos_bsp.a(err.o)
 .data          0x000000000204acfc        0x0 ../FreeRTOS_bsp/\libfreertos_bsp.a(netbuf.o)
 .data          0x000000000204acfc        0x0 c:/altera/18.1/nios2eds/bin/gnu/h-x86_64-mingw32/bin/../lib/gcc/nios2-elf/5.3.0/../../../../../H-x86_64-mingw32/nios2-elf/lib\libc.a(lib_a-atexit.o)
 .data          0x000000000204acfc        0x0 c:/altera/18.1/nios2eds/bin/gnu/h-x86_64-mingw32/bin/../lib/gcc/nios2-elf/5.3.0/../../../../../H-x86_64-mingw32/nios2-elf/lib\libc.a(lib_a-atoi.o)
 .data          0x000000000204acfc        0x0 c:/altera/18.1/nios2eds/bin/gnu/h-x86_64-mingw32/bin/../lib/gcc/nios2-elf/5.3.0/../../../../../H-x86_64-mingw32/nios2-elf/lib\libc.a(lib_a-ctype_.o)
 .data          0x000000000204acfc        0x0 c:/altera/18.1/nios2eds/bin/gnu/h-x86_64-mingw32/bin/../lib/gcc/nios2-elf/5.3.0/../../../../../H-x86_64-mingw32/nios2-elf/lib\libc.a(lib_a-errno.o)
 .data          0x000000000204acfc        0x0 c:/altera/18.1/nios2eds/bin/gnu/h-x86_64-mingw32/bin/../lib/gcc/nios2-elf/5.3.0/../../../../../H-x86_64-mingw32/nios2-elf/lib\libc.a(lib_a-exit.o)
 .data          0x000000000204acfc        0x0 c:/altera/18.1/nios2eds/bin/gnu/h-x86_64-mingw32/bin/../lib/gcc/nios2-elf/5.3.0/../../../../../H-x86_64-mingw32/nios2-elf/lib\libc.a(lib_a-malloc.o)
 .data          0x000000000204acfc        0x0 c:/altera/18.1/nios2eds/bin/gnu/h-x86_64-mingw32/bin/../lib/gcc/nios2-elf/5.3.0/../../../../../H-x86_64-mingw32/nios2-elf/lib\libc.a(lib_a-memcmp.o)
 .data          0x000000000204acfc        0x0 c:/altera/18.1/nios2eds/bin/gnu/h-x86_64-mingw32/bin/../lib/gcc/nios2-elf/5.3.0/../../../../../H-x86_64-mingw32/nios2-elf/lib\libc.a(lib_a-putc.o)
 .data          0x000000000204acfc        0x0 c:/altera/18.1/nios2eds/bin/gnu/h-x86_64-mingw32/bin/../lib/gcc/nios2-elf/5.3.0/../../../../../H-x86_64-mingw32/nios2-elf/lib\libc.a(lib_a-puts.o)
 .data          0x000000000204acfc        0x0 c:/altera/18.1/nios2eds/bin/gnu/h-x86_64-mingw32/bin/../lib/gcc/nios2-elf/5.3.0/../../../../../H-x86_64-mingw32/nios2-elf/lib\libc.a(lib_a-snprintf.o)
 .data          0x000000000204acfc        0x0 c:/altera/18.1/nios2eds/bin/gnu/h-x86_64-mingw32/bin/../lib/gcc/nios2-elf/5.3.0/../../../../../H-x86_64-mingw32/nios2-elf/lib\libc.a(lib_a-strcpy.o)
 .data          0x000000000204acfc        0x0 c:/altera/18.1/nios2eds/bin/gnu/h-x86_64-mingw32/bin/../lib/gcc/nios2-elf/5.3.0/../../../../../H-x86_64-mingw32/nios2-elf/lib\libc.a(lib_a-strncmp.o)
 .data          0x000000000204acfc        0x0 c:/altera/18.1/nios2eds/bin/gnu/h-x86_64-mingw32/bin/../lib/gcc/nios2-elf/5.3.0/../../../../../H-x86_64-mingw32/nios2-elf/lib\libc.a(lib_a-strtol.o)
 .data          0x000000000204acfc        0x0 c:/altera/18.1/nios2eds/bin/gnu/h-x86_64-mingw32/bin/../lib/gcc/nios2-elf/5.3.0/../../../../../H-x86_64-mingw32/nios2-elf/lib\libc.a(lib_a-svfprintf.o)
 .data          0x000000000204acfc        0x0 c:/altera/18.1/nios2eds/bin/gnu/h-x86_64-mingw32/bin/../lib/gcc/nios2-elf/5.3.0/../../../../../H-x86_64-mingw32/nios2-elf/lib\libc.a(lib_a-__atexit.o)
 .data          0x000000000204acfc        0x0 c:/altera/18.1/nios2eds/bin/gnu/h-x86_64-mingw32/bin/../lib/gcc/nios2-elf/5.3.0/../../../../../H-x86_64-mingw32/nios2-elf/lib\libc.a(lib_a-__call_atexit.o)
 .data          0x000000000204acfc        0x0 c:/altera/18.1/nios2eds/bin/gnu/h-x86_64-mingw32/bin/../lib/gcc/nios2-elf/5.3.0/../../../../../H-x86_64-mingw32/nios2-elf/lib\libc.a(lib_a-svfiprintf.o)
 .data          0x000000000204acfc        0x0 ../FreeRTOS_bsp/\libfreertos_bsp.a(alt_exit.o)
                0x0000000002052cfc                _gp = ABSOLUTE ((. + 0x8000))
                [!provide]                        PROVIDE (gp, _gp)
 *(.rwdata .rwdata.*)
 *(.sdata .sdata.* .gnu.linkonce.s.*)
 .sdata._global_impure_ptr
                0x000000000204acfc        0x4 c:/altera/18.1/nios2eds/bin/gnu/h-x86_64-mingw32/bin/../lib/gcc/nios2-elf/5.3.0/../../../../../H-x86_64-mingw32/nios2-elf/lib\libc.a(lib_a-impure.o)
                0x000000000204acfc                _global_impure_ptr
 .sdata._impure_ptr
                0x000000000204ad00        0x4 c:/altera/18.1/nios2eds/bin/gnu/h-x86_64-mingw32/bin/../lib/gcc/nios2-elf/5.3.0/../../../../../H-x86_64-mingw32/nios2-elf/lib\libc.a(lib_a-impure.o)
                0x000000000204ad00                _impure_ptr
 .sdata.__mb_cur_max
                0x000000000204ad04        0x4 c:/altera/18.1/nios2eds/bin/gnu/h-x86_64-mingw32/bin/../lib/gcc/nios2-elf/5.3.0/../../../../../H-x86_64-mingw32/nios2-elf/lib\libc.a(lib_a-locale.o)
                0x000000000204ad04                __mb_cur_max
 .sdata.__malloc_sbrk_base
                0x000000000204ad08        0x4 c:/altera/18.1/nios2eds/bin/gnu/h-x86_64-mingw32/bin/../lib/gcc/nios2-elf/5.3.0/../../../../../H-x86_64-mingw32/nios2-elf/lib\libc.a(lib_a-mallocr.o)
                0x000000000204ad08                __malloc_sbrk_base
 .sdata.__malloc_trim_threshold
                0x000000000204ad0c        0x4 c:/altera/18.1/nios2eds/bin/gnu/h-x86_64-mingw32/bin/../lib/gcc/nios2-elf/5.3.0/../../../../../H-x86_64-mingw32/nios2-elf/lib\libc.a(lib_a-mallocr.o)
                0x000000000204ad0c                __malloc_trim_threshold
 .sdata.__wctomb
                0x000000000204ad10        0x4 c:/altera/18.1/nios2eds/bin/gnu/h-x86_64-mingw32/bin/../lib/gcc/nios2-elf/5.3.0/../../../../../H-x86_64-mingw32/nios2-elf/lib\libc.a(lib_a-wctomb_r.o)
                0x000000000204ad10                __wctomb
 .sdata         0x000000000204ad14       0x14 ../FreeRTOS_bsp/\libfreertos_bsp.a(alt_dev.o)
                0x000000000204ad14                alt_fs_list
                0x000000000204ad1c                alt_dev_list
                0x000000000204ad24                alt_max_fd
 .sdata         0x000000000204ad28        0x4 ../FreeRTOS_bsp/\libfreertos_bsp.a(alt_sbrk.o)
 .sdata         0x000000000204ad2c        0x8 ../FreeRTOS_bsp/\libfreertos_bsp.a(dhcp.o)
 .sdata         0x000000000204ad34        0x8 ../FreeRTOS_bsp/\libfreertos_bsp.a(ip4_addr.o)
                0x000000000204ad34                ip_addr_any
                0x000000000204ad38                ip_addr_broadcast
 .sdata         0x000000000204ad3c       0x10 ../FreeRTOS_bsp/\libfreertos_bsp.a(tcp.o)
 .sdata         0x000000000204ad4c        0x4 ../FreeRTOS_bsp/\libfreertos_bsp.a(timeouts.o)
                0x000000000204ad4c                lwip_num_cyclic_timers
 .sdata         0x000000000204ad50        0x2 ../FreeRTOS_bsp/\libfreertos_bsp.a(udp.o)
 .sdata         0x000000000204ad52        0xc ../FreeRTOS_bsp/\libfreertos_bsp.a(ethernet.o)
                0x000000000204ad52                ethbroadcast
                0x000000000204ad58                ethzero
 *fill*         0x000000000204ad5e        0x2 
 .sdata         0x000000000204ad60        0x8 ../FreeRTOS_bsp/\libfreertos_bsp.a(altera_avalon_sgdma.o)
                0x000000000204ad60                alt_sgdma_list
 .sdata         0x000000000204ad68        0x4 ../FreeRTOS_bsp/\libfreertos_bsp.a(alt_errno.o)
                0x000000000204ad68                alt_errno
 .sdata         0x000000000204ad6c        0x4 ../FreeRTOS_bsp/\libfreertos_bsp.a(alt_irq_vars.o)
                0x000000000204ad6c                alt_priority_mask
 .sdata         0x000000000204ad70        0x8 ../FreeRTOS_bsp/\libfreertos_bsp.a(alt_tick.o)
                0x000000000204ad70                alt_alarm_list
 .sdata         0x000000000204ad78        0x1 ../FreeRTOS_bsp/\libfreertos_bsp.a(altera_avalon_tse.o)
                0x000000000204ad78                max_mac_system
 .sdata         0x000000000204ad79        0x3 ../FreeRTOS_bsp/\libfreertos_bsp.a(api_msg.o)
                0x000000000204ad79                netconn_aborted
                0x000000000204ad7a                netconn_reset
                0x000000000204ad7b                netconn_closed
 .sdata.__ctype_ptr__
                0x000000000204ad7c        0x4 c:/altera/18.1/nios2eds/bin/gnu/h-x86_64-mingw32/bin/../lib/gcc/nios2-elf/5.3.0/../../../../../H-x86_64-mingw32/nios2-elf/lib\libc.a(lib_a-ctype_.o)
                0x000000000204ad7c                __ctype_ptr__
 *(.sdata2 .sdata2.* .gnu.linkonce.s2.*)
                0x000000000204ad80                . = ALIGN (0x4)
                0x000000000204ad80                _edata = ABSOLUTE (.)
                [!provide]                        PROVIDE (edata, ABSOLUTE (.))
                0x000000000204ad80                PROVIDE (__ram_rwdata_end, ABSOLUTE (.))
                0x000000000204ad80                PROVIDE (__flash_rwdata_start, LOADADDR (.rwdata))

.bss            0x000000000204cb64   0x122dbc
                0x000000000204cb64                __bss_start = ABSOLUTE (.)
                [!provide]                        PROVIDE (__sbss_start, ABSOLUTE (.))
                [!provide]                        PROVIDE (___sbss_start, ABSOLUTE (.))
 *(.dynsbss)
 *(.sbss .sbss.* .gnu.linkonce.sb.*)
 .sbss          0x000000000204cb64        0x8 obj/default/main.o
 .sbss          0x000000000204cb6c        0x8 obj/default/main.o
                0x000000000204cb6c                PingIp
                0x000000000204cb70                lwipStaticIp
 .sbss._PathLocale
                0x000000000204cb74        0x4 c:/altera/18.1/nios2eds/bin/gnu/h-x86_64-mingw32/bin/../lib/gcc/nios2-elf/5.3.0/../../../../../H-x86_64-mingw32/nios2-elf/lib\libc.a(lib_a-locale.o)
                0x000000000204cb74                _PathLocale
 .sbss.__mlocale_changed
                0x000000000204cb78        0x4 c:/altera/18.1/nios2eds/bin/gnu/h-x86_64-mingw32/bin/../lib/gcc/nios2-elf/5.3.0/../../../../../H-x86_64-mingw32/nios2-elf/lib\libc.a(lib_a-locale.o)
                0x000000000204cb78                __mlocale_changed
 .sbss.__nlocale_changed
                0x000000000204cb7c        0x4 c:/altera/18.1/nios2eds/bin/gnu/h-x86_64-mingw32/bin/../lib/gcc/nios2-elf/5.3.0/../../../../../H-x86_64-mingw32/nios2-elf/lib\libc.a(lib_a-locale.o)
                0x000000000204cb7c                __nlocale_changed
 .sbss.__malloc_max_total_mem
                0x000000000204cb80        0x4 c:/altera/18.1/nios2eds/bin/gnu/h-x86_64-mingw32/bin/../lib/gcc/nios2-elf/5.3.0/../../../../../H-x86_64-mingw32/nios2-elf/lib\libc.a(lib_a-mallocr.o)
                0x000000000204cb80                __malloc_max_total_mem
 .sbss.__malloc_max_sbrked_mem
                0x000000000204cb84        0x4 c:/altera/18.1/nios2eds/bin/gnu/h-x86_64-mingw32/bin/../lib/gcc/nios2-elf/5.3.0/../../../../../H-x86_64-mingw32/nios2-elf/lib\libc.a(lib_a-mallocr.o)
                0x000000000204cb84                __malloc_max_sbrked_mem
 .sbss.__malloc_top_pad
                0x000000000204cb88        0x4 c:/altera/18.1/nios2eds/bin/gnu/h-x86_64-mingw32/bin/../lib/gcc/nios2-elf/5.3.0/../../../../../H-x86_64-mingw32/nios2-elf/lib\libc.a(lib_a-mallocr.o)
                0x000000000204cb88                __malloc_top_pad
 .sbss          0x000000000204cb8c        0x4 c:/altera/18.1/nios2eds/bin/gnu/h-x86_64-mingw32/bin/../lib/gcc/nios2-elf/5.3.0/../../../../../H-x86_64-mingw32/nios2-elf/lib\libc.a(lib_a-int_errno.o)
                0x000000000204cb8c                errno
 .sbss          0x000000000204cb90        0xc ../FreeRTOS_bsp/\libfreertos_bsp.a(alt_main.o)
                0x000000000204cb90                alt_argc
                0x000000000204cb94                alt_argv
                0x000000000204cb98                alt_envp
 .sbss          0x000000000204cb9c        0x4 ../FreeRTOS_bsp/\libfreertos_bsp.a(alt_malloc_lock.o)
                0x000000000204cb9c                alt_heapsem
 .sbss          0x000000000204cba0       0x3c ../FreeRTOS_bsp/\libfreertos_bsp.a(tasks.o)
                0x000000000204cba0                pxCurrentTCB
 .sbss          0x000000000204cbdc       0x14 ../FreeRTOS_bsp/\libfreertos_bsp.a(timers.o)
 .sbss          0x000000000204cbf0        0x4 ../FreeRTOS_bsp/\libfreertos_bsp.a(alt_dev.o)
                0x000000000204cbf0                alt_fd_list_lock
 .sbss          0x000000000204cbf4       0x18 ../FreeRTOS_bsp/\libfreertos_bsp.a(lwip_main.o)
                0x000000000204cbfc                tx_counter
                0x000000000204cc00                rx_counter
                0x000000000204cc04                rx_missed_packets
                0x000000000204cc08                rx_faulty_packets
 .sbss          0x000000000204cc0c        0xd ../FreeRTOS_bsp/\libfreertos_bsp.a(dhcp.o)
                0x000000000204cc11                dhcp_rx_options_given
 *fill*         0x000000000204cc19        0x3 
 .sbss          0x000000000204cc1c       0x10 ../FreeRTOS_bsp/\libfreertos_bsp.a(mem.o)
 .sbss          0x000000000204cc2c       0x3c ../FreeRTOS_bsp/\libfreertos_bsp.a(memp.o)
 .sbss          0x000000000204cc68        0xc ../FreeRTOS_bsp/\libfreertos_bsp.a(netif.o)
                0x000000000204cc6c                netif_list
                0x000000000204cc70                netif_default
 .sbss          0x000000000204cc74        0x1 ../FreeRTOS_bsp/\libfreertos_bsp.a(pbuf.o)
                0x000000000204cc74                pbuf_free_ooseq_pending
 *fill*         0x000000000204cc75        0x3 
 .sbss          0x000000000204cc78        0x4 ../FreeRTOS_bsp/\libfreertos_bsp.a(raw.o)
 .sbss          0x000000000204cc7c       0x18 ../FreeRTOS_bsp/\libfreertos_bsp.a(tcp.o)
                0x000000000204cc7e                tcp_active_pcbs_changed
                0x000000000204cc80                tcp_active_pcbs
                0x000000000204cc84                tcp_ticks
                0x000000000204cc88                tcp_listen_pcbs
                0x000000000204cc8c                tcp_bound_pcbs
                0x000000000204cc90                tcp_tw_pcbs
 .sbss          0x000000000204cc94       0x28 ../FreeRTOS_bsp/\libfreertos_bsp.a(tcp_in.o)
                0x000000000204ccb8                tcp_input_pcb
 .sbss          0x000000000204ccbc        0xc ../FreeRTOS_bsp/\libfreertos_bsp.a(timeouts.o)
 .sbss          0x000000000204ccc8        0x4 ../FreeRTOS_bsp/\libfreertos_bsp.a(udp.o)
                0x000000000204ccc8                udp_pcbs
 .sbss          0x000000000204cccc        0x4 ../FreeRTOS_bsp/\libfreertos_bsp.a(alt_env_lock.o)
                0x000000000204cccc                alt_envsem
 .sbss          0x000000000204ccd0        0x8 ../FreeRTOS_bsp/\libfreertos_bsp.a(heap_1.o)
 .sbss          0x000000000204ccd8        0x4 ../FreeRTOS_bsp/\libfreertos_bsp.a(port.o)
 .sbss          0x000000000204ccdc        0x4 ../FreeRTOS_bsp/\libfreertos_bsp.a(alt_irq_vars.o)
                0x000000000204ccdc                alt_irq_active
 .sbss          0x000000000204cce0        0x8 ../FreeRTOS_bsp/\libfreertos_bsp.a(alt_tick.o)
                0x000000000204cce0                _alt_tick_rate
                0x000000000204cce4                _alt_nticks
 .sbss          0x000000000204cce8        0x8 ../FreeRTOS_bsp/\libfreertos_bsp.a(sockets.o)
 .sbss          0x000000000204ccf0        0xc ../FreeRTOS_bsp/\libfreertos_bsp.a(tcpip.o)
 .sbss          0x000000000204ccfc        0x4 ../FreeRTOS_bsp/\libfreertos_bsp.a(altera_avalon_tse.o)
                0x000000000204ccfc                phy_profile_count
                0x000000000204ccfd                mac_group_count
 .sbss          0x000000000204cd00        0x2 ../FreeRTOS_bsp/\libfreertos_bsp.a(ip4.o)
 *fill*         0x000000000204cd02        0x2 
 .sbss          0x000000000204cd04        0x6 ../FreeRTOS_bsp/\libfreertos_bsp.a(ip4_frag.o)
 *(.sbss2 .sbss2.* .gnu.linkonce.sb2.*)
 *(.scommon)
                [!provide]                        PROVIDE (__sbss_end, ABSOLUTE (.))
                [!provide]                        PROVIDE (___sbss_end, ABSOLUTE (.))
 *(.dynbss)
 *(.bss .bss.* .gnu.linkonce.b.*)
 .bss           0x000000000204cd0a        0x0 ../FreeRTOS_bsp//obj/HAL/src/crt0.o
 .bss           0x000000000204cd0a        0x0 obj/default/main.o
 .bss           0x000000000204cd0a        0x0 c:/altera/18.1/nios2eds/bin/gnu/h-x86_64-mingw32/bin/../lib/gcc/nios2-elf/5.3.0/../../../../../H-x86_64-mingw32/nios2-elf/lib\libc.a(lib_a-printf.o)
 .bss           0x000000000204cd0a        0x0 c:/altera/18.1/nios2eds/bin/gnu/h-x86_64-mingw32/bin/../lib/gcc/nios2-elf/5.3.0/../../../../../H-x86_64-mingw32/nios2-elf/lib\libc.a(lib_a-vfprintf.o)
 .bss           0x000000000204cd0a        0x0 c:/altera/18.1/nios2eds/bin/gnu/h-x86_64-mingw32/bin/../lib/gcc/nios2-elf/5.3.0/../../../../../H-x86_64-mingw32/nios2-elf/lib\libc.a(lib_a-wsetup.o)
 .bss           0x000000000204cd0a        0x0 c:/altera/18.1/nios2eds/bin/gnu/h-x86_64-mingw32/bin/../lib/gcc/nios2-elf/5.3.0/../../../../../H-x86_64-mingw32/nios2-elf/lib\libc.a(lib_a-dtoa.o)
 .bss           0x000000000204cd0a        0x0 c:/altera/18.1/nios2eds/bin/gnu/h-x86_64-mingw32/bin/../lib/gcc/nios2-elf/5.3.0/../../../../../H-x86_64-mingw32/nios2-elf/lib\libc.a(lib_a-fflush.o)
 .bss           0x000000000204cd0a        0x0 c:/altera/18.1/nios2eds/bin/gnu/h-x86_64-mingw32/bin/../lib/gcc/nios2-elf/5.3.0/../../../../../H-x86_64-mingw32/nios2-elf/lib\libc.a(lib_a-findfp.o)
 .bss           0x000000000204cd0a        0x0 c:/altera/18.1/nios2eds/bin/gnu/h-x86_64-mingw32/bin/../lib/gcc/nios2-elf/5.3.0/../../../../../H-x86_64-mingw32/nios2-elf/lib\libc.a(lib_a-freer.o)
 .bss           0x000000000204cd0a        0x0 c:/altera/18.1/nios2eds/bin/gnu/h-x86_64-mingw32/bin/../lib/gcc/nios2-elf/5.3.0/../../../../../H-x86_64-mingw32/nios2-elf/lib\libc.a(lib_a-fwalk.o)
 .bss           0x000000000204cd0a        0x0 c:/altera/18.1/nios2eds/bin/gnu/h-x86_64-mingw32/bin/../lib/gcc/nios2-elf/5.3.0/../../../../../H-x86_64-mingw32/nios2-elf/lib\libc.a(lib_a-impure.o)
 .bss           0x000000000204cd0a        0x0 c:/altera/18.1/nios2eds/bin/gnu/h-x86_64-mingw32/bin/../lib/gcc/nios2-elf/5.3.0/../../../../../H-x86_64-mingw32/nios2-elf/lib\libc.a(lib_a-locale.o)
 .bss           0x000000000204cd0a        0x0 c:/altera/18.1/nios2eds/bin/gnu/h-x86_64-mingw32/bin/../lib/gcc/nios2-elf/5.3.0/../../../../../H-x86_64-mingw32/nios2-elf/lib\libc.a(lib_a-makebuf.o)
 .bss           0x000000000204cd0a        0x0 c:/altera/18.1/nios2eds/bin/gnu/h-x86_64-mingw32/bin/../lib/gcc/nios2-elf/5.3.0/../../../../../H-x86_64-mingw32/nios2-elf/lib\libc.a(lib_a-mallocr.o)
 *fill*         0x000000000204cd0a        0x2 
 .bss.__malloc_current_mallinfo
                0x000000000204cd0c       0x28 c:/altera/18.1/nios2eds/bin/gnu/h-x86_64-mingw32/bin/../lib/gcc/nios2-elf/5.3.0/../../../../../H-x86_64-mingw32/nios2-elf/lib\libc.a(lib_a-mallocr.o)
                0x000000000204cd0c                __malloc_current_mallinfo
 .bss           0x000000000204cd34        0x0 c:/altera/18.1/nios2eds/bin/gnu/h-x86_64-mingw32/bin/../lib/gcc/nios2-elf/5.3.0/../../../../../H-x86_64-mingw32/nios2-elf/lib\libc.a(lib_a-memchr.o)
 .bss           0x000000000204cd34        0x0 c:/altera/18.1/nios2eds/bin/gnu/h-x86_64-mingw32/bin/../lib/gcc/nios2-elf/5.3.0/../../../../../H-x86_64-mingw32/nios2-elf/lib\libc.a(lib_a-memcpy.o)
 .bss           0x000000000204cd34        0x0 c:/altera/18.1/nios2eds/bin/gnu/h-x86_64-mingw32/bin/../lib/gcc/nios2-elf/5.3.0/../../../../../H-x86_64-mingw32/nios2-elf/lib\libc.a(lib_a-memset.o)
 .bss           0x000000000204cd34        0x0 c:/altera/18.1/nios2eds/bin/gnu/h-x86_64-mingw32/bin/../lib/gcc/nios2-elf/5.3.0/../../../../../H-x86_64-mingw32/nios2-elf/lib\libc.a(lib_a-mprec.o)
 .bss           0x000000000204cd34        0x0 c:/altera/18.1/nios2eds/bin/gnu/h-x86_64-mingw32/bin/../lib/gcc/nios2-elf/5.3.0/../../../../../H-x86_64-mingw32/nios2-elf/lib\libc.a(lib_a-s_fpclassify.o)
 .bss           0x000000000204cd34        0x0 c:/altera/18.1/nios2eds/bin/gnu/h-x86_64-mingw32/bin/../lib/gcc/nios2-elf/5.3.0/../../../../../H-x86_64-mingw32/nios2-elf/lib\libc.a(lib_a-sbrkr.o)
 .bss           0x000000000204cd34        0x0 c:/altera/18.1/nios2eds/bin/gnu/h-x86_64-mingw32/bin/../lib/gcc/nios2-elf/5.3.0/../../../../../H-x86_64-mingw32/nios2-elf/lib\libc.a(lib_a-stdio.o)
 .bss           0x000000000204cd34        0x0 c:/altera/18.1/nios2eds/bin/gnu/h-x86_64-mingw32/bin/../lib/gcc/nios2-elf/5.3.0/../../../../../H-x86_64-mingw32/nios2-elf/lib\libc.a(lib_a-strcmp.o)
 .bss           0x000000000204cd34        0x0 c:/altera/18.1/nios2eds/bin/gnu/h-x86_64-mingw32/bin/../lib/gcc/nios2-elf/5.3.0/../../../../../H-x86_64-mingw32/nios2-elf/lib\libc.a(lib_a-strlen.o)
 .bss           0x000000000204cd34        0x0 c:/altera/18.1/nios2eds/bin/gnu/h-x86_64-mingw32/bin/../lib/gcc/nios2-elf/5.3.0/../../../../../H-x86_64-mingw32/nios2-elf/lib\libc.a(lib_a-vfiprintf.o)
 .bss           0x000000000204cd34        0x0 c:/altera/18.1/nios2eds/bin/gnu/h-x86_64-mingw32/bin/../lib/gcc/nios2-elf/5.3.0/../../../../../H-x86_64-mingw32/nios2-elf/lib\libc.a(lib_a-writer.o)
 .bss           0x000000000204cd34        0x0 c:/altera/18.1/nios2eds/bin/gnu/h-x86_64-mingw32/bin/../lib/gcc/nios2-elf/5.3.0/../../../../../H-x86_64-mingw32/nios2-elf/lib\libc.a(closer.o)
 .bss           0x000000000204cd34        0x0 c:/altera/18.1/nios2eds/bin/gnu/h-x86_64-mingw32/bin/../lib/gcc/nios2-elf/5.3.0/../../../../../H-x86_64-mingw32/nios2-elf/lib\libc.a(lib_a-callocr.o)
 .bss           0x000000000204cd34        0x0 c:/altera/18.1/nios2eds/bin/gnu/h-x86_64-mingw32/bin/../lib/gcc/nios2-elf/5.3.0/../../../../../H-x86_64-mingw32/nios2-elf/lib\libc.a(lib_a-fclose.o)
 .bss           0x000000000204cd34        0x0 c:/altera/18.1/nios2eds/bin/gnu/h-x86_64-mingw32/bin/../lib/gcc/nios2-elf/5.3.0/../../../../../H-x86_64-mingw32/nios2-elf/lib\libc.a(lib_a-fputwc.o)
 .bss           0x000000000204cd34        0x0 c:/altera/18.1/nios2eds/bin/gnu/h-x86_64-mingw32/bin/../lib/gcc/nios2-elf/5.3.0/../../../../../H-x86_64-mingw32/nios2-elf/lib\libc.a(lib_a-fstatr.o)
 .bss           0x000000000204cd34        0x0 c:/altera/18.1/nios2eds/bin/gnu/h-x86_64-mingw32/bin/../lib/gcc/nios2-elf/5.3.0/../../../../../H-x86_64-mingw32/nios2-elf/lib\libc.a(lib_a-fvwrite.o)
 .bss           0x000000000204cd34        0x0 c:/altera/18.1/nios2eds/bin/gnu/h-x86_64-mingw32/bin/../lib/gcc/nios2-elf/5.3.0/../../../../../H-x86_64-mingw32/nios2-elf/lib\libc.a(lib_a-int_errno.o)
 .bss           0x000000000204cd34        0x0 c:/altera/18.1/nios2eds/bin/gnu/h-x86_64-mingw32/bin/../lib/gcc/nios2-elf/5.3.0/../../../../../H-x86_64-mingw32/nios2-elf/lib\libc.a(lib_a-isattyr.o)
 .bss           0x000000000204cd34        0x0 c:/altera/18.1/nios2eds/bin/gnu/h-x86_64-mingw32/bin/../lib/gcc/nios2-elf/5.3.0/../../../../../H-x86_64-mingw32/nios2-elf/lib\libc.a(lib_a-lseekr.o)
 .bss           0x000000000204cd34        0x0 c:/altera/18.1/nios2eds/bin/gnu/h-x86_64-mingw32/bin/../lib/gcc/nios2-elf/5.3.0/../../../../../H-x86_64-mingw32/nios2-elf/lib\libc.a(lib_a-memmove.o)
 .bss           0x000000000204cd34        0x0 c:/altera/18.1/nios2eds/bin/gnu/h-x86_64-mingw32/bin/../lib/gcc/nios2-elf/5.3.0/../../../../../H-x86_64-mingw32/nios2-elf/lib\libc.a(lib_a-readr.o)
 .bss           0x000000000204cd34        0x0 c:/altera/18.1/nios2eds/bin/gnu/h-x86_64-mingw32/bin/../lib/gcc/nios2-elf/5.3.0/../../../../../H-x86_64-mingw32/nios2-elf/lib\libc.a(lib_a-reallocr.o)
 .bss           0x000000000204cd34        0x0 c:/altera/18.1/nios2eds/bin/gnu/h-x86_64-mingw32/bin/../lib/gcc/nios2-elf/5.3.0/../../../../../H-x86_64-mingw32/nios2-elf/lib\libc.a(lib_a-wbuf.o)
 .bss           0x000000000204cd34        0x0 c:/altera/18.1/nios2eds/bin/gnu/h-x86_64-mingw32/bin/../lib/gcc/nios2-elf/5.3.0/../../../../../H-x86_64-mingw32/nios2-elf/lib\libc.a(lib_a-wcrtomb.o)
 .bss           0x000000000204cd34        0x0 c:/altera/18.1/nios2eds/bin/gnu/h-x86_64-mingw32/bin/../lib/gcc/nios2-elf/5.3.0/../../../../../H-x86_64-mingw32/nios2-elf/lib\libc.a(lib_a-wctomb_r.o)
 .bss           0x000000000204cd34        0x0 c:/altera/18.1/nios2eds/bin/gnu/h-x86_64-mingw32/bin/../lib/gcc/nios2-elf/5.3.0\libgcc.a(_udivdi3.o)
 .bss           0x000000000204cd34        0x0 c:/altera/18.1/nios2eds/bin/gnu/h-x86_64-mingw32/bin/../lib/gcc/nios2-elf/5.3.0\libgcc.a(_umoddi3.o)
 .bss           0x000000000204cd34        0x0 c:/altera/18.1/nios2eds/bin/gnu/h-x86_64-mingw32/bin/../lib/gcc/nios2-elf/5.3.0\libgcc.a(lib2-divmod.o)
 .bss           0x000000000204cd34        0x0 c:/altera/18.1/nios2eds/bin/gnu/h-x86_64-mingw32/bin/../lib/gcc/nios2-elf/5.3.0\libgcc.a(adddf3.o)
 .bss           0x000000000204cd34        0x0 c:/altera/18.1/nios2eds/bin/gnu/h-x86_64-mingw32/bin/../lib/gcc/nios2-elf/5.3.0\libgcc.a(divdf3.o)
 .bss           0x000000000204cd34        0x0 c:/altera/18.1/nios2eds/bin/gnu/h-x86_64-mingw32/bin/../lib/gcc/nios2-elf/5.3.0\libgcc.a(eqdf2.o)
 .bss           0x000000000204cd34        0x0 c:/altera/18.1/nios2eds/bin/gnu/h-x86_64-mingw32/bin/../lib/gcc/nios2-elf/5.3.0\libgcc.a(gedf2.o)
 .bss           0x000000000204cd34        0x0 c:/altera/18.1/nios2eds/bin/gnu/h-x86_64-mingw32/bin/../lib/gcc/nios2-elf/5.3.0\libgcc.a(ledf2.o)
 .bss           0x000000000204cd34        0x0 c:/altera/18.1/nios2eds/bin/gnu/h-x86_64-mingw32/bin/../lib/gcc/nios2-elf/5.3.0\libgcc.a(muldf3.o)
 .bss           0x000000000204cd34        0x0 c:/altera/18.1/nios2eds/bin/gnu/h-x86_64-mingw32/bin/../lib/gcc/nios2-elf/5.3.0\libgcc.a(subdf3.o)
 .bss           0x000000000204cd34        0x0 c:/altera/18.1/nios2eds/bin/gnu/h-x86_64-mingw32/bin/../lib/gcc/nios2-elf/5.3.0\libgcc.a(fixdfsi.o)
 .bss           0x000000000204cd34        0x0 c:/altera/18.1/nios2eds/bin/gnu/h-x86_64-mingw32/bin/../lib/gcc/nios2-elf/5.3.0\libgcc.a(floatsidf.o)
 .bss           0x000000000204cd34        0x0 c:/altera/18.1/nios2eds/bin/gnu/h-x86_64-mingw32/bin/../lib/gcc/nios2-elf/5.3.0\libgcc.a(floatunsidf.o)
 .bss           0x000000000204cd34        0x0 c:/altera/18.1/nios2eds/bin/gnu/h-x86_64-mingw32/bin/../lib/gcc/nios2-elf/5.3.0\libgcc.a(_clz.o)
 .bss           0x000000000204cd34        0x0 c:/altera/18.1/nios2eds/bin/gnu/h-x86_64-mingw32/bin/../lib/gcc/nios2-elf/5.3.0\libgcc.a(_clzsi2.o)
 .bss           0x000000000204cd34        0x0 ../FreeRTOS_bsp/\libfreertos_bsp.a(alt_main.o)
 .bss           0x000000000204cd34        0x0 ../FreeRTOS_bsp/\libfreertos_bsp.a(alt_malloc_lock.o)
 .bss           0x000000000204cd34        0x0 ../FreeRTOS_bsp/\libfreertos_bsp.a(queue.o)
 .bss           0x000000000204cd34       0xc8 ../FreeRTOS_bsp/\libfreertos_bsp.a(tasks.o)
 .bss           0x000000000204cdfc       0x28 ../FreeRTOS_bsp/\libfreertos_bsp.a(timers.o)
 .bss           0x000000000204ce24        0x0 ../FreeRTOS_bsp/\libfreertos_bsp.a(alt_dev.o)
 .bss           0x000000000204ce24        0x0 ../FreeRTOS_bsp/\libfreertos_bsp.a(alt_do_ctors.o)
 .bss           0x000000000204ce24        0x0 ../FreeRTOS_bsp/\libfreertos_bsp.a(alt_do_dtors.o)
 .bss           0x000000000204ce24        0x0 ../FreeRTOS_bsp/\libfreertos_bsp.a(alt_fstat.o)
 .bss           0x000000000204ce24        0x0 ../FreeRTOS_bsp/\libfreertos_bsp.a(alt_io_redirect.o)
 .bss           0x000000000204ce24        0x0 ../FreeRTOS_bsp/\libfreertos_bsp.a(alt_isatty.o)
 .bss           0x000000000204ce24        0x0 ../FreeRTOS_bsp/\libfreertos_bsp.a(alt_load.o)
 .bss           0x000000000204ce24        0x0 ../FreeRTOS_bsp/\libfreertos_bsp.a(alt_lseek.o)
 .bss           0x000000000204ce24        0x0 ../FreeRTOS_bsp/\libfreertos_bsp.a(alt_open.o)
 .bss           0x000000000204ce24        0x0 ../FreeRTOS_bsp/\libfreertos_bsp.a(alt_printf.o)
 .bss           0x000000000204ce24        0x0 ../FreeRTOS_bsp/\libfreertos_bsp.a(alt_putchar.o)
 .bss           0x000000000204ce24        0x0 ../FreeRTOS_bsp/\libfreertos_bsp.a(alt_release_fd.o)
 .bss           0x000000000204ce24        0x0 ../FreeRTOS_bsp/\libfreertos_bsp.a(alt_sbrk.o)
 .bss           0x000000000204ce24        0x0 ../FreeRTOS_bsp/\libfreertos_bsp.a(alt_lwip_close.o)
 .bss           0x000000000204ce24        0x0 ../FreeRTOS_bsp/\libfreertos_bsp.a(alt_lwip_read.o)
 .bss           0x000000000204ce24        0x0 ../FreeRTOS_bsp/\libfreertos_bsp.a(alt_lwip_write.o)
 .bss           0x000000000204ce24        0x0 ../FreeRTOS_bsp/\libfreertos_bsp.a(altera_tse_ethernetif.o)
 .bss           0x000000000204ce24        0x0 ../FreeRTOS_bsp/\libfreertos_bsp.a(lwip_main.o)
 .bss           0x000000000204ce24        0x0 ../FreeRTOS_bsp/\libfreertos_bsp.a(lwip_tse_mac.o)
 .bss           0x000000000204ce24        0x0 ../FreeRTOS_bsp/\libfreertos_bsp.a(sys_arch.o)
 .bss           0x000000000204ce24        0x0 ../FreeRTOS_bsp/\libfreertos_bsp.a(dhcp.o)
 .bss           0x000000000204ce24      0x258 ../FreeRTOS_bsp/\libfreertos_bsp.a(etharp.o)
 .bss           0x000000000204d07c       0x10 ../FreeRTOS_bsp/\libfreertos_bsp.a(ip4_addr.o)
 .bss           0x000000000204d08c        0x0 ../FreeRTOS_bsp/\libfreertos_bsp.a(mem.o)
 .bss           0x000000000204d08c       0xf0 ../FreeRTOS_bsp/\libfreertos_bsp.a(memp.o)
 .bss           0x000000000204d17c        0x0 ../FreeRTOS_bsp/\libfreertos_bsp.a(netif.o)
 .bss           0x000000000204d17c        0x0 ../FreeRTOS_bsp/\libfreertos_bsp.a(pbuf.o)
 .bss           0x000000000204d17c        0x0 ../FreeRTOS_bsp/\libfreertos_bsp.a(raw.o)
 .bss           0x000000000204d17c        0x0 ../FreeRTOS_bsp/\libfreertos_bsp.a(stats.o)
 .bss           0x000000000204d17c        0x0 ../FreeRTOS_bsp/\libfreertos_bsp.a(tcp.o)
 .bss           0x000000000204d17c       0x14 ../FreeRTOS_bsp/\libfreertos_bsp.a(tcp_in.o)
 .bss           0x000000000204d190        0x0 ../FreeRTOS_bsp/\libfreertos_bsp.a(tcp_out.o)
 .bss           0x000000000204d190        0x0 ../FreeRTOS_bsp/\libfreertos_bsp.a(timeouts.o)
 .bss           0x000000000204d190        0x0 ../FreeRTOS_bsp/\libfreertos_bsp.a(udp.o)
 .bss           0x000000000204d190        0x0 ../FreeRTOS_bsp/\libfreertos_bsp.a(ethernet.o)
 .bss           0x000000000204d190        0x0 ../FreeRTOS_bsp/\libfreertos_bsp.a(alt_sys_init.o)
 .bss           0x000000000204d190        0x0 ../FreeRTOS_bsp/\libfreertos_bsp.a(altera_avalon_jtag_uart_fd.o)
 .bss           0x000000000204d190        0x0 ../FreeRTOS_bsp/\libfreertos_bsp.a(altera_avalon_jtag_uart_init.o)
 .bss           0x000000000204d190        0x0 ../FreeRTOS_bsp/\libfreertos_bsp.a(altera_avalon_jtag_uart_ioctl.o)
 .bss           0x000000000204d190        0x0 ../FreeRTOS_bsp/\libfreertos_bsp.a(altera_avalon_jtag_uart_read.o)
 .bss           0x000000000204d190        0x0 ../FreeRTOS_bsp/\libfreertos_bsp.a(altera_avalon_jtag_uart_write.o)
 .bss           0x000000000204d190        0x0 ../FreeRTOS_bsp/\libfreertos_bsp.a(altera_avalon_sgdma.o)
 .bss           0x000000000204d190        0x0 ../FreeRTOS_bsp/\libfreertos_bsp.a(altera_avalon_timer_sc.o)
 .bss           0x000000000204d190        0x0 ../FreeRTOS_bsp/\libfreertos_bsp.a(altera_avalon_uart_fd.o)
 .bss           0x000000000204d190        0x0 ../FreeRTOS_bsp/\libfreertos_bsp.a(altera_avalon_uart_init.o)
 .bss           0x000000000204d190        0x0 ../FreeRTOS_bsp/\libfreertos_bsp.a(altera_avalon_uart_read.o)
 .bss           0x000000000204d190        0x0 ../FreeRTOS_bsp/\libfreertos_bsp.a(altera_avalon_uart_write.o)
 .bss           0x000000000204d190        0x0 ../FreeRTOS_bsp/\libfreertos_bsp.a(alt_env_lock.o)
 .bss           0x000000000204d190   0x100000 ../FreeRTOS_bsp/\libfreertos_bsp.a(heap_1.o)
 .bss           0x000000000214d190        0x0 ../FreeRTOS_bsp/\libfreertos_bsp.a(list.o)
 .bss           0x000000000214d190        0x0 ../FreeRTOS_bsp/\libfreertos_bsp.a(port.o)
 .bss           0x000000000214d190        0x0 ../FreeRTOS_bsp/\libfreertos_bsp.a(port_asm.o)
 .bss           0x000000000214d190        0x0 ../FreeRTOS_bsp/\libfreertos_bsp.a(tse_ethernet_phys.o)
 .bss           0x000000000214d190        0x0 ../FreeRTOS_bsp/\libfreertos_bsp.a(alt_alarm_start.o)
 .bss           0x000000000214d190        0x0 ../FreeRTOS_bsp/\libfreertos_bsp.a(alt_close.o)
 .bss           0x000000000214d190        0x0 ../FreeRTOS_bsp/\libfreertos_bsp.a(alt_dcache_flush.o)
 .bss           0x000000000214d190        0x0 ../FreeRTOS_bsp/\libfreertos_bsp.a(alt_dcache_flush_all.o)
 .bss           0x000000000214d190        0x0 ../FreeRTOS_bsp/\libfreertos_bsp.a(alt_dev_llist_insert.o)
 .bss           0x000000000214d190        0x0 ../FreeRTOS_bsp/\libfreertos_bsp.a(alt_errno.o)
 .bss           0x000000000214d190        0x0 ../FreeRTOS_bsp/\libfreertos_bsp.a(alt_find_dev.o)
 .bss           0x000000000214d190        0x0 ../FreeRTOS_bsp/\libfreertos_bsp.a(alt_find_file.o)
 .bss           0x000000000214d190        0x0 ../FreeRTOS_bsp/\libfreertos_bsp.a(alt_get_fd.o)
 .bss           0x000000000214d190        0x0 ../FreeRTOS_bsp/\libfreertos_bsp.a(alt_icache_flush_all.o)
 .bss           0x000000000214d190        0x0 ../FreeRTOS_bsp/\libfreertos_bsp.a(alt_iic.o)
 .bss           0x000000000214d190        0x0 ../FreeRTOS_bsp/\libfreertos_bsp.a(alt_iic_isr_register.o)
 .bss           0x000000000214d190        0x0 ../FreeRTOS_bsp/\libfreertos_bsp.a(alt_irq_handler.o)
 .bss           0x000000000214d190        0x0 ../FreeRTOS_bsp/\libfreertos_bsp.a(alt_irq_vars.o)
 .bss           0x000000000214d190        0x0 ../FreeRTOS_bsp/\libfreertos_bsp.a(alt_read.o)
 .bss           0x000000000214d190        0x0 ../FreeRTOS_bsp/\libfreertos_bsp.a(alt_tick.o)
 .bss           0x000000000214d190        0x0 ../FreeRTOS_bsp/\libfreertos_bsp.a(alt_uncached_malloc.o)
 .bss           0x000000000214d190        0x0 ../FreeRTOS_bsp/\libfreertos_bsp.a(alt_usleep.o)
 .bss           0x000000000214d190        0x0 ../FreeRTOS_bsp/\libfreertos_bsp.a(alt_write.o)
 .bss           0x000000000214d190        0x0 ../FreeRTOS_bsp/\libfreertos_bsp.a(altera_nios2_gen2_irq.o)
 .bss           0x000000000214d190      0x2a0 ../FreeRTOS_bsp/\libfreertos_bsp.a(sockets.o)
 .bss           0x000000000214d430        0x0 ../FreeRTOS_bsp/\libfreertos_bsp.a(tcpip.o)
 .bss           0x000000000214d430        0x0 ../FreeRTOS_bsp/\libfreertos_bsp.a(altera_avalon_tse.o)
 .bss           0x000000000214d430        0x0 ../FreeRTOS_bsp/\libfreertos_bsp.a(def.o)
 .bss           0x000000000214d430        0x0 ../FreeRTOS_bsp/\libfreertos_bsp.a(inet_chksum.o)
 .bss           0x000000000214d430        0x0 ../FreeRTOS_bsp/\libfreertos_bsp.a(init.o)
 .bss           0x000000000214d430        0x0 ../FreeRTOS_bsp/\libfreertos_bsp.a(ip.o)
 .bss           0x000000000214d430        0x0 ../FreeRTOS_bsp/\libfreertos_bsp.a(acd.o)
 .bss           0x000000000214d430        0x0 ../FreeRTOS_bsp/\libfreertos_bsp.a(icmp.o)
 .bss           0x000000000214d430        0x0 ../FreeRTOS_bsp/\libfreertos_bsp.a(ip4.o)
 .bss           0x000000000214d430        0x0 ../FreeRTOS_bsp/\libfreertos_bsp.a(ip4_frag.o)
 .bss           0x000000000214d430        0x0 ../FreeRTOS_bsp/\libfreertos_bsp.a(alt_busy_sleep.o)
 .bss           0x000000000214d430        0x0 ../FreeRTOS_bsp/\libfreertos_bsp.a(alt_icache_flush.o)
 .bss           0x000000000214d430        0x0 ../FreeRTOS_bsp/\libfreertos_bsp.a(api_lib.o)
 .bss           0x000000000214d430        0x0 ../FreeRTOS_bsp/\libfreertos_bsp.a(api_msg.o)
 .bss           0x000000000214d430        0x0 ../FreeRTOS_bsp/\libfreertos_bsp.a(err.o)
 .bss           0x000000000214d430        0x0 ../FreeRTOS_bsp/\libfreertos_bsp.a(netbuf.o)
 .bss           0x000000000214d430        0x0 c:/altera/18.1/nios2eds/bin/gnu/h-x86_64-mingw32/bin/../lib/gcc/nios2-elf/5.3.0/../../../../../H-x86_64-mingw32/nios2-elf/lib\libc.a(lib_a-atexit.o)
 .bss           0x000000000214d430        0x0 c:/altera/18.1/nios2eds/bin/gnu/h-x86_64-mingw32/bin/../lib/gcc/nios2-elf/5.3.0/../../../../../H-x86_64-mingw32/nios2-elf/lib\libc.a(lib_a-atoi.o)
 .bss           0x000000000214d430        0x0 c:/altera/18.1/nios2eds/bin/gnu/h-x86_64-mingw32/bin/../lib/gcc/nios2-elf/5.3.0/../../../../../H-x86_64-mingw32/nios2-elf/lib\libc.a(lib_a-ctype_.o)
 .bss           0x000000000214d430        0x0 c:/altera/18.1/nios2eds/bin/gnu/h-x86_64-mingw32/bin/../lib/gcc/nios2-elf/5.3.0/../../../../../H-x86_64-mingw32/nios2-elf/lib\libc.a(lib_a-errno.o)
 .bss           0x000000000214d430        0x0 c:/altera/18.1/nios2eds/bin/gnu/h-x86_64-mingw32/bin/../lib/gcc/nios2-elf/5.3.0/../../../../../H-x86_64-mingw32/nios2-elf/lib\libc.a(lib_a-exit.o)
 .bss           0x000000000214d430        0x0 c:/altera/18.1/nios2eds/bin/gnu/h-x86_64-mingw32/bin/../lib/gcc/nios2-elf/5.3.0/../../../../../H-x86_64-mingw32/nios2-elf/lib\libc.a(lib_a-malloc.o)
 .bss           0x000000000214d430        0x0 c:/altera/18.1/nios2eds/bin/gnu/h-x86_64-mingw32/bin/../lib/gcc/nios2-elf/5.3.0/../../../../../H-x86_64-mingw32/nios2-elf/lib\libc.a(lib_a-memcmp.o)
 .bss           0x000000000214d430        0x0 c:/altera/18.1/nios2eds/bin/gnu/h-x86_64-mingw32/bin/../lib/gcc/nios2-elf/5.3.0/../../../../../H-x86_64-mingw32/nios2-elf/lib\libc.a(lib_a-putc.o)
 .bss           0x000000000214d430        0x0 c:/altera/18.1/nios2eds/bin/gnu/h-x86_64-mingw32/bin/../lib/gcc/nios2-elf/5.3.0/../../../../../H-x86_64-mingw32/nios2-elf/lib\libc.a(lib_a-puts.o)
 .bss           0x000000000214d430        0x0 c:/altera/18.1/nios2eds/bin/gnu/h-x86_64-mingw32/bin/../lib/gcc/nios2-elf/5.3.0/../../../../../H-x86_64-mingw32/nios2-elf/lib\libc.a(lib_a-snprintf.o)
 .bss           0x000000000214d430        0x0 c:/altera/18.1/nios2eds/bin/gnu/h-x86_64-mingw32/bin/../lib/gcc/nios2-elf/5.3.0/../../../../../H-x86_64-mingw32/nios2-elf/lib\libc.a(lib_a-strcpy.o)
 .bss           0x000000000214d430        0x0 c:/altera/18.1/nios2eds/bin/gnu/h-x86_64-mingw32/bin/../lib/gcc/nios2-elf/5.3.0/../../../../../H-x86_64-mingw32/nios2-elf/lib\libc.a(lib_a-strncmp.o)
 .bss           0x000000000214d430        0x0 c:/altera/18.1/nios2eds/bin/gnu/h-x86_64-mingw32/bin/../lib/gcc/nios2-elf/5.3.0/../../../../../H-x86_64-mingw32/nios2-elf/lib\libc.a(lib_a-strtol.o)
 .bss           0x000000000214d430        0x0 c:/altera/18.1/nios2eds/bin/gnu/h-x86_64-mingw32/bin/../lib/gcc/nios2-elf/5.3.0/../../../../../H-x86_64-mingw32/nios2-elf/lib\libc.a(lib_a-svfprintf.o)
 .bss           0x000000000214d430        0x0 c:/altera/18.1/nios2eds/bin/gnu/h-x86_64-mingw32/bin/../lib/gcc/nios2-elf/5.3.0/../../../../../H-x86_64-mingw32/nios2-elf/lib\libc.a(lib_a-__atexit.o)
 .bss           0x000000000214d430        0x0 c:/altera/18.1/nios2eds/bin/gnu/h-x86_64-mingw32/bin/../lib/gcc/nios2-elf/5.3.0/../../../../../H-x86_64-mingw32/nios2-elf/lib\libc.a(lib_a-__call_atexit.o)
 .bss           0x000000000214d430        0x0 c:/altera/18.1/nios2eds/bin/gnu/h-x86_64-mingw32/bin/../lib/gcc/nios2-elf/5.3.0/../../../../../H-x86_64-mingw32/nios2-elf/lib\libc.a(lib_a-svfiprintf.o)
 .bss           0x000000000214d430        0x0 ../FreeRTOS_bsp/\libfreertos_bsp.a(alt_exit.o)
 *(COMMON)
 COMMON         0x000000000214d430       0x4c obj/default/main.o
                0x000000000214d430                eth_tse
 COMMON         0x000000000214d47c       0x24 ../FreeRTOS_bsp/\libfreertos_bsp.a(lwip_tse_mac.o)
                0x000000000214d47c                tse
 COMMON         0x000000000214d4a0       0x20 ../FreeRTOS_bsp/\libfreertos_bsp.a(dhcp.o)
                0x000000000214d4a0                dhcp_rx_options_val
 COMMON         0x000000000214d4c0     0x8013 ../FreeRTOS_bsp/\libfreertos_bsp.a(mem.o)
                0x000000000214d4c0                ram_heap
 COMMON         0x00000000021554d3    0x1a135 ../FreeRTOS_bsp/\libfreertos_bsp.a(memp.o)
                0x00000000021554d3                memp_memory_NETBUF_base
                0x000000000215581e                memp_memory_TCPIP_MSG_INPKT_base
                0x0000000002155a21                memp_memory_ARP_QUEUE_base
                0x0000000002155a9c                memp_memory_RAW_PCB_base
                0x0000000002155adf                memp_memory_TCP_SEG_base
                0x0000000002155c22                memp_memory_PBUF_POOL_base
                0x000000000216db25                memp_memory_FRAG_PBUF_base
                0x000000000216dc90                memp_memory_TCPIP_MSG_API_base
                0x000000000216dd13                memp_memory_PBUF_base
                0x000000000216df16                memp_memory_TCP_PCB_LISTEN_base
                0x000000000216e0a9                memp_memory_REASSDATA_base
                0x000000000216e14c                memp_memory_UDP_PCB_base
                0x000000000216e36b                memp_memory_NETCONN_base
                0x000000000216eb4e                memp_memory_TCP_PCB_base
                0x000000000216f565                memp_memory_SYS_TIMEOUT_base
 COMMON         0x000000000216f608      0x1c0 ../FreeRTOS_bsp/\libfreertos_bsp.a(stats.o)
                0x000000000216f608                lwip_stats
 COMMON         0x000000000216f7c8      0x100 ../FreeRTOS_bsp/\libfreertos_bsp.a(alt_irq_handler.o)
                0x000000000216f7c8                alt_irq
 COMMON         0x000000000216f8c8       0x40 ../FreeRTOS_bsp/\libfreertos_bsp.a(altera_avalon_tse.o)
                0x000000000216f8c8                pmac_groups
                0x000000000216f8e8                pphy_profiles
 COMMON         0x000000000216f908       0x18 ../FreeRTOS_bsp/\libfreertos_bsp.a(ip.o)
                0x000000000216f908                ip_data
                0x000000000216f920                . = ALIGN (0x4)
                0x000000000216f920                __bss_end = ABSOLUTE (.)

.sdram_controller_0
                0x000000000216f920        0x0
                [!provide]                        PROVIDE (_alt_partition_sdram_controller_0_start, ABSOLUTE (.))
 *(.sdram_controller_0 .sdram_controller_0. sdram_controller_0.*)
                0x000000000216f920                . = ALIGN (0x4)
                [!provide]                        PROVIDE (_alt_partition_sdram_controller_0_end, ABSOLUTE (.))
                0x000000000216f920                _end = ABSOLUTE (.)
                0x000000000216f920                end = ABSOLUTE (.)
                0x000000000216f920                __alt_stack_base = ABSOLUTE (.)
                [!provide]                        PROVIDE (_alt_partition_sdram_controller_0_load_addr, LOADADDR (.sdram_controller_0))

.tse_descriptor_memory_0
                0x0000000004000000        0x0 load address 0x000000000216f920
                [!provide]                        PROVIDE (_alt_partition_tse_descriptor_memory_0_start, ABSOLUTE (.))
 *(.tse_descriptor_memory_0 .tse_descriptor_memory_0. tse_descriptor_memory_0.*)
                0x0000000004000000                . = ALIGN (0x4)
                [!provide]                        PROVIDE (_alt_partition_tse_descriptor_memory_0_end, ABSOLUTE (.))
                [!provide]                        PROVIDE (_alt_partition_tse_descriptor_memory_0_load_addr, LOADADDR (.tse_descriptor_memory_0))

.mem_0          0x0000000005020000        0x0 load address 0x000000000216f920
                [!provide]                        PROVIDE (_alt_partition_mem_0_start, ABSOLUTE (.))
 *(.mem_0 .mem_0. mem_0.*)
                0x0000000005020000                . = ALIGN (0x4)
                [!provide]                        PROVIDE (_alt_partition_mem_0_end, ABSOLUTE (.))
                [!provide]                        PROVIDE (_alt_partition_mem_0_load_addr, LOADADDR (.mem_0))

.stab
 *(.stab)

.stabstr
 *(.stabstr)

.stab.excl
 *(.stab.excl)

.stab.exclstr
 *(.stab.exclstr)

.stab.index
 *(.stab.index)

.stab.indexstr
 *(.stab.indexstr)

.comment        0x0000000000000000       0x23
 *(.comment)
 .comment       0x0000000000000000       0x23 obj/default/main.o
                                         0x24 (size before relaxing)
 .comment       0x0000000000000023       0x24 c:/altera/18.1/nios2eds/bin/gnu/h-x86_64-mingw32/bin/../lib/gcc/nios2-elf/5.3.0/../../../../../H-x86_64-mingw32/nios2-elf/lib\libc.a(lib_a-printf.o)
 .comment       0x0000000000000023       0x24 c:/altera/18.1/nios2eds/bin/gnu/h-x86_64-mingw32/bin/../lib/gcc/nios2-elf/5.3.0/../../../../../H-x86_64-mingw32/nios2-elf/lib\libc.a(lib_a-vfprintf.o)
 .comment       0x0000000000000023       0x24 c:/altera/18.1/nios2eds/bin/gnu/h-x86_64-mingw32/bin/../lib/gcc/nios2-elf/5.3.0/../../../../../H-x86_64-mingw32/nios2-elf/lib\libc.a(lib_a-wsetup.o)
 .comment       0x0000000000000023       0x24 c:/altera/18.1/nios2eds/bin/gnu/h-x86_64-mingw32/bin/../lib/gcc/nios2-elf/5.3.0/../../../../../H-x86_64-mingw32/nios2-elf/lib\libc.a(lib_a-dtoa.o)
 .comment       0x0000000000000023       0x24 c:/altera/18.1/nios2eds/bin/gnu/h-x86_64-mingw32/bin/../lib/gcc/nios2-elf/5.3.0/../../../../../H-x86_64-mingw32/nios2-elf/lib\libc.a(lib_a-fflush.o)
 .comment       0x0000000000000023       0x24 c:/altera/18.1/nios2eds/bin/gnu/h-x86_64-mingw32/bin/../lib/gcc/nios2-elf/5.3.0/../../../../../H-x86_64-mingw32/nios2-elf/lib\libc.a(lib_a-findfp.o)
 .comment       0x0000000000000023       0x24 c:/altera/18.1/nios2eds/bin/gnu/h-x86_64-mingw32/bin/../lib/gcc/nios2-elf/5.3.0/../../../../../H-x86_64-mingw32/nios2-elf/lib\libc.a(lib_a-freer.o)
 .comment       0x0000000000000023       0x24 c:/altera/18.1/nios2eds/bin/gnu/h-x86_64-mingw32/bin/../lib/gcc/nios2-elf/5.3.0/../../../../../H-x86_64-mingw32/nios2-elf/lib\libc.a(lib_a-fwalk.o)
 .comment       0x0000000000000023       0x24 c:/altera/18.1/nios2eds/bin/gnu/h-x86_64-mingw32/bin/../lib/gcc/nios2-elf/5.3.0/../../../../../H-x86_64-mingw32/nios2-elf/lib\libc.a(lib_a-impure.o)
 .comment       0x0000000000000023       0x24 c:/altera/18.1/nios2eds/bin/gnu/h-x86_64-mingw32/bin/../lib/gcc/nios2-elf/5.3.0/../../../../../H-x86_64-mingw32/nios2-elf/lib\libc.a(lib_a-locale.o)
 .comment       0x0000000000000023       0x24 c:/altera/18.1/nios2eds/bin/gnu/h-x86_64-mingw32/bin/../lib/gcc/nios2-elf/5.3.0/../../../../../H-x86_64-mingw32/nios2-elf/lib\libc.a(lib_a-makebuf.o)
 .comment       0x0000000000000023       0x24 c:/altera/18.1/nios2eds/bin/gnu/h-x86_64-mingw32/bin/../lib/gcc/nios2-elf/5.3.0/../../../../../H-x86_64-mingw32/nios2-elf/lib\libc.a(lib_a-mallocr.o)
 .comment       0x0000000000000023       0x24 c:/altera/18.1/nios2eds/bin/gnu/h-x86_64-mingw32/bin/../lib/gcc/nios2-elf/5.3.0/../../../../../H-x86_64-mingw32/nios2-elf/lib\libc.a(lib_a-memchr.o)
 .comment       0x0000000000000023       0x24 c:/altera/18.1/nios2eds/bin/gnu/h-x86_64-mingw32/bin/../lib/gcc/nios2-elf/5.3.0/../../../../../H-x86_64-mingw32/nios2-elf/lib\libc.a(lib_a-memcpy.o)
 .comment       0x0000000000000023       0x24 c:/altera/18.1/nios2eds/bin/gnu/h-x86_64-mingw32/bin/../lib/gcc/nios2-elf/5.3.0/../../../../../H-x86_64-mingw32/nios2-elf/lib\libc.a(lib_a-memset.o)
 .comment       0x0000000000000023       0x24 c:/altera/18.1/nios2eds/bin/gnu/h-x86_64-mingw32/bin/../lib/gcc/nios2-elf/5.3.0/../../../../../H-x86_64-mingw32/nios2-elf/lib\libc.a(lib_a-mprec.o)
 .comment       0x0000000000000023       0x24 c:/altera/18.1/nios2eds/bin/gnu/h-x86_64-mingw32/bin/../lib/gcc/nios2-elf/5.3.0/../../../../../H-x86_64-mingw32/nios2-elf/lib\libc.a(lib_a-s_fpclassify.o)
 .comment       0x0000000000000023       0x24 c:/altera/18.1/nios2eds/bin/gnu/h-x86_64-mingw32/bin/../lib/gcc/nios2-elf/5.3.0/../../../../../H-x86_64-mingw32/nios2-elf/lib\libc.a(lib_a-sbrkr.o)
 .comment       0x0000000000000023       0x24 c:/altera/18.1/nios2eds/bin/gnu/h-x86_64-mingw32/bin/../lib/gcc/nios2-elf/5.3.0/../../../../../H-x86_64-mingw32/nios2-elf/lib\libc.a(lib_a-stdio.o)
 .comment       0x0000000000000023       0x24 c:/altera/18.1/nios2eds/bin/gnu/h-x86_64-mingw32/bin/../lib/gcc/nios2-elf/5.3.0/../../../../../H-x86_64-mingw32/nios2-elf/lib\libc.a(lib_a-strcmp.o)
 .comment       0x0000000000000023       0x24 c:/altera/18.1/nios2eds/bin/gnu/h-x86_64-mingw32/bin/../lib/gcc/nios2-elf/5.3.0/../../../../../H-x86_64-mingw32/nios2-elf/lib\libc.a(lib_a-strlen.o)
 .comment       0x0000000000000023       0x24 c:/altera/18.1/nios2eds/bin/gnu/h-x86_64-mingw32/bin/../lib/gcc/nios2-elf/5.3.0/../../../../../H-x86_64-mingw32/nios2-elf/lib\libc.a(lib_a-vfiprintf.o)
 .comment       0x0000000000000023       0x24 c:/altera/18.1/nios2eds/bin/gnu/h-x86_64-mingw32/bin/../lib/gcc/nios2-elf/5.3.0/../../../../../H-x86_64-mingw32/nios2-elf/lib\libc.a(lib_a-writer.o)
 .comment       0x0000000000000023       0x24 c:/altera/18.1/nios2eds/bin/gnu/h-x86_64-mingw32/bin/../lib/gcc/nios2-elf/5.3.0/../../../../../H-x86_64-mingw32/nios2-elf/lib\libc.a(closer.o)
 .comment       0x0000000000000023       0x24 c:/altera/18.1/nios2eds/bin/gnu/h-x86_64-mingw32/bin/../lib/gcc/nios2-elf/5.3.0/../../../../../H-x86_64-mingw32/nios2-elf/lib\libc.a(lib_a-callocr.o)
 .comment       0x0000000000000023       0x24 c:/altera/18.1/nios2eds/bin/gnu/h-x86_64-mingw32/bin/../lib/gcc/nios2-elf/5.3.0/../../../../../H-x86_64-mingw32/nios2-elf/lib\libc.a(lib_a-fclose.o)
 .comment       0x0000000000000023       0x24 c:/altera/18.1/nios2eds/bin/gnu/h-x86_64-mingw32/bin/../lib/gcc/nios2-elf/5.3.0/../../../../../H-x86_64-mingw32/nios2-elf/lib\libc.a(lib_a-fputwc.o)
 .comment       0x0000000000000023       0x24 c:/altera/18.1/nios2eds/bin/gnu/h-x86_64-mingw32/bin/../lib/gcc/nios2-elf/5.3.0/../../../../../H-x86_64-mingw32/nios2-elf/lib\libc.a(lib_a-fstatr.o)
 .comment       0x0000000000000023       0x24 c:/altera/18.1/nios2eds/bin/gnu/h-x86_64-mingw32/bin/../lib/gcc/nios2-elf/5.3.0/../../../../../H-x86_64-mingw32/nios2-elf/lib\libc.a(lib_a-fvwrite.o)
 .comment       0x0000000000000023       0x24 c:/altera/18.1/nios2eds/bin/gnu/h-x86_64-mingw32/bin/../lib/gcc/nios2-elf/5.3.0/../../../../../H-x86_64-mingw32/nios2-elf/lib\libc.a(lib_a-int_errno.o)
 .comment       0x0000000000000023       0x24 c:/altera/18.1/nios2eds/bin/gnu/h-x86_64-mingw32/bin/../lib/gcc/nios2-elf/5.3.0/../../../../../H-x86_64-mingw32/nios2-elf/lib\libc.a(lib_a-isattyr.o)
 .comment       0x0000000000000023       0x24 c:/altera/18.1/nios2eds/bin/gnu/h-x86_64-mingw32/bin/../lib/gcc/nios2-elf/5.3.0/../../../../../H-x86_64-mingw32/nios2-elf/lib\libc.a(lib_a-lseekr.o)
 .comment       0x0000000000000023       0x24 c:/altera/18.1/nios2eds/bin/gnu/h-x86_64-mingw32/bin/../lib/gcc/nios2-elf/5.3.0/../../../../../H-x86_64-mingw32/nios2-elf/lib\libc.a(lib_a-memmove.o)
 .comment       0x0000000000000023       0x24 c:/altera/18.1/nios2eds/bin/gnu/h-x86_64-mingw32/bin/../lib/gcc/nios2-elf/5.3.0/../../../../../H-x86_64-mingw32/nios2-elf/lib\libc.a(lib_a-readr.o)
 .comment       0x0000000000000023       0x24 c:/altera/18.1/nios2eds/bin/gnu/h-x86_64-mingw32/bin/../lib/gcc/nios2-elf/5.3.0/../../../../../H-x86_64-mingw32/nios2-elf/lib\libc.a(lib_a-reallocr.o)
 .comment       0x0000000000000023       0x24 c:/altera/18.1/nios2eds/bin/gnu/h-x86_64-mingw32/bin/../lib/gcc/nios2-elf/5.3.0/../../../../../H-x86_64-mingw32/nios2-elf/lib\libc.a(lib_a-wbuf.o)
 .comment       0x0000000000000023       0x24 c:/altera/18.1/nios2eds/bin/gnu/h-x86_64-mingw32/bin/../lib/gcc/nios2-elf/5.3.0/../../../../../H-x86_64-mingw32/nios2-elf/lib\libc.a(lib_a-wcrtomb.o)
 .comment       0x0000000000000023       0x24 c:/altera/18.1/nios2eds/bin/gnu/h-x86_64-mingw32/bin/../lib/gcc/nios2-elf/5.3.0/../../../../../H-x86_64-mingw32/nios2-elf/lib\libc.a(lib_a-wctomb_r.o)
 .comment       0x0000000000000023       0x24 c:/altera/18.1/nios2eds/bin/gnu/h-x86_64-mingw32/bin/../lib/gcc/nios2-elf/5.3.0\libgcc.a(_udivdi3.o)
 .comment       0x0000000000000023       0x24 c:/altera/18.1/nios2eds/bin/gnu/h-x86_64-mingw32/bin/../lib/gcc/nios2-elf/5.3.0\libgcc.a(_umoddi3.o)
 .comment       0x0000000000000023       0x24 c:/altera/18.1/nios2eds/bin/gnu/h-x86_64-mingw32/bin/../lib/gcc/nios2-elf/5.3.0\libgcc.a(lib2-divmod.o)
 .comment       0x0000000000000023       0x24 c:/altera/18.1/nios2eds/bin/gnu/h-x86_64-mingw32/bin/../lib/gcc/nios2-elf/5.3.0\libgcc.a(adddf3.o)
 .comment       0x0000000000000023       0x24 c:/altera/18.1/nios2eds/bin/gnu/h-x86_64-mingw32/bin/../lib/gcc/nios2-elf/5.3.0\libgcc.a(divdf3.o)
 .comment       0x0000000000000023       0x24 c:/altera/18.1/nios2eds/bin/gnu/h-x86_64-mingw32/bin/../lib/gcc/nios2-elf/5.3.0\libgcc.a(eqdf2.o)
 .comment       0x0000000000000023       0x24 c:/altera/18.1/nios2eds/bin/gnu/h-x86_64-mingw32/bin/../lib/gcc/nios2-elf/5.3.0\libgcc.a(gedf2.o)
 .comment       0x0000000000000023       0x24 c:/altera/18.1/nios2eds/bin/gnu/h-x86_64-mingw32/bin/../lib/gcc/nios2-elf/5.3.0\libgcc.a(ledf2.o)
 .comment       0x0000000000000023       0x24 c:/altera/18.1/nios2eds/bin/gnu/h-x86_64-mingw32/bin/../lib/gcc/nios2-elf/5.3.0\libgcc.a(muldf3.o)
 .comment       0x0000000000000023       0x24 c:/altera/18.1/nios2eds/bin/gnu/h-x86_64-mingw32/bin/../lib/gcc/nios2-elf/5.3.0\libgcc.a(subdf3.o)
 .comment       0x0000000000000023       0x24 c:/altera/18.1/nios2eds/bin/gnu/h-x86_64-mingw32/bin/../lib/gcc/nios2-elf/5.3.0\libgcc.a(fixdfsi.o)
 .comment       0x0000000000000023       0x24 c:/altera/18.1/nios2eds/bin/gnu/h-x86_64-mingw32/bin/../lib/gcc/nios2-elf/5.3.0\libgcc.a(floatsidf.o)
 .comment       0x0000000000000023       0x24 c:/altera/18.1/nios2eds/bin/gnu/h-x86_64-mingw32/bin/../lib/gcc/nios2-elf/5.3.0\libgcc.a(floatunsidf.o)
 .comment       0x0000000000000023       0x24 c:/altera/18.1/nios2eds/bin/gnu/h-x86_64-mingw32/bin/../lib/gcc/nios2-elf/5.3.0\libgcc.a(_clz.o)
 .comment       0x0000000000000023       0x24 c:/altera/18.1/nios2eds/bin/gnu/h-x86_64-mingw32/bin/../lib/gcc/nios2-elf/5.3.0\libgcc.a(_clzsi2.o)
 .comment       0x0000000000000023       0x24 ../FreeRTOS_bsp/\libfreertos_bsp.a(alt_main.o)
 .comment       0x0000000000000023       0x24 ../FreeRTOS_bsp/\libfreertos_bsp.a(alt_malloc_lock.o)
 .comment       0x0000000000000023       0x24 ../FreeRTOS_bsp/\libfreertos_bsp.a(queue.o)
 .comment       0x0000000000000023       0x24 ../FreeRTOS_bsp/\libfreertos_bsp.a(tasks.o)
 .comment       0x0000000000000023       0x24 ../FreeRTOS_bsp/\libfreertos_bsp.a(timers.o)
 .comment       0x0000000000000023       0x24 ../FreeRTOS_bsp/\libfreertos_bsp.a(alt_dev.o)
 .comment       0x0000000000000023       0x24 ../FreeRTOS_bsp/\libfreertos_bsp.a(alt_do_ctors.o)
 .comment       0x0000000000000023       0x24 ../FreeRTOS_bsp/\libfreertos_bsp.a(alt_do_dtors.o)
 .comment       0x0000000000000023       0x24 ../FreeRTOS_bsp/\libfreertos_bsp.a(alt_fstat.o)
 .comment       0x0000000000000023       0x24 ../FreeRTOS_bsp/\libfreertos_bsp.a(alt_io_redirect.o)
 .comment       0x0000000000000023       0x24 ../FreeRTOS_bsp/\libfreertos_bsp.a(alt_isatty.o)
 .comment       0x0000000000000023       0x24 ../FreeRTOS_bsp/\libfreertos_bsp.a(alt_load.o)
 .comment       0x0000000000000023       0x24 ../FreeRTOS_bsp/\libfreertos_bsp.a(alt_lseek.o)
 .comment       0x0000000000000023       0x24 ../FreeRTOS_bsp/\libfreertos_bsp.a(alt_open.o)
 .comment       0x0000000000000023       0x24 ../FreeRTOS_bsp/\libfreertos_bsp.a(alt_printf.o)
 .comment       0x0000000000000023       0x24 ../FreeRTOS_bsp/\libfreertos_bsp.a(alt_putchar.o)
 .comment       0x0000000000000023       0x24 ../FreeRTOS_bsp/\libfreertos_bsp.a(alt_release_fd.o)
 .comment       0x0000000000000023       0x24 ../FreeRTOS_bsp/\libfreertos_bsp.a(alt_sbrk.o)
 .comment       0x0000000000000023       0x24 ../FreeRTOS_bsp/\libfreertos_bsp.a(alt_lwip_close.o)
 .comment       0x0000000000000023       0x24 ../FreeRTOS_bsp/\libfreertos_bsp.a(alt_lwip_read.o)
 .comment       0x0000000000000023       0x24 ../FreeRTOS_bsp/\libfreertos_bsp.a(alt_lwip_write.o)
 .comment       0x0000000000000023       0x24 ../FreeRTOS_bsp/\libfreertos_bsp.a(altera_tse_ethernetif.o)
 .comment       0x0000000000000023       0x24 ../FreeRTOS_bsp/\libfreertos_bsp.a(lwip_main.o)
 .comment       0x0000000000000023       0x24 ../FreeRTOS_bsp/\libfreertos_bsp.a(lwip_tse_mac.o)
 .comment       0x0000000000000023       0x24 ../FreeRTOS_bsp/\libfreertos_bsp.a(sys_arch.o)
 .comment       0x0000000000000023       0x24 ../FreeRTOS_bsp/\libfreertos_bsp.a(dhcp.o)
 .comment       0x0000000000000023       0x24 ../FreeRTOS_bsp/\libfreertos_bsp.a(etharp.o)
 .comment       0x0000000000000023       0x24 ../FreeRTOS_bsp/\libfreertos_bsp.a(ip4_addr.o)
 .comment       0x0000000000000023       0x24 ../FreeRTOS_bsp/\libfreertos_bsp.a(mem.o)
 .comment       0x0000000000000023       0x24 ../FreeRTOS_bsp/\libfreertos_bsp.a(memp.o)
 .comment       0x0000000000000023       0x24 ../FreeRTOS_bsp/\libfreertos_bsp.a(netif.o)
 .comment       0x0000000000000023       0x24 ../FreeRTOS_bsp/\libfreertos_bsp.a(pbuf.o)
 .comment       0x0000000000000023       0x24 ../FreeRTOS_bsp/\libfreertos_bsp.a(raw.o)
 .comment       0x0000000000000023       0x24 ../FreeRTOS_bsp/\libfreertos_bsp.a(stats.o)
 .comment       0x0000000000000023       0x24 ../FreeRTOS_bsp/\libfreertos_bsp.a(tcp.o)
 .comment       0x0000000000000023       0x24 ../FreeRTOS_bsp/\libfreertos_bsp.a(tcp_in.o)
 .comment       0x0000000000000023       0x24 ../FreeRTOS_bsp/\libfreertos_bsp.a(tcp_out.o)
 .comment       0x0000000000000023       0x24 ../FreeRTOS_bsp/\libfreertos_bsp.a(timeouts.o)
 .comment       0x0000000000000023       0x24 ../FreeRTOS_bsp/\libfreertos_bsp.a(udp.o)
 .comment       0x0000000000000023       0x24 ../FreeRTOS_bsp/\libfreertos_bsp.a(ethernet.o)
 .comment       0x0000000000000023       0x24 ../FreeRTOS_bsp/\libfreertos_bsp.a(alt_sys_init.o)
 .comment       0x0000000000000023       0x24 ../FreeRTOS_bsp/\libfreertos_bsp.a(altera_avalon_jtag_uart_fd.o)
 .comment       0x0000000000000023       0x24 ../FreeRTOS_bsp/\libfreertos_bsp.a(altera_avalon_jtag_uart_init.o)
 .comment       0x0000000000000023       0x24 ../FreeRTOS_bsp/\libfreertos_bsp.a(altera_avalon_jtag_uart_ioctl.o)
 .comment       0x0000000000000023       0x24 ../FreeRTOS_bsp/\libfreertos_bsp.a(altera_avalon_jtag_uart_read.o)
 .comment       0x0000000000000023       0x24 ../FreeRTOS_bsp/\libfreertos_bsp.a(altera_avalon_jtag_uart_write.o)
 .comment       0x0000000000000023       0x24 ../FreeRTOS_bsp/\libfreertos_bsp.a(altera_avalon_sgdma.o)
 .comment       0x0000000000000023       0x24 ../FreeRTOS_bsp/\libfreertos_bsp.a(altera_avalon_timer_sc.o)
 .comment       0x0000000000000023       0x24 ../FreeRTOS_bsp/\libfreertos_bsp.a(altera_avalon_uart_fd.o)
 .comment       0x0000000000000023       0x24 ../FreeRTOS_bsp/\libfreertos_bsp.a(altera_avalon_uart_init.o)
 .comment       0x0000000000000023       0x24 ../FreeRTOS_bsp/\libfreertos_bsp.a(altera_avalon_uart_read.o)
 .comment       0x0000000000000023       0x24 ../FreeRTOS_bsp/\libfreertos_bsp.a(altera_avalon_uart_write.o)
 .comment       0x0000000000000023       0x24 ../FreeRTOS_bsp/\libfreertos_bsp.a(alt_env_lock.o)
 .comment       0x0000000000000023       0x24 ../FreeRTOS_bsp/\libfreertos_bsp.a(heap_1.o)
 .comment       0x0000000000000023       0x24 ../FreeRTOS_bsp/\libfreertos_bsp.a(list.o)
 .comment       0x0000000000000023       0x24 ../FreeRTOS_bsp/\libfreertos_bsp.a(port.o)
 .comment       0x0000000000000023       0x24 ../FreeRTOS_bsp/\libfreertos_bsp.a(tse_ethernet_phys.o)
 .comment       0x0000000000000023       0x24 ../FreeRTOS_bsp/\libfreertos_bsp.a(alt_alarm_start.o)
 .comment       0x0000000000000023       0x24 ../FreeRTOS_bsp/\libfreertos_bsp.a(alt_close.o)
 .comment       0x0000000000000023       0x24 ../FreeRTOS_bsp/\libfreertos_bsp.a(alt_dcache_flush.o)
 .comment       0x0000000000000023       0x24 ../FreeRTOS_bsp/\libfreertos_bsp.a(alt_dcache_flush_all.o)
 .comment       0x0000000000000023       0x24 ../FreeRTOS_bsp/\libfreertos_bsp.a(alt_dev_llist_insert.o)
 .comment       0x0000000000000023       0x24 ../FreeRTOS_bsp/\libfreertos_bsp.a(alt_errno.o)
 .comment       0x0000000000000023       0x24 ../FreeRTOS_bsp/\libfreertos_bsp.a(alt_find_dev.o)
 .comment       0x0000000000000023       0x24 ../FreeRTOS_bsp/\libfreertos_bsp.a(alt_find_file.o)
 .comment       0x0000000000000023       0x24 ../FreeRTOS_bsp/\libfreertos_bsp.a(alt_get_fd.o)
 .comment       0x0000000000000023       0x24 ../FreeRTOS_bsp/\libfreertos_bsp.a(alt_icache_flush_all.o)
 .comment       0x0000000000000023       0x24 ../FreeRTOS_bsp/\libfreertos_bsp.a(alt_iic.o)
 .comment       0x0000000000000023       0x24 ../FreeRTOS_bsp/\libfreertos_bsp.a(alt_iic_isr_register.o)
 .comment       0x0000000000000023       0x24 ../FreeRTOS_bsp/\libfreertos_bsp.a(alt_irq_handler.o)
 .comment       0x0000000000000023       0x24 ../FreeRTOS_bsp/\libfreertos_bsp.a(alt_irq_vars.o)
 .comment       0x0000000000000023       0x24 ../FreeRTOS_bsp/\libfreertos_bsp.a(alt_read.o)
 .comment       0x0000000000000023       0x24 ../FreeRTOS_bsp/\libfreertos_bsp.a(alt_tick.o)
 .comment       0x0000000000000023       0x24 ../FreeRTOS_bsp/\libfreertos_bsp.a(alt_uncached_malloc.o)
 .comment       0x0000000000000023       0x24 ../FreeRTOS_bsp/\libfreertos_bsp.a(alt_usleep.o)
 .comment       0x0000000000000023       0x24 ../FreeRTOS_bsp/\libfreertos_bsp.a(alt_write.o)
 .comment       0x0000000000000023       0x24 ../FreeRTOS_bsp/\libfreertos_bsp.a(altera_nios2_gen2_irq.o)
 .comment       0x0000000000000023       0x24 ../FreeRTOS_bsp/\libfreertos_bsp.a(sockets.o)
 .comment       0x0000000000000023       0x24 ../FreeRTOS_bsp/\libfreertos_bsp.a(tcpip.o)
 .comment       0x0000000000000023       0x24 ../FreeRTOS_bsp/\libfreertos_bsp.a(altera_avalon_tse.o)
 .comment       0x0000000000000023       0x24 ../FreeRTOS_bsp/\libfreertos_bsp.a(def.o)
 .comment       0x0000000000000023       0x24 ../FreeRTOS_bsp/\libfreertos_bsp.a(inet_chksum.o)
 .comment       0x0000000000000023       0x24 ../FreeRTOS_bsp/\libfreertos_bsp.a(init.o)
 .comment       0x0000000000000023       0x24 ../FreeRTOS_bsp/\libfreertos_bsp.a(ip.o)
 .comment       0x0000000000000023       0x24 ../FreeRTOS_bsp/\libfreertos_bsp.a(acd.o)
 .comment       0x0000000000000023       0x24 ../FreeRTOS_bsp/\libfreertos_bsp.a(icmp.o)
 .comment       0x0000000000000023       0x24 ../FreeRTOS_bsp/\libfreertos_bsp.a(ip4.o)
 .comment       0x0000000000000023       0x24 ../FreeRTOS_bsp/\libfreertos_bsp.a(ip4_frag.o)
 .comment       0x0000000000000023       0x24 ../FreeRTOS_bsp/\libfreertos_bsp.a(alt_busy_sleep.o)
 .comment       0x0000000000000023       0x24 ../FreeRTOS_bsp/\libfreertos_bsp.a(alt_icache_flush.o)
 .comment       0x0000000000000023       0x24 ../FreeRTOS_bsp/\libfreertos_bsp.a(api_lib.o)
 .comment       0x0000000000000023       0x24 ../FreeRTOS_bsp/\libfreertos_bsp.a(api_msg.o)
 .comment       0x0000000000000023       0x24 ../FreeRTOS_bsp/\libfreertos_bsp.a(err.o)
 .comment       0x0000000000000023       0x24 ../FreeRTOS_bsp/\libfreertos_bsp.a(netbuf.o)
 .comment       0x0000000000000023       0x24 c:/altera/18.1/nios2eds/bin/gnu/h-x86_64-mingw32/bin/../lib/gcc/nios2-elf/5.3.0/../../../../../H-x86_64-mingw32/nios2-elf/lib\libc.a(lib_a-atexit.o)
 .comment       0x0000000000000023       0x24 c:/altera/18.1/nios2eds/bin/gnu/h-x86_64-mingw32/bin/../lib/gcc/nios2-elf/5.3.0/../../../../../H-x86_64-mingw32/nios2-elf/lib\libc.a(lib_a-atoi.o)
 .comment       0x0000000000000023       0x24 c:/altera/18.1/nios2eds/bin/gnu/h-x86_64-mingw32/bin/../lib/gcc/nios2-elf/5.3.0/../../../../../H-x86_64-mingw32/nios2-elf/lib\libc.a(lib_a-ctype_.o)
 .comment       0x0000000000000023       0x24 c:/altera/18.1/nios2eds/bin/gnu/h-x86_64-mingw32/bin/../lib/gcc/nios2-elf/5.3.0/../../../../../H-x86_64-mingw32/nios2-elf/lib\libc.a(lib_a-errno.o)
 .comment       0x0000000000000023       0x24 c:/altera/18.1/nios2eds/bin/gnu/h-x86_64-mingw32/bin/../lib/gcc/nios2-elf/5.3.0/../../../../../H-x86_64-mingw32/nios2-elf/lib\libc.a(lib_a-exit.o)
 .comment       0x0000000000000023       0x24 c:/altera/18.1/nios2eds/bin/gnu/h-x86_64-mingw32/bin/../lib/gcc/nios2-elf/5.3.0/../../../../../H-x86_64-mingw32/nios2-elf/lib\libc.a(lib_a-malloc.o)
 .comment       0x0000000000000023       0x24 c:/altera/18.1/nios2eds/bin/gnu/h-x86_64-mingw32/bin/../lib/gcc/nios2-elf/5.3.0/../../../../../H-x86_64-mingw32/nios2-elf/lib\libc.a(lib_a-memcmp.o)
 .comment       0x0000000000000023       0x24 c:/altera/18.1/nios2eds/bin/gnu/h-x86_64-mingw32/bin/../lib/gcc/nios2-elf/5.3.0/../../../../../H-x86_64-mingw32/nios2-elf/lib\libc.a(lib_a-putc.o)
 .comment       0x0000000000000023       0x24 c:/altera/18.1/nios2eds/bin/gnu/h-x86_64-mingw32/bin/../lib/gcc/nios2-elf/5.3.0/../../../../../H-x86_64-mingw32/nios2-elf/lib\libc.a(lib_a-puts.o)
 .comment       0x0000000000000023       0x24 c:/altera/18.1/nios2eds/bin/gnu/h-x86_64-mingw32/bin/../lib/gcc/nios2-elf/5.3.0/../../../../../H-x86_64-mingw32/nios2-elf/lib\libc.a(lib_a-snprintf.o)
 .comment       0x0000000000000023       0x24 c:/altera/18.1/nios2eds/bin/gnu/h-x86_64-mingw32/bin/../lib/gcc/nios2-elf/5.3.0/../../../../../H-x86_64-mingw32/nios2-elf/lib\libc.a(lib_a-strcpy.o)
 .comment       0x0000000000000023       0x24 c:/altera/18.1/nios2eds/bin/gnu/h-x86_64-mingw32/bin/../lib/gcc/nios2-elf/5.3.0/../../../../../H-x86_64-mingw32/nios2-elf/lib\libc.a(lib_a-strncmp.o)
 .comment       0x0000000000000023       0x24 c:/altera/18.1/nios2eds/bin/gnu/h-x86_64-mingw32/bin/../lib/gcc/nios2-elf/5.3.0/../../../../../H-x86_64-mingw32/nios2-elf/lib\libc.a(lib_a-strtol.o)
 .comment       0x0000000000000023       0x24 c:/altera/18.1/nios2eds/bin/gnu/h-x86_64-mingw32/bin/../lib/gcc/nios2-elf/5.3.0/../../../../../H-x86_64-mingw32/nios2-elf/lib\libc.a(lib_a-svfprintf.o)
 .comment       0x0000000000000023       0x24 c:/altera/18.1/nios2eds/bin/gnu/h-x86_64-mingw32/bin/../lib/gcc/nios2-elf/5.3.0/../../../../../H-x86_64-mingw32/nios2-elf/lib\libc.a(lib_a-__atexit.o)
 .comment       0x0000000000000023       0x24 c:/altera/18.1/nios2eds/bin/gnu/h-x86_64-mingw32/bin/../lib/gcc/nios2-elf/5.3.0/../../../../../H-x86_64-mingw32/nios2-elf/lib\libc.a(lib_a-__call_atexit.o)
 .comment       0x0000000000000023       0x24 c:/altera/18.1/nios2eds/bin/gnu/h-x86_64-mingw32/bin/../lib/gcc/nios2-elf/5.3.0/../../../../../H-x86_64-mingw32/nios2-elf/lib\libc.a(lib_a-svfiprintf.o)
 .comment       0x0000000000000023       0x24 ../FreeRTOS_bsp/\libfreertos_bsp.a(alt_exit.o)

.debug
 *(.debug)

.line
 *(.line)

.debug_srcinfo
 *(.debug_srcinfo)

.debug_sfnames
 *(.debug_sfnames)

.debug_aranges  0x0000000000000000     0x16e0
 *(.debug_aranges)
 .debug_aranges
                0x0000000000000000       0x28 ../FreeRTOS_bsp//obj/HAL/src/crt0.o
 .debug_aranges
                0x0000000000000028       0x20 obj/default/main.o
 .debug_aranges
                0x0000000000000048       0x28 c:/altera/18.1/nios2eds/bin/gnu/h-x86_64-mingw32/bin/../lib/gcc/nios2-elf/5.3.0/../../../../../H-x86_64-mingw32/nios2-elf/lib\libc.a(lib_a-printf.o)
 .debug_aranges
                0x0000000000000070       0x30 c:/altera/18.1/nios2eds/bin/gnu/h-x86_64-mingw32/bin/../lib/gcc/nios2-elf/5.3.0/../../../../../H-x86_64-mingw32/nios2-elf/lib\libc.a(lib_a-vfprintf.o)
 .debug_aranges
                0x00000000000000a0       0x20 c:/altera/18.1/nios2eds/bin/gnu/h-x86_64-mingw32/bin/../lib/gcc/nios2-elf/5.3.0/../../../../../H-x86_64-mingw32/nios2-elf/lib\libc.a(lib_a-wsetup.o)
 .debug_aranges
                0x00000000000000c0       0x28 c:/altera/18.1/nios2eds/bin/gnu/h-x86_64-mingw32/bin/../lib/gcc/nios2-elf/5.3.0/../../../../../H-x86_64-mingw32/nios2-elf/lib\libc.a(lib_a-dtoa.o)
 .debug_aranges
                0x00000000000000e8       0x30 c:/altera/18.1/nios2eds/bin/gnu/h-x86_64-mingw32/bin/../lib/gcc/nios2-elf/5.3.0/../../../../../H-x86_64-mingw32/nios2-elf/lib\libc.a(lib_a-fflush.o)
 .debug_aranges
                0x0000000000000118       0x68 c:/altera/18.1/nios2eds/bin/gnu/h-x86_64-mingw32/bin/../lib/gcc/nios2-elf/5.3.0/../../../../../H-x86_64-mingw32/nios2-elf/lib\libc.a(lib_a-findfp.o)
 .debug_aranges
                0x0000000000000180       0x28 c:/altera/18.1/nios2eds/bin/gnu/h-x86_64-mingw32/bin/../lib/gcc/nios2-elf/5.3.0/../../../../../H-x86_64-mingw32/nios2-elf/lib\libc.a(lib_a-freer.o)
 .debug_aranges
                0x00000000000001a8       0x28 c:/altera/18.1/nios2eds/bin/gnu/h-x86_64-mingw32/bin/../lib/gcc/nios2-elf/5.3.0/../../../../../H-x86_64-mingw32/nios2-elf/lib\libc.a(lib_a-fwalk.o)
 .debug_aranges
                0x00000000000001d0       0x18 c:/altera/18.1/nios2eds/bin/gnu/h-x86_64-mingw32/bin/../lib/gcc/nios2-elf/5.3.0/../../../../../H-x86_64-mingw32/nios2-elf/lib\libc.a(lib_a-impure.o)
 .debug_aranges
                0x00000000000001e8       0x58 c:/altera/18.1/nios2eds/bin/gnu/h-x86_64-mingw32/bin/../lib/gcc/nios2-elf/5.3.0/../../../../../H-x86_64-mingw32/nios2-elf/lib\libc.a(lib_a-locale.o)
 .debug_aranges
                0x0000000000000240       0x20 c:/altera/18.1/nios2eds/bin/gnu/h-x86_64-mingw32/bin/../lib/gcc/nios2-elf/5.3.0/../../../../../H-x86_64-mingw32/nios2-elf/lib\libc.a(lib_a-makebuf.o)
 .debug_aranges
                0x0000000000000260       0x20 c:/altera/18.1/nios2eds/bin/gnu/h-x86_64-mingw32/bin/../lib/gcc/nios2-elf/5.3.0/../../../../../H-x86_64-mingw32/nios2-elf/lib\libc.a(lib_a-mallocr.o)
 .debug_aranges
                0x0000000000000280       0x20 c:/altera/18.1/nios2eds/bin/gnu/h-x86_64-mingw32/bin/../lib/gcc/nios2-elf/5.3.0/../../../../../H-x86_64-mingw32/nios2-elf/lib\libc.a(lib_a-memchr.o)
 .debug_aranges
                0x00000000000002a0       0x20 c:/altera/18.1/nios2eds/bin/gnu/h-x86_64-mingw32/bin/../lib/gcc/nios2-elf/5.3.0/../../../../../H-x86_64-mingw32/nios2-elf/lib\libc.a(lib_a-memcpy.o)
 .debug_aranges
                0x00000000000002c0       0x20 c:/altera/18.1/nios2eds/bin/gnu/h-x86_64-mingw32/bin/../lib/gcc/nios2-elf/5.3.0/../../../../../H-x86_64-mingw32/nios2-elf/lib\libc.a(lib_a-memset.o)
 .debug_aranges
                0x00000000000002e0       0xb0 c:/altera/18.1/nios2eds/bin/gnu/h-x86_64-mingw32/bin/../lib/gcc/nios2-elf/5.3.0/../../../../../H-x86_64-mingw32/nios2-elf/lib\libc.a(lib_a-mprec.o)
 .debug_aranges
                0x0000000000000390       0x20 c:/altera/18.1/nios2eds/bin/gnu/h-x86_64-mingw32/bin/../lib/gcc/nios2-elf/5.3.0/../../../../../H-x86_64-mingw32/nios2-elf/lib\libc.a(lib_a-s_fpclassify.o)
 .debug_aranges
                0x00000000000003b0       0x20 c:/altera/18.1/nios2eds/bin/gnu/h-x86_64-mingw32/bin/../lib/gcc/nios2-elf/5.3.0/../../../../../H-x86_64-mingw32/nios2-elf/lib\libc.a(lib_a-sbrkr.o)
 .debug_aranges
                0x00000000000003d0       0x40 c:/altera/18.1/nios2eds/bin/gnu/h-x86_64-mingw32/bin/../lib/gcc/nios2-elf/5.3.0/../../../../../H-x86_64-mingw32/nios2-elf/lib\libc.a(lib_a-stdio.o)
 .debug_aranges
                0x0000000000000410       0x20 c:/altera/18.1/nios2eds/bin/gnu/h-x86_64-mingw32/bin/../lib/gcc/nios2-elf/5.3.0/../../../../../H-x86_64-mingw32/nios2-elf/lib\libc.a(lib_a-strcmp.o)
 .debug_aranges
                0x0000000000000430       0x20 c:/altera/18.1/nios2eds/bin/gnu/h-x86_64-mingw32/bin/../lib/gcc/nios2-elf/5.3.0/../../../../../H-x86_64-mingw32/nios2-elf/lib\libc.a(lib_a-strlen.o)
 .debug_aranges
                0x0000000000000450       0x40 c:/altera/18.1/nios2eds/bin/gnu/h-x86_64-mingw32/bin/../lib/gcc/nios2-elf/5.3.0/../../../../../H-x86_64-mingw32/nios2-elf/lib\libc.a(lib_a-vfiprintf.o)
 .debug_aranges
                0x0000000000000490       0x20 c:/altera/18.1/nios2eds/bin/gnu/h-x86_64-mingw32/bin/../lib/gcc/nios2-elf/5.3.0/../../../../../H-x86_64-mingw32/nios2-elf/lib\libc.a(lib_a-writer.o)
 .debug_aranges
                0x00000000000004b0       0x20 c:/altera/18.1/nios2eds/bin/gnu/h-x86_64-mingw32/bin/../lib/gcc/nios2-elf/5.3.0/../../../../../H-x86_64-mingw32/nios2-elf/lib\libc.a(closer.o)
 .debug_aranges
                0x00000000000004d0       0x20 c:/altera/18.1/nios2eds/bin/gnu/h-x86_64-mingw32/bin/../lib/gcc/nios2-elf/5.3.0/../../../../../H-x86_64-mingw32/nios2-elf/lib\libc.a(lib_a-callocr.o)
 .debug_aranges
                0x00000000000004f0       0x28 c:/altera/18.1/nios2eds/bin/gnu/h-x86_64-mingw32/bin/../lib/gcc/nios2-elf/5.3.0/../../../../../H-x86_64-mingw32/nios2-elf/lib\libc.a(lib_a-fclose.o)
 .debug_aranges
                0x0000000000000518       0x30 c:/altera/18.1/nios2eds/bin/gnu/h-x86_64-mingw32/bin/../lib/gcc/nios2-elf/5.3.0/../../../../../H-x86_64-mingw32/nios2-elf/lib\libc.a(lib_a-fputwc.o)
 .debug_aranges
                0x0000000000000548       0x20 c:/altera/18.1/nios2eds/bin/gnu/h-x86_64-mingw32/bin/../lib/gcc/nios2-elf/5.3.0/../../../../../H-x86_64-mingw32/nios2-elf/lib\libc.a(lib_a-fstatr.o)
 .debug_aranges
                0x0000000000000568       0x20 c:/altera/18.1/nios2eds/bin/gnu/h-x86_64-mingw32/bin/../lib/gcc/nios2-elf/5.3.0/../../../../../H-x86_64-mingw32/nios2-elf/lib\libc.a(lib_a-fvwrite.o)
 .debug_aranges
                0x0000000000000588       0x18 c:/altera/18.1/nios2eds/bin/gnu/h-x86_64-mingw32/bin/../lib/gcc/nios2-elf/5.3.0/../../../../../H-x86_64-mingw32/nios2-elf/lib\libc.a(lib_a-int_errno.o)
 .debug_aranges
                0x00000000000005a0       0x20 c:/altera/18.1/nios2eds/bin/gnu/h-x86_64-mingw32/bin/../lib/gcc/nios2-elf/5.3.0/../../../../../H-x86_64-mingw32/nios2-elf/lib\libc.a(lib_a-isattyr.o)
 .debug_aranges
                0x00000000000005c0       0x20 c:/altera/18.1/nios2eds/bin/gnu/h-x86_64-mingw32/bin/../lib/gcc/nios2-elf/5.3.0/../../../../../H-x86_64-mingw32/nios2-elf/lib\libc.a(lib_a-lseekr.o)
 .debug_aranges
                0x00000000000005e0       0x20 c:/altera/18.1/nios2eds/bin/gnu/h-x86_64-mingw32/bin/../lib/gcc/nios2-elf/5.3.0/../../../../../H-x86_64-mingw32/nios2-elf/lib\libc.a(lib_a-memmove.o)
 .debug_aranges
                0x0000000000000600       0x20 c:/altera/18.1/nios2eds/bin/gnu/h-x86_64-mingw32/bin/../lib/gcc/nios2-elf/5.3.0/../../../../../H-x86_64-mingw32/nios2-elf/lib\libc.a(lib_a-readr.o)
 .debug_aranges
                0x0000000000000620       0x20 c:/altera/18.1/nios2eds/bin/gnu/h-x86_64-mingw32/bin/../lib/gcc/nios2-elf/5.3.0/../../../../../H-x86_64-mingw32/nios2-elf/lib\libc.a(lib_a-reallocr.o)
 .debug_aranges
                0x0000000000000640       0x28 c:/altera/18.1/nios2eds/bin/gnu/h-x86_64-mingw32/bin/../lib/gcc/nios2-elf/5.3.0/../../../../../H-x86_64-mingw32/nios2-elf/lib\libc.a(lib_a-wbuf.o)
 .debug_aranges
                0x0000000000000668       0x28 c:/altera/18.1/nios2eds/bin/gnu/h-x86_64-mingw32/bin/../lib/gcc/nios2-elf/5.3.0/../../../../../H-x86_64-mingw32/nios2-elf/lib\libc.a(lib_a-wcrtomb.o)
 .debug_aranges
                0x0000000000000690       0x28 c:/altera/18.1/nios2eds/bin/gnu/h-x86_64-mingw32/bin/../lib/gcc/nios2-elf/5.3.0/../../../../../H-x86_64-mingw32/nios2-elf/lib\libc.a(lib_a-wctomb_r.o)
 .debug_aranges
                0x00000000000006b8       0x20 c:/altera/18.1/nios2eds/bin/gnu/h-x86_64-mingw32/bin/../lib/gcc/nios2-elf/5.3.0\libgcc.a(_udivdi3.o)
 .debug_aranges
                0x00000000000006d8       0x20 c:/altera/18.1/nios2eds/bin/gnu/h-x86_64-mingw32/bin/../lib/gcc/nios2-elf/5.3.0\libgcc.a(_umoddi3.o)
 .debug_aranges
                0x00000000000006f8       0x20 c:/altera/18.1/nios2eds/bin/gnu/h-x86_64-mingw32/bin/../lib/gcc/nios2-elf/5.3.0\libgcc.a(lib2-divmod.o)
 .debug_aranges
                0x0000000000000718       0x20 c:/altera/18.1/nios2eds/bin/gnu/h-x86_64-mingw32/bin/../lib/gcc/nios2-elf/5.3.0\libgcc.a(adddf3.o)
 .debug_aranges
                0x0000000000000738       0x20 c:/altera/18.1/nios2eds/bin/gnu/h-x86_64-mingw32/bin/../lib/gcc/nios2-elf/5.3.0\libgcc.a(divdf3.o)
 .debug_aranges
                0x0000000000000758       0x20 c:/altera/18.1/nios2eds/bin/gnu/h-x86_64-mingw32/bin/../lib/gcc/nios2-elf/5.3.0\libgcc.a(eqdf2.o)
 .debug_aranges
                0x0000000000000778       0x20 c:/altera/18.1/nios2eds/bin/gnu/h-x86_64-mingw32/bin/../lib/gcc/nios2-elf/5.3.0\libgcc.a(gedf2.o)
 .debug_aranges
                0x0000000000000798       0x20 c:/altera/18.1/nios2eds/bin/gnu/h-x86_64-mingw32/bin/../lib/gcc/nios2-elf/5.3.0\libgcc.a(ledf2.o)
 .debug_aranges
                0x00000000000007b8       0x20 c:/altera/18.1/nios2eds/bin/gnu/h-x86_64-mingw32/bin/../lib/gcc/nios2-elf/5.3.0\libgcc.a(muldf3.o)
 .debug_aranges
                0x00000000000007d8       0x20 c:/altera/18.1/nios2eds/bin/gnu/h-x86_64-mingw32/bin/../lib/gcc/nios2-elf/5.3.0\libgcc.a(subdf3.o)
 .debug_aranges
                0x00000000000007f8       0x20 c:/altera/18.1/nios2eds/bin/gnu/h-x86_64-mingw32/bin/../lib/gcc/nios2-elf/5.3.0\libgcc.a(fixdfsi.o)
 .debug_aranges
                0x0000000000000818       0x20 c:/altera/18.1/nios2eds/bin/gnu/h-x86_64-mingw32/bin/../lib/gcc/nios2-elf/5.3.0\libgcc.a(floatsidf.o)
 .debug_aranges
                0x0000000000000838       0x20 c:/altera/18.1/nios2eds/bin/gnu/h-x86_64-mingw32/bin/../lib/gcc/nios2-elf/5.3.0\libgcc.a(floatunsidf.o)
 .debug_aranges
                0x0000000000000858       0x18 c:/altera/18.1/nios2eds/bin/gnu/h-x86_64-mingw32/bin/../lib/gcc/nios2-elf/5.3.0\libgcc.a(_clz.o)
 .debug_aranges
                0x0000000000000870       0x20 c:/altera/18.1/nios2eds/bin/gnu/h-x86_64-mingw32/bin/../lib/gcc/nios2-elf/5.3.0\libgcc.a(_clzsi2.o)
 .debug_aranges
                0x0000000000000890       0x20 ../FreeRTOS_bsp/\libfreertos_bsp.a(alt_main.o)
 .debug_aranges
                0x00000000000008b0       0x20 ../FreeRTOS_bsp/\libfreertos_bsp.a(alt_malloc_lock.o)
 .debug_aranges
                0x00000000000008d0       0x20 ../FreeRTOS_bsp/\libfreertos_bsp.a(queue.o)
 .debug_aranges
                0x00000000000008f0       0x20 ../FreeRTOS_bsp/\libfreertos_bsp.a(tasks.o)
 .debug_aranges
                0x0000000000000910       0x20 ../FreeRTOS_bsp/\libfreertos_bsp.a(timers.o)
 .debug_aranges
                0x0000000000000930       0x20 ../FreeRTOS_bsp/\libfreertos_bsp.a(alt_dev.o)
 .debug_aranges
                0x0000000000000950       0x20 ../FreeRTOS_bsp/\libfreertos_bsp.a(alt_do_ctors.o)
 .debug_aranges
                0x0000000000000970       0x20 ../FreeRTOS_bsp/\libfreertos_bsp.a(alt_do_dtors.o)
 .debug_aranges
                0x0000000000000990       0x20 ../FreeRTOS_bsp/\libfreertos_bsp.a(alt_fstat.o)
 .debug_aranges
                0x00000000000009b0       0x20 ../FreeRTOS_bsp/\libfreertos_bsp.a(alt_io_redirect.o)
 .debug_aranges
                0x00000000000009d0       0x20 ../FreeRTOS_bsp/\libfreertos_bsp.a(alt_isatty.o)
 .debug_aranges
                0x00000000000009f0       0x20 ../FreeRTOS_bsp/\libfreertos_bsp.a(alt_load.o)
 .debug_aranges
                0x0000000000000a10       0x20 ../FreeRTOS_bsp/\libfreertos_bsp.a(alt_lseek.o)
 .debug_aranges
                0x0000000000000a30       0x20 ../FreeRTOS_bsp/\libfreertos_bsp.a(alt_open.o)
 .debug_aranges
                0x0000000000000a50       0x20 ../FreeRTOS_bsp/\libfreertos_bsp.a(alt_printf.o)
 .debug_aranges
                0x0000000000000a70       0x20 ../FreeRTOS_bsp/\libfreertos_bsp.a(alt_putchar.o)
 .debug_aranges
                0x0000000000000a90       0x20 ../FreeRTOS_bsp/\libfreertos_bsp.a(alt_release_fd.o)
 .debug_aranges
                0x0000000000000ab0       0x20 ../FreeRTOS_bsp/\libfreertos_bsp.a(alt_sbrk.o)
 .debug_aranges
                0x0000000000000ad0       0x20 ../FreeRTOS_bsp/\libfreertos_bsp.a(alt_lwip_close.o)
 .debug_aranges
                0x0000000000000af0       0x20 ../FreeRTOS_bsp/\libfreertos_bsp.a(alt_lwip_read.o)
 .debug_aranges
                0x0000000000000b10       0x20 ../FreeRTOS_bsp/\libfreertos_bsp.a(alt_lwip_write.o)
 .debug_aranges
                0x0000000000000b30       0x20 ../FreeRTOS_bsp/\libfreertos_bsp.a(altera_tse_ethernetif.o)
 .debug_aranges
                0x0000000000000b50       0x20 ../FreeRTOS_bsp/\libfreertos_bsp.a(lwip_main.o)
 .debug_aranges
                0x0000000000000b70       0x20 ../FreeRTOS_bsp/\libfreertos_bsp.a(lwip_tse_mac.o)
 .debug_aranges
                0x0000000000000b90       0x20 ../FreeRTOS_bsp/\libfreertos_bsp.a(sys_arch.o)
 .debug_aranges
                0x0000000000000bb0       0x20 ../FreeRTOS_bsp/\libfreertos_bsp.a(dhcp.o)
 .debug_aranges
                0x0000000000000bd0       0x20 ../FreeRTOS_bsp/\libfreertos_bsp.a(etharp.o)
 .debug_aranges
                0x0000000000000bf0       0x20 ../FreeRTOS_bsp/\libfreertos_bsp.a(ip4_addr.o)
 .debug_aranges
                0x0000000000000c10       0x20 ../FreeRTOS_bsp/\libfreertos_bsp.a(mem.o)
 .debug_aranges
                0x0000000000000c30       0x20 ../FreeRTOS_bsp/\libfreertos_bsp.a(memp.o)
 .debug_aranges
                0x0000000000000c50       0x20 ../FreeRTOS_bsp/\libfreertos_bsp.a(netif.o)
 .debug_aranges
                0x0000000000000c70       0x20 ../FreeRTOS_bsp/\libfreertos_bsp.a(pbuf.o)
 .debug_aranges
                0x0000000000000c90       0x20 ../FreeRTOS_bsp/\libfreertos_bsp.a(raw.o)
 .debug_aranges
                0x0000000000000cb0       0x20 ../FreeRTOS_bsp/\libfreertos_bsp.a(stats.o)
 .debug_aranges
                0x0000000000000cd0       0x20 ../FreeRTOS_bsp/\libfreertos_bsp.a(tcp.o)
 .debug_aranges
                0x0000000000000cf0       0x20 ../FreeRTOS_bsp/\libfreertos_bsp.a(tcp_in.o)
 .debug_aranges
                0x0000000000000d10       0x20 ../FreeRTOS_bsp/\libfreertos_bsp.a(tcp_out.o)
 .debug_aranges
                0x0000000000000d30       0x20 ../FreeRTOS_bsp/\libfreertos_bsp.a(timeouts.o)
 .debug_aranges
                0x0000000000000d50       0x20 ../FreeRTOS_bsp/\libfreertos_bsp.a(udp.o)
 .debug_aranges
                0x0000000000000d70       0x20 ../FreeRTOS_bsp/\libfreertos_bsp.a(ethernet.o)
 .debug_aranges
                0x0000000000000d90       0x20 ../FreeRTOS_bsp/\libfreertos_bsp.a(alt_sys_init.o)
 .debug_aranges
                0x0000000000000db0       0x20 ../FreeRTOS_bsp/\libfreertos_bsp.a(altera_avalon_jtag_uart_fd.o)
 .debug_aranges
                0x0000000000000dd0       0x20 ../FreeRTOS_bsp/\libfreertos_bsp.a(altera_avalon_jtag_uart_init.o)
 .debug_aranges
                0x0000000000000df0       0x20 ../FreeRTOS_bsp/\libfreertos_bsp.a(altera_avalon_jtag_uart_ioctl.o)
 .debug_aranges
                0x0000000000000e10       0x20 ../FreeRTOS_bsp/\libfreertos_bsp.a(altera_avalon_jtag_uart_read.o)
 .debug_aranges
                0x0000000000000e30       0x20 ../FreeRTOS_bsp/\libfreertos_bsp.a(altera_avalon_jtag_uart_write.o)
 .debug_aranges
                0x0000000000000e50       0x20 ../FreeRTOS_bsp/\libfreertos_bsp.a(altera_avalon_sgdma.o)
 .debug_aranges
                0x0000000000000e70       0x20 ../FreeRTOS_bsp/\libfreertos_bsp.a(altera_avalon_timer_sc.o)
 .debug_aranges
                0x0000000000000e90       0x20 ../FreeRTOS_bsp/\libfreertos_bsp.a(altera_avalon_uart_fd.o)
 .debug_aranges
                0x0000000000000eb0       0x20 ../FreeRTOS_bsp/\libfreertos_bsp.a(altera_avalon_uart_init.o)
 .debug_aranges
                0x0000000000000ed0       0x20 ../FreeRTOS_bsp/\libfreertos_bsp.a(altera_avalon_uart_read.o)
 .debug_aranges
                0x0000000000000ef0       0x20 ../FreeRTOS_bsp/\libfreertos_bsp.a(altera_avalon_uart_write.o)
 .debug_aranges
                0x0000000000000f10       0x20 ../FreeRTOS_bsp/\libfreertos_bsp.a(alt_env_lock.o)
 .debug_aranges
                0x0000000000000f30       0x20 ../FreeRTOS_bsp/\libfreertos_bsp.a(heap_1.o)
 .debug_aranges
                0x0000000000000f50       0x20 ../FreeRTOS_bsp/\libfreertos_bsp.a(list.o)
 .debug_aranges
                0x0000000000000f70       0x20 ../FreeRTOS_bsp/\libfreertos_bsp.a(port.o)
 .debug_aranges
                0x0000000000000f90       0x40 ../FreeRTOS_bsp/\libfreertos_bsp.a(port_asm.o)
 .debug_aranges
                0x0000000000000fd0       0x18 ../FreeRTOS_bsp/\libfreertos_bsp.a(tse_ethernet_phys.o)
 .debug_aranges
                0x0000000000000fe8       0x20 ../FreeRTOS_bsp/\libfreertos_bsp.a(alt_alarm_start.o)
 .debug_aranges
                0x0000000000001008       0x20 ../FreeRTOS_bsp/\libfreertos_bsp.a(alt_close.o)
 .debug_aranges
                0x0000000000001028       0x20 ../FreeRTOS_bsp/\libfreertos_bsp.a(alt_dcache_flush.o)
 .debug_aranges
                0x0000000000001048       0x20 ../FreeRTOS_bsp/\libfreertos_bsp.a(alt_dcache_flush_all.o)
 .debug_aranges
                0x0000000000001068       0x20 ../FreeRTOS_bsp/\libfreertos_bsp.a(alt_dev_llist_insert.o)
 .debug_aranges
                0x0000000000001088       0x18 ../FreeRTOS_bsp/\libfreertos_bsp.a(alt_errno.o)
 .debug_aranges
                0x00000000000010a0       0x20 ../FreeRTOS_bsp/\libfreertos_bsp.a(alt_find_dev.o)
 .debug_aranges
                0x00000000000010c0       0x20 ../FreeRTOS_bsp/\libfreertos_bsp.a(alt_find_file.o)
 .debug_aranges
                0x00000000000010e0       0x20 ../FreeRTOS_bsp/\libfreertos_bsp.a(alt_get_fd.o)
 .debug_aranges
                0x0000000000001100       0x20 ../FreeRTOS_bsp/\libfreertos_bsp.a(alt_icache_flush_all.o)
 .debug_aranges
                0x0000000000001120       0x20 ../FreeRTOS_bsp/\libfreertos_bsp.a(alt_iic.o)
 .debug_aranges
                0x0000000000001140       0x20 ../FreeRTOS_bsp/\libfreertos_bsp.a(alt_iic_isr_register.o)
 .debug_aranges
                0x0000000000001160       0x20 ../FreeRTOS_bsp/\libfreertos_bsp.a(alt_irq_handler.o)
 .debug_aranges
                0x0000000000001180       0x18 ../FreeRTOS_bsp/\libfreertos_bsp.a(alt_irq_vars.o)
 .debug_aranges
                0x0000000000001198       0x20 ../FreeRTOS_bsp/\libfreertos_bsp.a(alt_read.o)
 .debug_aranges
                0x00000000000011b8       0x20 ../FreeRTOS_bsp/\libfreertos_bsp.a(alt_tick.o)
 .debug_aranges
                0x00000000000011d8       0x20 ../FreeRTOS_bsp/\libfreertos_bsp.a(alt_uncached_malloc.o)
 .debug_aranges
                0x00000000000011f8       0x20 ../FreeRTOS_bsp/\libfreertos_bsp.a(alt_usleep.o)
 .debug_aranges
                0x0000000000001218       0x20 ../FreeRTOS_bsp/\libfreertos_bsp.a(alt_write.o)
 .debug_aranges
                0x0000000000001238       0x20 ../FreeRTOS_bsp/\libfreertos_bsp.a(altera_nios2_gen2_irq.o)
 .debug_aranges
                0x0000000000001258       0x20 ../FreeRTOS_bsp/\libfreertos_bsp.a(sockets.o)
 .debug_aranges
                0x0000000000001278       0x20 ../FreeRTOS_bsp/\libfreertos_bsp.a(tcpip.o)
 .debug_aranges
                0x0000000000001298       0x20 ../FreeRTOS_bsp/\libfreertos_bsp.a(altera_avalon_tse.o)
 .debug_aranges
                0x00000000000012b8       0x20 ../FreeRTOS_bsp/\libfreertos_bsp.a(def.o)
 .debug_aranges
                0x00000000000012d8       0x20 ../FreeRTOS_bsp/\libfreertos_bsp.a(inet_chksum.o)
 .debug_aranges
                0x00000000000012f8       0x20 ../FreeRTOS_bsp/\libfreertos_bsp.a(init.o)
 .debug_aranges
                0x0000000000001318       0x18 ../FreeRTOS_bsp/\libfreertos_bsp.a(ip.o)
 .debug_aranges
                0x0000000000001330       0x20 ../FreeRTOS_bsp/\libfreertos_bsp.a(acd.o)
 .debug_aranges
                0x0000000000001350       0x20 ../FreeRTOS_bsp/\libfreertos_bsp.a(icmp.o)
 .debug_aranges
                0x0000000000001370       0x20 ../FreeRTOS_bsp/\libfreertos_bsp.a(ip4.o)
 .debug_aranges
                0x0000000000001390       0x20 ../FreeRTOS_bsp/\libfreertos_bsp.a(ip4_frag.o)
 .debug_aranges
                0x00000000000013b0       0x20 ../FreeRTOS_bsp/\libfreertos_bsp.a(alt_busy_sleep.o)
 .debug_aranges
                0x00000000000013d0       0x20 ../FreeRTOS_bsp/\libfreertos_bsp.a(alt_icache_flush.o)
 .debug_aranges
                0x00000000000013f0       0x20 ../FreeRTOS_bsp/\libfreertos_bsp.a(api_lib.o)
 .debug_aranges
                0x0000000000001410       0x20 ../FreeRTOS_bsp/\libfreertos_bsp.a(api_msg.o)
 .debug_aranges
                0x0000000000001430       0x20 ../FreeRTOS_bsp/\libfreertos_bsp.a(err.o)
 .debug_aranges
                0x0000000000001450       0x20 ../FreeRTOS_bsp/\libfreertos_bsp.a(netbuf.o)
 .debug_aranges
                0x0000000000001470       0x20 c:/altera/18.1/nios2eds/bin/gnu/h-x86_64-mingw32/bin/../lib/gcc/nios2-elf/5.3.0/../../../../../H-x86_64-mingw32/nios2-elf/lib\libc.a(lib_a-atexit.o)
 .debug_aranges
                0x0000000000001490       0x28 c:/altera/18.1/nios2eds/bin/gnu/h-x86_64-mingw32/bin/../lib/gcc/nios2-elf/5.3.0/../../../../../H-x86_64-mingw32/nios2-elf/lib\libc.a(lib_a-atoi.o)
 .debug_aranges
                0x00000000000014b8       0x18 c:/altera/18.1/nios2eds/bin/gnu/h-x86_64-mingw32/bin/../lib/gcc/nios2-elf/5.3.0/../../../../../H-x86_64-mingw32/nios2-elf/lib\libc.a(lib_a-ctype_.o)
 .debug_aranges
                0x00000000000014d0       0x20 c:/altera/18.1/nios2eds/bin/gnu/h-x86_64-mingw32/bin/../lib/gcc/nios2-elf/5.3.0/../../../../../H-x86_64-mingw32/nios2-elf/lib\libc.a(lib_a-errno.o)
 .debug_aranges
                0x00000000000014f0       0x20 c:/altera/18.1/nios2eds/bin/gnu/h-x86_64-mingw32/bin/../lib/gcc/nios2-elf/5.3.0/../../../../../H-x86_64-mingw32/nios2-elf/lib\libc.a(lib_a-exit.o)
 .debug_aranges
                0x0000000000001510       0x28 c:/altera/18.1/nios2eds/bin/gnu/h-x86_64-mingw32/bin/../lib/gcc/nios2-elf/5.3.0/../../../../../H-x86_64-mingw32/nios2-elf/lib\libc.a(lib_a-malloc.o)
 .debug_aranges
                0x0000000000001538       0x20 c:/altera/18.1/nios2eds/bin/gnu/h-x86_64-mingw32/bin/../lib/gcc/nios2-elf/5.3.0/../../../../../H-x86_64-mingw32/nios2-elf/lib\libc.a(lib_a-memcmp.o)
 .debug_aranges
                0x0000000000001558       0x28 c:/altera/18.1/nios2eds/bin/gnu/h-x86_64-mingw32/bin/../lib/gcc/nios2-elf/5.3.0/../../../../../H-x86_64-mingw32/nios2-elf/lib\libc.a(lib_a-putc.o)
 .debug_aranges
                0x0000000000001580       0x28 c:/altera/18.1/nios2eds/bin/gnu/h-x86_64-mingw32/bin/../lib/gcc/nios2-elf/5.3.0/../../../../../H-x86_64-mingw32/nios2-elf/lib\libc.a(lib_a-puts.o)
 .debug_aranges
                0x00000000000015a8       0x28 c:/altera/18.1/nios2eds/bin/gnu/h-x86_64-mingw32/bin/../lib/gcc/nios2-elf/5.3.0/../../../../../H-x86_64-mingw32/nios2-elf/lib\libc.a(lib_a-snprintf.o)
 .debug_aranges
                0x00000000000015d0       0x20 c:/altera/18.1/nios2eds/bin/gnu/h-x86_64-mingw32/bin/../lib/gcc/nios2-elf/5.3.0/../../../../../H-x86_64-mingw32/nios2-elf/lib\libc.a(lib_a-strcpy.o)
 .debug_aranges
                0x00000000000015f0       0x20 c:/altera/18.1/nios2eds/bin/gnu/h-x86_64-mingw32/bin/../lib/gcc/nios2-elf/5.3.0/../../../../../H-x86_64-mingw32/nios2-elf/lib\libc.a(lib_a-strncmp.o)
 .debug_aranges
                0x0000000000001610       0x28 c:/altera/18.1/nios2eds/bin/gnu/h-x86_64-mingw32/bin/../lib/gcc/nios2-elf/5.3.0/../../../../../H-x86_64-mingw32/nios2-elf/lib\libc.a(lib_a-strtol.o)
 .debug_aranges
                0x0000000000001638       0x20 c:/altera/18.1/nios2eds/bin/gnu/h-x86_64-mingw32/bin/../lib/gcc/nios2-elf/5.3.0/../../../../../H-x86_64-mingw32/nios2-elf/lib\libc.a(lib_a-svfprintf.o)
 .debug_aranges
                0x0000000000001658       0x20 c:/altera/18.1/nios2eds/bin/gnu/h-x86_64-mingw32/bin/../lib/gcc/nios2-elf/5.3.0/../../../../../H-x86_64-mingw32/nios2-elf/lib\libc.a(lib_a-__atexit.o)
 .debug_aranges
                0x0000000000001678       0x20 c:/altera/18.1/nios2eds/bin/gnu/h-x86_64-mingw32/bin/../lib/gcc/nios2-elf/5.3.0/../../../../../H-x86_64-mingw32/nios2-elf/lib\libc.a(lib_a-__call_atexit.o)
 .debug_aranges
                0x0000000000001698       0x28 c:/altera/18.1/nios2eds/bin/gnu/h-x86_64-mingw32/bin/../lib/gcc/nios2-elf/5.3.0/../../../../../H-x86_64-mingw32/nios2-elf/lib\libc.a(lib_a-svfiprintf.o)
 .debug_aranges
                0x00000000000016c0       0x20 ../FreeRTOS_bsp/\libfreertos_bsp.a(alt_exit.o)

.debug_pubnames
 *(.debug_pubnames)

.debug_info     0x0000000000000000    0x53246
 *(.debug_info .gnu.linkonce.wi.*)
 .debug_info    0x0000000000000000       0x67 ../FreeRTOS_bsp//obj/HAL/src/crt0.o
 .debug_info    0x0000000000000067     0x1069 obj/default/main.o
 .debug_info    0x00000000000010d0      0x991 c:/altera/18.1/nios2eds/bin/gnu/h-x86_64-mingw32/bin/../lib/gcc/nios2-elf/5.3.0/../../../../../H-x86_64-mingw32/nios2-elf/lib\libc.a(lib_a-printf.o)
 .debug_info    0x0000000000001a61     0x16b8 c:/altera/18.1/nios2eds/bin/gnu/h-x86_64-mingw32/bin/../lib/gcc/nios2-elf/5.3.0/../../../../../H-x86_64-mingw32/nios2-elf/lib\libc.a(lib_a-vfprintf.o)
 .debug_info    0x0000000000003119      0x936 c:/altera/18.1/nios2eds/bin/gnu/h-x86_64-mingw32/bin/../lib/gcc/nios2-elf/5.3.0/../../../../../H-x86_64-mingw32/nios2-elf/lib\libc.a(lib_a-wsetup.o)
 .debug_info    0x0000000000003a4f     0x1247 c:/altera/18.1/nios2eds/bin/gnu/h-x86_64-mingw32/bin/../lib/gcc/nios2-elf/5.3.0/../../../../../H-x86_64-mingw32/nios2-elf/lib\libc.a(lib_a-dtoa.o)
 .debug_info    0x0000000000004c96      0xa93 c:/altera/18.1/nios2eds/bin/gnu/h-x86_64-mingw32/bin/../lib/gcc/nios2-elf/5.3.0/../../../../../H-x86_64-mingw32/nios2-elf/lib\libc.a(lib_a-fflush.o)
 .debug_info    0x0000000000005729      0xd37 c:/altera/18.1/nios2eds/bin/gnu/h-x86_64-mingw32/bin/../lib/gcc/nios2-elf/5.3.0/../../../../../H-x86_64-mingw32/nios2-elf/lib\libc.a(lib_a-findfp.o)
 .debug_info    0x0000000000006460      0xbf7 c:/altera/18.1/nios2eds/bin/gnu/h-x86_64-mingw32/bin/../lib/gcc/nios2-elf/5.3.0/../../../../../H-x86_64-mingw32/nios2-elf/lib\libc.a(lib_a-freer.o)
 .debug_info    0x0000000000007057      0x9b0 c:/altera/18.1/nios2eds/bin/gnu/h-x86_64-mingw32/bin/../lib/gcc/nios2-elf/5.3.0/../../../../../H-x86_64-mingw32/nios2-elf/lib\libc.a(lib_a-fwalk.o)
 .debug_info    0x0000000000007a07      0x8a1 c:/altera/18.1/nios2eds/bin/gnu/h-x86_64-mingw32/bin/../lib/gcc/nios2-elf/5.3.0/../../../../../H-x86_64-mingw32/nios2-elf/lib\libc.a(lib_a-impure.o)
 .debug_info    0x00000000000082a8      0xc25 c:/altera/18.1/nios2eds/bin/gnu/h-x86_64-mingw32/bin/../lib/gcc/nios2-elf/5.3.0/../../../../../H-x86_64-mingw32/nios2-elf/lib\libc.a(lib_a-locale.o)
 .debug_info    0x0000000000008ecd      0xad8 c:/altera/18.1/nios2eds/bin/gnu/h-x86_64-mingw32/bin/../lib/gcc/nios2-elf/5.3.0/../../../../../H-x86_64-mingw32/nios2-elf/lib\libc.a(lib_a-makebuf.o)
 .debug_info    0x00000000000099a5      0xd57 c:/altera/18.1/nios2eds/bin/gnu/h-x86_64-mingw32/bin/../lib/gcc/nios2-elf/5.3.0/../../../../../H-x86_64-mingw32/nios2-elf/lib\libc.a(lib_a-mallocr.o)
 .debug_info    0x000000000000a6fc      0x132 c:/altera/18.1/nios2eds/bin/gnu/h-x86_64-mingw32/bin/../lib/gcc/nios2-elf/5.3.0/../../../../../H-x86_64-mingw32/nios2-elf/lib\libc.a(lib_a-memchr.o)
 .debug_info    0x000000000000a82e      0x144 c:/altera/18.1/nios2eds/bin/gnu/h-x86_64-mingw32/bin/../lib/gcc/nios2-elf/5.3.0/../../../../../H-x86_64-mingw32/nios2-elf/lib\libc.a(lib_a-memcpy.o)
 .debug_info    0x000000000000a972      0x121 c:/altera/18.1/nios2eds/bin/gnu/h-x86_64-mingw32/bin/../lib/gcc/nios2-elf/5.3.0/../../../../../H-x86_64-mingw32/nios2-elf/lib\libc.a(lib_a-memset.o)
 .debug_info    0x000000000000aa93     0x16b7 c:/altera/18.1/nios2eds/bin/gnu/h-x86_64-mingw32/bin/../lib/gcc/nios2-elf/5.3.0/../../../../../H-x86_64-mingw32/nios2-elf/lib\libc.a(lib_a-mprec.o)
 .debug_info    0x000000000000c14a       0xdc c:/altera/18.1/nios2eds/bin/gnu/h-x86_64-mingw32/bin/../lib/gcc/nios2-elf/5.3.0/../../../../../H-x86_64-mingw32/nios2-elf/lib\libc.a(lib_a-s_fpclassify.o)
 .debug_info    0x000000000000c226      0x900 c:/altera/18.1/nios2eds/bin/gnu/h-x86_64-mingw32/bin/../lib/gcc/nios2-elf/5.3.0/../../../../../H-x86_64-mingw32/nios2-elf/lib\libc.a(lib_a-sbrkr.o)
 .debug_info    0x000000000000cb26      0xb32 c:/altera/18.1/nios2eds/bin/gnu/h-x86_64-mingw32/bin/../lib/gcc/nios2-elf/5.3.0/../../../../../H-x86_64-mingw32/nios2-elf/lib\libc.a(lib_a-stdio.o)
 .debug_info    0x000000000000d658       0xe4 c:/altera/18.1/nios2eds/bin/gnu/h-x86_64-mingw32/bin/../lib/gcc/nios2-elf/5.3.0/../../../../../H-x86_64-mingw32/nios2-elf/lib\libc.a(lib_a-strcmp.o)
 .debug_info    0x000000000000d73c       0xe2 c:/altera/18.1/nios2eds/bin/gnu/h-x86_64-mingw32/bin/../lib/gcc/nios2-elf/5.3.0/../../../../../H-x86_64-mingw32/nios2-elf/lib\libc.a(lib_a-strlen.o)
 .debug_info    0x000000000000d81e     0x1535 c:/altera/18.1/nios2eds/bin/gnu/h-x86_64-mingw32/bin/../lib/gcc/nios2-elf/5.3.0/../../../../../H-x86_64-mingw32/nios2-elf/lib\libc.a(lib_a-vfiprintf.o)
 .debug_info    0x000000000000ed53      0x928 c:/altera/18.1/nios2eds/bin/gnu/h-x86_64-mingw32/bin/../lib/gcc/nios2-elf/5.3.0/../../../../../H-x86_64-mingw32/nios2-elf/lib\libc.a(lib_a-writer.o)
 .debug_info    0x000000000000f67b      0x8df c:/altera/18.1/nios2eds/bin/gnu/h-x86_64-mingw32/bin/../lib/gcc/nios2-elf/5.3.0/../../../../../H-x86_64-mingw32/nios2-elf/lib\libc.a(closer.o)
 .debug_info    0x000000000000ff5a      0x9d5 c:/altera/18.1/nios2eds/bin/gnu/h-x86_64-mingw32/bin/../lib/gcc/nios2-elf/5.3.0/../../../../../H-x86_64-mingw32/nios2-elf/lib\libc.a(lib_a-callocr.o)
 .debug_info    0x000000000001092f      0xa23 c:/altera/18.1/nios2eds/bin/gnu/h-x86_64-mingw32/bin/../lib/gcc/nios2-elf/5.3.0/../../../../../H-x86_64-mingw32/nios2-elf/lib\libc.a(lib_a-fclose.o)
 .debug_info    0x0000000000011352      0xad4 c:/altera/18.1/nios2eds/bin/gnu/h-x86_64-mingw32/bin/../lib/gcc/nios2-elf/5.3.0/../../../../../H-x86_64-mingw32/nios2-elf/lib\libc.a(lib_a-fputwc.o)
 .debug_info    0x0000000000011e26      0xa5d c:/altera/18.1/nios2eds/bin/gnu/h-x86_64-mingw32/bin/../lib/gcc/nios2-elf/5.3.0/../../../../../H-x86_64-mingw32/nios2-elf/lib\libc.a(lib_a-fstatr.o)
 .debug_info    0x0000000000012883      0xbb8 c:/altera/18.1/nios2eds/bin/gnu/h-x86_64-mingw32/bin/../lib/gcc/nios2-elf/5.3.0/../../../../../H-x86_64-mingw32/nios2-elf/lib\libc.a(lib_a-fvwrite.o)
 .debug_info    0x000000000001343b       0x8a c:/altera/18.1/nios2eds/bin/gnu/h-x86_64-mingw32/bin/../lib/gcc/nios2-elf/5.3.0/../../../../../H-x86_64-mingw32/nios2-elf/lib\libc.a(lib_a-int_errno.o)
 .debug_info    0x00000000000134c5      0x8df c:/altera/18.1/nios2eds/bin/gnu/h-x86_64-mingw32/bin/../lib/gcc/nios2-elf/5.3.0/../../../../../H-x86_64-mingw32/nios2-elf/lib\libc.a(lib_a-isattyr.o)
 .debug_info    0x0000000000013da4      0x90b c:/altera/18.1/nios2eds/bin/gnu/h-x86_64-mingw32/bin/../lib/gcc/nios2-elf/5.3.0/../../../../../H-x86_64-mingw32/nios2-elf/lib\libc.a(lib_a-lseekr.o)
 .debug_info    0x00000000000146af      0x13a c:/altera/18.1/nios2eds/bin/gnu/h-x86_64-mingw32/bin/../lib/gcc/nios2-elf/5.3.0/../../../../../H-x86_64-mingw32/nios2-elf/lib\libc.a(lib_a-memmove.o)
 .debug_info    0x00000000000147e9      0x921 c:/altera/18.1/nios2eds/bin/gnu/h-x86_64-mingw32/bin/../lib/gcc/nios2-elf/5.3.0/../../../../../H-x86_64-mingw32/nios2-elf/lib\libc.a(lib_a-readr.o)
 .debug_info    0x000000000001510a      0xc6b c:/altera/18.1/nios2eds/bin/gnu/h-x86_64-mingw32/bin/../lib/gcc/nios2-elf/5.3.0/../../../../../H-x86_64-mingw32/nios2-elf/lib\libc.a(lib_a-reallocr.o)
 .debug_info    0x0000000000015d75      0x9be c:/altera/18.1/nios2eds/bin/gnu/h-x86_64-mingw32/bin/../lib/gcc/nios2-elf/5.3.0/../../../../../H-x86_64-mingw32/nios2-elf/lib\libc.a(lib_a-wbuf.o)
 .debug_info    0x0000000000016733      0xa82 c:/altera/18.1/nios2eds/bin/gnu/h-x86_64-mingw32/bin/../lib/gcc/nios2-elf/5.3.0/../../../../../H-x86_64-mingw32/nios2-elf/lib\libc.a(lib_a-wcrtomb.o)
 .debug_info    0x00000000000171b5      0x9b1 c:/altera/18.1/nios2eds/bin/gnu/h-x86_64-mingw32/bin/../lib/gcc/nios2-elf/5.3.0/../../../../../H-x86_64-mingw32/nios2-elf/lib\libc.a(lib_a-wctomb_r.o)
 .debug_info    0x0000000000017b66      0x70e c:/altera/18.1/nios2eds/bin/gnu/h-x86_64-mingw32/bin/../lib/gcc/nios2-elf/5.3.0\libgcc.a(_udivdi3.o)
 .debug_info    0x0000000000018274      0x765 c:/altera/18.1/nios2eds/bin/gnu/h-x86_64-mingw32/bin/../lib/gcc/nios2-elf/5.3.0\libgcc.a(_umoddi3.o)
 .debug_info    0x00000000000189d9      0x2c6 c:/altera/18.1/nios2eds/bin/gnu/h-x86_64-mingw32/bin/../lib/gcc/nios2-elf/5.3.0\libgcc.a(lib2-divmod.o)
 .debug_info    0x0000000000018c9f      0x4a2 c:/altera/18.1/nios2eds/bin/gnu/h-x86_64-mingw32/bin/../lib/gcc/nios2-elf/5.3.0\libgcc.a(adddf3.o)
 .debug_info    0x0000000000019141      0x5c7 c:/altera/18.1/nios2eds/bin/gnu/h-x86_64-mingw32/bin/../lib/gcc/nios2-elf/5.3.0\libgcc.a(divdf3.o)
 .debug_info    0x0000000000019708      0x1e2 c:/altera/18.1/nios2eds/bin/gnu/h-x86_64-mingw32/bin/../lib/gcc/nios2-elf/5.3.0\libgcc.a(eqdf2.o)
 .debug_info    0x00000000000198ea      0x202 c:/altera/18.1/nios2eds/bin/gnu/h-x86_64-mingw32/bin/../lib/gcc/nios2-elf/5.3.0\libgcc.a(gedf2.o)
 .debug_info    0x0000000000019aec      0x204 c:/altera/18.1/nios2eds/bin/gnu/h-x86_64-mingw32/bin/../lib/gcc/nios2-elf/5.3.0\libgcc.a(ledf2.o)
 .debug_info    0x0000000000019cf0      0x5f5 c:/altera/18.1/nios2eds/bin/gnu/h-x86_64-mingw32/bin/../lib/gcc/nios2-elf/5.3.0\libgcc.a(muldf3.o)
 .debug_info    0x000000000001a2e5      0x4a2 c:/altera/18.1/nios2eds/bin/gnu/h-x86_64-mingw32/bin/../lib/gcc/nios2-elf/5.3.0\libgcc.a(subdf3.o)
 .debug_info    0x000000000001a787      0x1ae c:/altera/18.1/nios2eds/bin/gnu/h-x86_64-mingw32/bin/../lib/gcc/nios2-elf/5.3.0\libgcc.a(fixdfsi.o)
 .debug_info    0x000000000001a935      0x1bc c:/altera/18.1/nios2eds/bin/gnu/h-x86_64-mingw32/bin/../lib/gcc/nios2-elf/5.3.0\libgcc.a(floatsidf.o)
 .debug_info    0x000000000001aaf1      0x1b0 c:/altera/18.1/nios2eds/bin/gnu/h-x86_64-mingw32/bin/../lib/gcc/nios2-elf/5.3.0\libgcc.a(floatunsidf.o)
 .debug_info    0x000000000001aca1       0xb2 c:/altera/18.1/nios2eds/bin/gnu/h-x86_64-mingw32/bin/../lib/gcc/nios2-elf/5.3.0\libgcc.a(_clz.o)
 .debug_info    0x000000000001ad53      0x124 c:/altera/18.1/nios2eds/bin/gnu/h-x86_64-mingw32/bin/../lib/gcc/nios2-elf/5.3.0\libgcc.a(_clzsi2.o)
 .debug_info    0x000000000001ae77      0x1f7 ../FreeRTOS_bsp/\libfreertos_bsp.a(alt_main.o)
 .debug_info    0x000000000001b06e      0x8f7 ../FreeRTOS_bsp/\libfreertos_bsp.a(alt_malloc_lock.o)
 .debug_info    0x000000000001b965      0xf0d ../FreeRTOS_bsp/\libfreertos_bsp.a(queue.o)
 .debug_info    0x000000000001c872     0x1876 ../FreeRTOS_bsp/\libfreertos_bsp.a(tasks.o)
 .debug_info    0x000000000001e0e8      0xa6b ../FreeRTOS_bsp/\libfreertos_bsp.a(timers.o)
 .debug_info    0x000000000001eb53      0x4ce ../FreeRTOS_bsp/\libfreertos_bsp.a(alt_dev.o)
 .debug_info    0x000000000001f021       0x83 ../FreeRTOS_bsp/\libfreertos_bsp.a(alt_do_ctors.o)
 .debug_info    0x000000000001f0a4       0x83 ../FreeRTOS_bsp/\libfreertos_bsp.a(alt_do_dtors.o)
 .debug_info    0x000000000001f127      0x488 ../FreeRTOS_bsp/\libfreertos_bsp.a(alt_fstat.o)
 .debug_info    0x000000000001f5af      0x4a5 ../FreeRTOS_bsp/\libfreertos_bsp.a(alt_io_redirect.o)
 .debug_info    0x000000000001fa54      0x48b ../FreeRTOS_bsp/\libfreertos_bsp.a(alt_isatty.o)
 .debug_info    0x000000000001fedf      0x145 ../FreeRTOS_bsp/\libfreertos_bsp.a(alt_load.o)
 .debug_info    0x0000000000020024      0x352 ../FreeRTOS_bsp/\libfreertos_bsp.a(alt_lseek.o)
 .debug_info    0x0000000000020376      0x3bb ../FreeRTOS_bsp/\libfreertos_bsp.a(alt_open.o)
 .debug_info    0x0000000000020731      0x119 ../FreeRTOS_bsp/\libfreertos_bsp.a(alt_printf.o)
 .debug_info    0x000000000002084a      0x8a6 ../FreeRTOS_bsp/\libfreertos_bsp.a(alt_putchar.o)
 .debug_info    0x00000000000210f0      0x2c5 ../FreeRTOS_bsp/\libfreertos_bsp.a(alt_release_fd.o)
 .debug_info    0x00000000000213b5      0x1ac ../FreeRTOS_bsp/\libfreertos_bsp.a(alt_sbrk.o)
 .debug_info    0x0000000000021561       0xa4 ../FreeRTOS_bsp/\libfreertos_bsp.a(alt_lwip_close.o)
 .debug_info    0x0000000000021605       0xcd ../FreeRTOS_bsp/\libfreertos_bsp.a(alt_lwip_read.o)
 .debug_info    0x00000000000216d2       0xd2 ../FreeRTOS_bsp/\libfreertos_bsp.a(alt_lwip_write.o)
 .debug_info    0x00000000000217a4     0x1382 ../FreeRTOS_bsp/\libfreertos_bsp.a(altera_tse_ethernetif.o)
 .debug_info    0x0000000000022b26     0x16c7 ../FreeRTOS_bsp/\libfreertos_bsp.a(lwip_main.o)
 .debug_info    0x00000000000241ed     0x19a8 ../FreeRTOS_bsp/\libfreertos_bsp.a(lwip_tse_mac.o)
 .debug_info    0x0000000000025b95      0x9a8 ../FreeRTOS_bsp/\libfreertos_bsp.a(sys_arch.o)
 .debug_info    0x000000000002653d     0x1a18 ../FreeRTOS_bsp/\libfreertos_bsp.a(dhcp.o)
 .debug_info    0x0000000000027f55     0x11dc ../FreeRTOS_bsp/\libfreertos_bsp.a(etharp.o)
 .debug_info    0x0000000000029131      0x6e0 ../FreeRTOS_bsp/\libfreertos_bsp.a(ip4_addr.o)
 .debug_info    0x0000000000029811      0x7f3 ../FreeRTOS_bsp/\libfreertos_bsp.a(mem.o)
 .debug_info    0x000000000002a004      0xaad ../FreeRTOS_bsp/\libfreertos_bsp.a(memp.o)
 .debug_info    0x000000000002aab1      0xcb8 ../FreeRTOS_bsp/\libfreertos_bsp.a(netif.o)
 .debug_info    0x000000000002b769     0x180d ../FreeRTOS_bsp/\libfreertos_bsp.a(pbuf.o)
 .debug_info    0x000000000002cf76      0xb4c ../FreeRTOS_bsp/\libfreertos_bsp.a(raw.o)
 .debug_info    0x000000000002dac2      0x332 ../FreeRTOS_bsp/\libfreertos_bsp.a(stats.o)
 .debug_info    0x000000000002ddf4     0x1e20 ../FreeRTOS_bsp/\libfreertos_bsp.a(tcp.o)
 .debug_info    0x000000000002fc14     0x14d5 ../FreeRTOS_bsp/\libfreertos_bsp.a(tcp_in.o)
 .debug_info    0x00000000000310e9     0x1acb ../FreeRTOS_bsp/\libfreertos_bsp.a(tcp_out.o)
 .debug_info    0x0000000000032bb4      0xc11 ../FreeRTOS_bsp/\libfreertos_bsp.a(timeouts.o)
 .debug_info    0x00000000000337c5     0x124e ../FreeRTOS_bsp/\libfreertos_bsp.a(udp.o)
 .debug_info    0x0000000000034a13      0x8b6 ../FreeRTOS_bsp/\libfreertos_bsp.a(ethernet.o)
 .debug_info    0x00000000000352c9      0x79e ../FreeRTOS_bsp/\libfreertos_bsp.a(alt_sys_init.o)
 .debug_info    0x0000000000035a67      0x567 ../FreeRTOS_bsp/\libfreertos_bsp.a(altera_avalon_jtag_uart_fd.o)
 .debug_info    0x0000000000035fce      0x459 ../FreeRTOS_bsp/\libfreertos_bsp.a(altera_avalon_jtag_uart_init.o)
 .debug_info    0x0000000000036427      0x2b9 ../FreeRTOS_bsp/\libfreertos_bsp.a(altera_avalon_jtag_uart_ioctl.o)
 .debug_info    0x00000000000366e0      0x3f4 ../FreeRTOS_bsp/\libfreertos_bsp.a(altera_avalon_jtag_uart_read.o)
 .debug_info    0x0000000000036ad4      0x3ef ../FreeRTOS_bsp/\libfreertos_bsp.a(altera_avalon_jtag_uart_write.o)
 .debug_info    0x0000000000036ec3      0xa82 ../FreeRTOS_bsp/\libfreertos_bsp.a(altera_avalon_sgdma.o)
 .debug_info    0x0000000000037945      0x226 ../FreeRTOS_bsp/\libfreertos_bsp.a(altera_avalon_timer_sc.o)
 .debug_info    0x0000000000037b6b      0x480 ../FreeRTOS_bsp/\libfreertos_bsp.a(altera_avalon_uart_fd.o)
 .debug_info    0x0000000000037feb      0x3ca ../FreeRTOS_bsp/\libfreertos_bsp.a(altera_avalon_uart_init.o)
 .debug_info    0x00000000000383b5      0x3d5 ../FreeRTOS_bsp/\libfreertos_bsp.a(altera_avalon_uart_read.o)
 .debug_info    0x000000000003878a      0x3da ../FreeRTOS_bsp/\libfreertos_bsp.a(altera_avalon_uart_write.o)
 .debug_info    0x0000000000038b64      0x8f7 ../FreeRTOS_bsp/\libfreertos_bsp.a(alt_env_lock.o)
 .debug_info    0x000000000003945b      0x185 ../FreeRTOS_bsp/\libfreertos_bsp.a(heap_1.o)
 .debug_info    0x00000000000395e0      0x2af ../FreeRTOS_bsp/\libfreertos_bsp.a(list.o)
 .debug_info    0x000000000003988f      0x4e5 ../FreeRTOS_bsp/\libfreertos_bsp.a(port.o)
 .debug_info    0x0000000000039d74       0x70 ../FreeRTOS_bsp/\libfreertos_bsp.a(port_asm.o)
 .debug_info    0x0000000000039de4      0x857 ../FreeRTOS_bsp/\libfreertos_bsp.a(tse_ethernet_phys.o)
 .debug_info    0x000000000003a63b      0x2cc ../FreeRTOS_bsp/\libfreertos_bsp.a(alt_alarm_start.o)
 .debug_info    0x000000000003a907      0x321 ../FreeRTOS_bsp/\libfreertos_bsp.a(alt_close.o)
 .debug_info    0x000000000003ac28       0xbc ../FreeRTOS_bsp/\libfreertos_bsp.a(alt_dcache_flush.o)
 .debug_info    0x000000000003ace4       0x92 ../FreeRTOS_bsp/\libfreertos_bsp.a(alt_dcache_flush_all.o)
 .debug_info    0x000000000003ad76      0x1a9 ../FreeRTOS_bsp/\libfreertos_bsp.a(alt_dev_llist_insert.o)
 .debug_info    0x000000000003af1f       0xa6 ../FreeRTOS_bsp/\libfreertos_bsp.a(alt_errno.o)
 .debug_info    0x000000000003afc5      0x2e9 ../FreeRTOS_bsp/\libfreertos_bsp.a(alt_find_dev.o)
 .debug_info    0x000000000003b2ae      0x2e6 ../FreeRTOS_bsp/\libfreertos_bsp.a(alt_find_file.o)
 .debug_info    0x000000000003b594      0x3ae ../FreeRTOS_bsp/\libfreertos_bsp.a(alt_get_fd.o)
 .debug_info    0x000000000003b942       0x92 ../FreeRTOS_bsp/\libfreertos_bsp.a(alt_icache_flush_all.o)
 .debug_info    0x000000000003b9d4      0x350 ../FreeRTOS_bsp/\libfreertos_bsp.a(alt_iic.o)
 .debug_info    0x000000000003bd24      0x1ef ../FreeRTOS_bsp/\libfreertos_bsp.a(alt_iic_isr_register.o)
 .debug_info    0x000000000003bf13      0x187 ../FreeRTOS_bsp/\libfreertos_bsp.a(alt_irq_handler.o)
 .debug_info    0x000000000003c09a       0x88 ../FreeRTOS_bsp/\libfreertos_bsp.a(alt_irq_vars.o)
 .debug_info    0x000000000003c122      0x4b0 ../FreeRTOS_bsp/\libfreertos_bsp.a(alt_read.o)
 .debug_info    0x000000000003c5d2      0x299 ../FreeRTOS_bsp/\libfreertos_bsp.a(alt_tick.o)
 .debug_info    0x000000000003c86b       0xbb ../FreeRTOS_bsp/\libfreertos_bsp.a(alt_uncached_malloc.o)
 .debug_info    0x000000000003c926       0xb0 ../FreeRTOS_bsp/\libfreertos_bsp.a(alt_usleep.o)
 .debug_info    0x000000000003c9d6      0x4b7 ../FreeRTOS_bsp/\libfreertos_bsp.a(alt_write.o)
 .debug_info    0x000000000003ce8d       0x92 ../FreeRTOS_bsp/\libfreertos_bsp.a(altera_nios2_gen2_irq.o)
 .debug_info    0x000000000003cf1f     0x2f89 ../FreeRTOS_bsp/\libfreertos_bsp.a(sockets.o)
 .debug_info    0x000000000003fea8      0xc4b ../FreeRTOS_bsp/\libfreertos_bsp.a(tcpip.o)
 .debug_info    0x0000000000040af3     0x234b ../FreeRTOS_bsp/\libfreertos_bsp.a(altera_avalon_tse.o)
 .debug_info    0x0000000000042e3e      0x362 ../FreeRTOS_bsp/\libfreertos_bsp.a(def.o)
 .debug_info    0x00000000000431a0      0x5f3 ../FreeRTOS_bsp/\libfreertos_bsp.a(inet_chksum.o)
 .debug_info    0x0000000000043793       0xa1 ../FreeRTOS_bsp/\libfreertos_bsp.a(init.o)
 .debug_info    0x0000000000043834      0x542 ../FreeRTOS_bsp/\libfreertos_bsp.a(ip.o)
 .debug_info    0x0000000000043d76      0x879 ../FreeRTOS_bsp/\libfreertos_bsp.a(acd.o)
 .debug_info    0x00000000000445ef      0xa29 ../FreeRTOS_bsp/\libfreertos_bsp.a(icmp.o)
 .debug_info    0x0000000000045018      0xca9 ../FreeRTOS_bsp/\libfreertos_bsp.a(ip4.o)
 .debug_info    0x0000000000045cc1      0xe84 ../FreeRTOS_bsp/\libfreertos_bsp.a(ip4_frag.o)
 .debug_info    0x0000000000046b45       0xd7 ../FreeRTOS_bsp/\libfreertos_bsp.a(alt_busy_sleep.o)
 .debug_info    0x0000000000046c1c       0xdc ../FreeRTOS_bsp/\libfreertos_bsp.a(alt_icache_flush.o)
 .debug_info    0x0000000000046cf8     0x1998 ../FreeRTOS_bsp/\libfreertos_bsp.a(api_lib.o)
 .debug_info    0x0000000000048690     0x1d42 ../FreeRTOS_bsp/\libfreertos_bsp.a(api_msg.o)
 .debug_info    0x000000000004a3d2       0xf0 ../FreeRTOS_bsp/\libfreertos_bsp.a(err.o)
 .debug_info    0x000000000004a4c2      0x4f4 ../FreeRTOS_bsp/\libfreertos_bsp.a(netbuf.o)
 .debug_info    0x000000000004a9b6       0xfe c:/altera/18.1/nios2eds/bin/gnu/h-x86_64-mingw32/bin/../lib/gcc/nios2-elf/5.3.0/../../../../../H-x86_64-mingw32/nios2-elf/lib\libc.a(lib_a-atexit.o)
 .debug_info    0x000000000004aab4      0x924 c:/altera/18.1/nios2eds/bin/gnu/h-x86_64-mingw32/bin/../lib/gcc/nios2-elf/5.3.0/../../../../../H-x86_64-mingw32/nios2-elf/lib\libc.a(lib_a-atoi.o)
 .debug_info    0x000000000004b3d8       0x96 c:/altera/18.1/nios2eds/bin/gnu/h-x86_64-mingw32/bin/../lib/gcc/nios2-elf/5.3.0/../../../../../H-x86_64-mingw32/nios2-elf/lib\libc.a(lib_a-ctype_.o)
 .debug_info    0x000000000004b46e      0x89b c:/altera/18.1/nios2eds/bin/gnu/h-x86_64-mingw32/bin/../lib/gcc/nios2-elf/5.3.0/../../../../../H-x86_64-mingw32/nios2-elf/lib\libc.a(lib_a-errno.o)
 .debug_info    0x000000000004bd09      0x8e4 c:/altera/18.1/nios2eds/bin/gnu/h-x86_64-mingw32/bin/../lib/gcc/nios2-elf/5.3.0/../../../../../H-x86_64-mingw32/nios2-elf/lib\libc.a(lib_a-exit.o)
 .debug_info    0x000000000004c5ed      0x911 c:/altera/18.1/nios2eds/bin/gnu/h-x86_64-mingw32/bin/../lib/gcc/nios2-elf/5.3.0/../../../../../H-x86_64-mingw32/nios2-elf/lib\libc.a(lib_a-malloc.o)
 .debug_info    0x000000000004cefe      0x11a c:/altera/18.1/nios2eds/bin/gnu/h-x86_64-mingw32/bin/../lib/gcc/nios2-elf/5.3.0/../../../../../H-x86_64-mingw32/nios2-elf/lib\libc.a(lib_a-memcmp.o)
 .debug_info    0x000000000004d018      0x9b4 c:/altera/18.1/nios2eds/bin/gnu/h-x86_64-mingw32/bin/../lib/gcc/nios2-elf/5.3.0/../../../../../H-x86_64-mingw32/nios2-elf/lib\libc.a(lib_a-putc.o)
 .debug_info    0x000000000004d9cc      0xa38 c:/altera/18.1/nios2eds/bin/gnu/h-x86_64-mingw32/bin/../lib/gcc/nios2-elf/5.3.0/../../../../../H-x86_64-mingw32/nios2-elf/lib\libc.a(lib_a-puts.o)
 .debug_info    0x000000000004e404      0xa6d c:/altera/18.1/nios2eds/bin/gnu/h-x86_64-mingw32/bin/../lib/gcc/nios2-elf/5.3.0/../../../../../H-x86_64-mingw32/nios2-elf/lib\libc.a(lib_a-snprintf.o)
 .debug_info    0x000000000004ee71      0x117 c:/altera/18.1/nios2eds/bin/gnu/h-x86_64-mingw32/bin/../lib/gcc/nios2-elf/5.3.0/../../../../../H-x86_64-mingw32/nios2-elf/lib\libc.a(lib_a-strcpy.o)
 .debug_info    0x000000000004ef88       0xfc c:/altera/18.1/nios2eds/bin/gnu/h-x86_64-mingw32/bin/../lib/gcc/nios2-elf/5.3.0/../../../../../H-x86_64-mingw32/nios2-elf/lib\libc.a(lib_a-strncmp.o)
 .debug_info    0x000000000004f084      0x9c5 c:/altera/18.1/nios2eds/bin/gnu/h-x86_64-mingw32/bin/../lib/gcc/nios2-elf/5.3.0/../../../../../H-x86_64-mingw32/nios2-elf/lib\libc.a(lib_a-strtol.o)
 .debug_info    0x000000000004fa49     0x14eb c:/altera/18.1/nios2eds/bin/gnu/h-x86_64-mingw32/bin/../lib/gcc/nios2-elf/5.3.0/../../../../../H-x86_64-mingw32/nios2-elf/lib\libc.a(lib_a-svfprintf.o)
 .debug_info    0x0000000000050f34      0x934 c:/altera/18.1/nios2eds/bin/gnu/h-x86_64-mingw32/bin/../lib/gcc/nios2-elf/5.3.0/../../../../../H-x86_64-mingw32/nios2-elf/lib\libc.a(lib_a-__atexit.o)
 .debug_info    0x0000000000051868      0x965 c:/altera/18.1/nios2eds/bin/gnu/h-x86_64-mingw32/bin/../lib/gcc/nios2-elf/5.3.0/../../../../../H-x86_64-mingw32/nios2-elf/lib\libc.a(lib_a-__call_atexit.o)
 .debug_info    0x00000000000521cd      0xf8d c:/altera/18.1/nios2eds/bin/gnu/h-x86_64-mingw32/bin/../lib/gcc/nios2-elf/5.3.0/../../../../../H-x86_64-mingw32/nios2-elf/lib\libc.a(lib_a-svfiprintf.o)
 .debug_info    0x000000000005315a       0xec ../FreeRTOS_bsp/\libfreertos_bsp.a(alt_exit.o)

.debug_abbrev   0x0000000000000000    0x109ac
 *(.debug_abbrev)
 .debug_abbrev  0x0000000000000000       0x12 ../FreeRTOS_bsp//obj/HAL/src/crt0.o
 .debug_abbrev  0x0000000000000012      0x317 obj/default/main.o
 .debug_abbrev  0x0000000000000329      0x233 c:/altera/18.1/nios2eds/bin/gnu/h-x86_64-mingw32/bin/../lib/gcc/nios2-elf/5.3.0/../../../../../H-x86_64-mingw32/nios2-elf/lib\libc.a(lib_a-printf.o)
 .debug_abbrev  0x000000000000055c      0x3bf c:/altera/18.1/nios2eds/bin/gnu/h-x86_64-mingw32/bin/../lib/gcc/nios2-elf/5.3.0/../../../../../H-x86_64-mingw32/nios2-elf/lib\libc.a(lib_a-vfprintf.o)
 .debug_abbrev  0x000000000000091b      0x218 c:/altera/18.1/nios2eds/bin/gnu/h-x86_64-mingw32/bin/../lib/gcc/nios2-elf/5.3.0/../../../../../H-x86_64-mingw32/nios2-elf/lib\libc.a(lib_a-wsetup.o)
 .debug_abbrev  0x0000000000000b33      0x2b8 c:/altera/18.1/nios2eds/bin/gnu/h-x86_64-mingw32/bin/../lib/gcc/nios2-elf/5.3.0/../../../../../H-x86_64-mingw32/nios2-elf/lib\libc.a(lib_a-dtoa.o)
 .debug_abbrev  0x0000000000000deb      0x2a0 c:/altera/18.1/nios2eds/bin/gnu/h-x86_64-mingw32/bin/../lib/gcc/nios2-elf/5.3.0/../../../../../H-x86_64-mingw32/nios2-elf/lib\libc.a(lib_a-fflush.o)
 .debug_abbrev  0x000000000000108b      0x391 c:/altera/18.1/nios2eds/bin/gnu/h-x86_64-mingw32/bin/../lib/gcc/nios2-elf/5.3.0/../../../../../H-x86_64-mingw32/nios2-elf/lib\libc.a(lib_a-findfp.o)
 .debug_abbrev  0x000000000000141c      0x264 c:/altera/18.1/nios2eds/bin/gnu/h-x86_64-mingw32/bin/../lib/gcc/nios2-elf/5.3.0/../../../../../H-x86_64-mingw32/nios2-elf/lib\libc.a(lib_a-freer.o)
 .debug_abbrev  0x0000000000001680      0x1d1 c:/altera/18.1/nios2eds/bin/gnu/h-x86_64-mingw32/bin/../lib/gcc/nios2-elf/5.3.0/../../../../../H-x86_64-mingw32/nios2-elf/lib\libc.a(lib_a-fwalk.o)
 .debug_abbrev  0x0000000000001851      0x18f c:/altera/18.1/nios2eds/bin/gnu/h-x86_64-mingw32/bin/../lib/gcc/nios2-elf/5.3.0/../../../../../H-x86_64-mingw32/nios2-elf/lib\libc.a(lib_a-impure.o)
 .debug_abbrev  0x00000000000019e0      0x2c0 c:/altera/18.1/nios2eds/bin/gnu/h-x86_64-mingw32/bin/../lib/gcc/nios2-elf/5.3.0/../../../../../H-x86_64-mingw32/nios2-elf/lib\libc.a(lib_a-locale.o)
 .debug_abbrev  0x0000000000001ca0      0x20f c:/altera/18.1/nios2eds/bin/gnu/h-x86_64-mingw32/bin/../lib/gcc/nios2-elf/5.3.0/../../../../../H-x86_64-mingw32/nios2-elf/lib\libc.a(lib_a-makebuf.o)
 .debug_abbrev  0x0000000000001eaf      0x29d c:/altera/18.1/nios2eds/bin/gnu/h-x86_64-mingw32/bin/../lib/gcc/nios2-elf/5.3.0/../../../../../H-x86_64-mingw32/nios2-elf/lib\libc.a(lib_a-mallocr.o)
 .debug_abbrev  0x000000000000214c       0xab c:/altera/18.1/nios2eds/bin/gnu/h-x86_64-mingw32/bin/../lib/gcc/nios2-elf/5.3.0/../../../../../H-x86_64-mingw32/nios2-elf/lib\libc.a(lib_a-memchr.o)
 .debug_abbrev  0x00000000000021f7       0xa3 c:/altera/18.1/nios2eds/bin/gnu/h-x86_64-mingw32/bin/../lib/gcc/nios2-elf/5.3.0/../../../../../H-x86_64-mingw32/nios2-elf/lib\libc.a(lib_a-memcpy.o)
 .debug_abbrev  0x000000000000229a       0xae c:/altera/18.1/nios2eds/bin/gnu/h-x86_64-mingw32/bin/../lib/gcc/nios2-elf/5.3.0/../../../../../H-x86_64-mingw32/nios2-elf/lib\libc.a(lib_a-memset.o)
 .debug_abbrev  0x0000000000002348      0x3d7 c:/altera/18.1/nios2eds/bin/gnu/h-x86_64-mingw32/bin/../lib/gcc/nios2-elf/5.3.0/../../../../../H-x86_64-mingw32/nios2-elf/lib\libc.a(lib_a-mprec.o)
 .debug_abbrev  0x000000000000271f       0x7e c:/altera/18.1/nios2eds/bin/gnu/h-x86_64-mingw32/bin/../lib/gcc/nios2-elf/5.3.0/../../../../../H-x86_64-mingw32/nios2-elf/lib\libc.a(lib_a-s_fpclassify.o)
 .debug_abbrev  0x000000000000279d      0x20a c:/altera/18.1/nios2eds/bin/gnu/h-x86_64-mingw32/bin/../lib/gcc/nios2-elf/5.3.0/../../../../../H-x86_64-mingw32/nios2-elf/lib\libc.a(lib_a-sbrkr.o)
 .debug_abbrev  0x00000000000029a7      0x239 c:/altera/18.1/nios2eds/bin/gnu/h-x86_64-mingw32/bin/../lib/gcc/nios2-elf/5.3.0/../../../../../H-x86_64-mingw32/nios2-elf/lib\libc.a(lib_a-stdio.o)
 .debug_abbrev  0x0000000000002be0       0x74 c:/altera/18.1/nios2eds/bin/gnu/h-x86_64-mingw32/bin/../lib/gcc/nios2-elf/5.3.0/../../../../../H-x86_64-mingw32/nios2-elf/lib\libc.a(lib_a-strcmp.o)
 .debug_abbrev  0x0000000000002c54       0x90 c:/altera/18.1/nios2eds/bin/gnu/h-x86_64-mingw32/bin/../lib/gcc/nios2-elf/5.3.0/../../../../../H-x86_64-mingw32/nios2-elf/lib\libc.a(lib_a-strlen.o)
 .debug_abbrev  0x0000000000002ce4      0x3ce c:/altera/18.1/nios2eds/bin/gnu/h-x86_64-mingw32/bin/../lib/gcc/nios2-elf/5.3.0/../../../../../H-x86_64-mingw32/nios2-elf/lib\libc.a(lib_a-vfiprintf.o)
 .debug_abbrev  0x00000000000030b2      0x1eb c:/altera/18.1/nios2eds/bin/gnu/h-x86_64-mingw32/bin/../lib/gcc/nios2-elf/5.3.0/../../../../../H-x86_64-mingw32/nios2-elf/lib\libc.a(lib_a-writer.o)
 .debug_abbrev  0x000000000000329d      0x1e6 c:/altera/18.1/nios2eds/bin/gnu/h-x86_64-mingw32/bin/../lib/gcc/nios2-elf/5.3.0/../../../../../H-x86_64-mingw32/nios2-elf/lib\libc.a(closer.o)
 .debug_abbrev  0x0000000000003483      0x209 c:/altera/18.1/nios2eds/bin/gnu/h-x86_64-mingw32/bin/../lib/gcc/nios2-elf/5.3.0/../../../../../H-x86_64-mingw32/nios2-elf/lib\libc.a(lib_a-callocr.o)
 .debug_abbrev  0x000000000000368c      0x2a2 c:/altera/18.1/nios2eds/bin/gnu/h-x86_64-mingw32/bin/../lib/gcc/nios2-elf/5.3.0/../../../../../H-x86_64-mingw32/nios2-elf/lib\libc.a(lib_a-fclose.o)
 .debug_abbrev  0x000000000000392e      0x2b9 c:/altera/18.1/nios2eds/bin/gnu/h-x86_64-mingw32/bin/../lib/gcc/nios2-elf/5.3.0/../../../../../H-x86_64-mingw32/nios2-elf/lib\libc.a(lib_a-fputwc.o)
 .debug_abbrev  0x0000000000003be7      0x1f5 c:/altera/18.1/nios2eds/bin/gnu/h-x86_64-mingw32/bin/../lib/gcc/nios2-elf/5.3.0/../../../../../H-x86_64-mingw32/nios2-elf/lib\libc.a(lib_a-fstatr.o)
 .debug_abbrev  0x0000000000003ddc      0x228 c:/altera/18.1/nios2eds/bin/gnu/h-x86_64-mingw32/bin/../lib/gcc/nios2-elf/5.3.0/../../../../../H-x86_64-mingw32/nios2-elf/lib\libc.a(lib_a-fvwrite.o)
 .debug_abbrev  0x0000000000004004       0x37 c:/altera/18.1/nios2eds/bin/gnu/h-x86_64-mingw32/bin/../lib/gcc/nios2-elf/5.3.0/../../../../../H-x86_64-mingw32/nios2-elf/lib\libc.a(lib_a-int_errno.o)
 .debug_abbrev  0x000000000000403b      0x1e6 c:/altera/18.1/nios2eds/bin/gnu/h-x86_64-mingw32/bin/../lib/gcc/nios2-elf/5.3.0/../../../../../H-x86_64-mingw32/nios2-elf/lib\libc.a(lib_a-isattyr.o)
 .debug_abbrev  0x0000000000004221      0x1f5 c:/altera/18.1/nios2eds/bin/gnu/h-x86_64-mingw32/bin/../lib/gcc/nios2-elf/5.3.0/../../../../../H-x86_64-mingw32/nios2-elf/lib\libc.a(lib_a-lseekr.o)
 .debug_abbrev  0x0000000000004416       0x9c c:/altera/18.1/nios2eds/bin/gnu/h-x86_64-mingw32/bin/../lib/gcc/nios2-elf/5.3.0/../../../../../H-x86_64-mingw32/nios2-elf/lib\libc.a(lib_a-memmove.o)
 .debug_abbrev  0x00000000000044b2      0x1e6 c:/altera/18.1/nios2eds/bin/gnu/h-x86_64-mingw32/bin/../lib/gcc/nios2-elf/5.3.0/../../../../../H-x86_64-mingw32/nios2-elf/lib\libc.a(lib_a-readr.o)
 .debug_abbrev  0x0000000000004698      0x231 c:/altera/18.1/nios2eds/bin/gnu/h-x86_64-mingw32/bin/../lib/gcc/nios2-elf/5.3.0/../../../../../H-x86_64-mingw32/nios2-elf/lib\libc.a(lib_a-reallocr.o)
 .debug_abbrev  0x00000000000048c9      0x251 c:/altera/18.1/nios2eds/bin/gnu/h-x86_64-mingw32/bin/../lib/gcc/nios2-elf/5.3.0/../../../../../H-x86_64-mingw32/nios2-elf/lib\libc.a(lib_a-wbuf.o)
 .debug_abbrev  0x0000000000004b1a      0x230 c:/altera/18.1/nios2eds/bin/gnu/h-x86_64-mingw32/bin/../lib/gcc/nios2-elf/5.3.0/../../../../../H-x86_64-mingw32/nios2-elf/lib\libc.a(lib_a-wcrtomb.o)
 .debug_abbrev  0x0000000000004d4a      0x21f c:/altera/18.1/nios2eds/bin/gnu/h-x86_64-mingw32/bin/../lib/gcc/nios2-elf/5.3.0/../../../../../H-x86_64-mingw32/nios2-elf/lib\libc.a(lib_a-wctomb_r.o)
 .debug_abbrev  0x0000000000004f69      0x167 c:/altera/18.1/nios2eds/bin/gnu/h-x86_64-mingw32/bin/../lib/gcc/nios2-elf/5.3.0\libgcc.a(_udivdi3.o)
 .debug_abbrev  0x00000000000050d0      0x18a c:/altera/18.1/nios2eds/bin/gnu/h-x86_64-mingw32/bin/../lib/gcc/nios2-elf/5.3.0\libgcc.a(_umoddi3.o)
 .debug_abbrev  0x000000000000525a      0x10e c:/altera/18.1/nios2eds/bin/gnu/h-x86_64-mingw32/bin/../lib/gcc/nios2-elf/5.3.0\libgcc.a(lib2-divmod.o)
 .debug_abbrev  0x0000000000005368      0x13a c:/altera/18.1/nios2eds/bin/gnu/h-x86_64-mingw32/bin/../lib/gcc/nios2-elf/5.3.0\libgcc.a(adddf3.o)
 .debug_abbrev  0x00000000000054a2      0x12d c:/altera/18.1/nios2eds/bin/gnu/h-x86_64-mingw32/bin/../lib/gcc/nios2-elf/5.3.0\libgcc.a(divdf3.o)
 .debug_abbrev  0x00000000000055cf      0x128 c:/altera/18.1/nios2eds/bin/gnu/h-x86_64-mingw32/bin/../lib/gcc/nios2-elf/5.3.0\libgcc.a(eqdf2.o)
 .debug_abbrev  0x00000000000056f7      0x137 c:/altera/18.1/nios2eds/bin/gnu/h-x86_64-mingw32/bin/../lib/gcc/nios2-elf/5.3.0\libgcc.a(gedf2.o)
 .debug_abbrev  0x000000000000582e      0x137 c:/altera/18.1/nios2eds/bin/gnu/h-x86_64-mingw32/bin/../lib/gcc/nios2-elf/5.3.0\libgcc.a(ledf2.o)
 .debug_abbrev  0x0000000000005965      0x13f c:/altera/18.1/nios2eds/bin/gnu/h-x86_64-mingw32/bin/../lib/gcc/nios2-elf/5.3.0\libgcc.a(muldf3.o)
 .debug_abbrev  0x0000000000005aa4      0x133 c:/altera/18.1/nios2eds/bin/gnu/h-x86_64-mingw32/bin/../lib/gcc/nios2-elf/5.3.0\libgcc.a(subdf3.o)
 .debug_abbrev  0x0000000000005bd7      0x135 c:/altera/18.1/nios2eds/bin/gnu/h-x86_64-mingw32/bin/../lib/gcc/nios2-elf/5.3.0\libgcc.a(fixdfsi.o)
 .debug_abbrev  0x0000000000005d0c      0x124 c:/altera/18.1/nios2eds/bin/gnu/h-x86_64-mingw32/bin/../lib/gcc/nios2-elf/5.3.0\libgcc.a(floatsidf.o)
 .debug_abbrev  0x0000000000005e30      0x124 c:/altera/18.1/nios2eds/bin/gnu/h-x86_64-mingw32/bin/../lib/gcc/nios2-elf/5.3.0\libgcc.a(floatunsidf.o)
 .debug_abbrev  0x0000000000005f54       0x5d c:/altera/18.1/nios2eds/bin/gnu/h-x86_64-mingw32/bin/../lib/gcc/nios2-elf/5.3.0\libgcc.a(_clz.o)
 .debug_abbrev  0x0000000000005fb1       0xbe c:/altera/18.1/nios2eds/bin/gnu/h-x86_64-mingw32/bin/../lib/gcc/nios2-elf/5.3.0\libgcc.a(_clzsi2.o)
 .debug_abbrev  0x000000000000606f      0x10d ../FreeRTOS_bsp/\libfreertos_bsp.a(alt_main.o)
 .debug_abbrev  0x000000000000617c      0x1b6 ../FreeRTOS_bsp/\libfreertos_bsp.a(alt_malloc_lock.o)
 .debug_abbrev  0x0000000000006332      0x1d7 ../FreeRTOS_bsp/\libfreertos_bsp.a(queue.o)
 .debug_abbrev  0x0000000000006509      0x235 ../FreeRTOS_bsp/\libfreertos_bsp.a(tasks.o)
 .debug_abbrev  0x000000000000673e      0x1e6 ../FreeRTOS_bsp/\libfreertos_bsp.a(timers.o)
 .debug_abbrev  0x0000000000006924       0xe2 ../FreeRTOS_bsp/\libfreertos_bsp.a(alt_dev.o)
 .debug_abbrev  0x0000000000006a06       0x79 ../FreeRTOS_bsp/\libfreertos_bsp.a(alt_do_ctors.o)
 .debug_abbrev  0x0000000000006a7f       0x79 ../FreeRTOS_bsp/\libfreertos_bsp.a(alt_do_dtors.o)
 .debug_abbrev  0x0000000000006af8      0x11f ../FreeRTOS_bsp/\libfreertos_bsp.a(alt_fstat.o)
 .debug_abbrev  0x0000000000006c17      0x114 ../FreeRTOS_bsp/\libfreertos_bsp.a(alt_io_redirect.o)
 .debug_abbrev  0x0000000000006d2b      0x11f ../FreeRTOS_bsp/\libfreertos_bsp.a(alt_isatty.o)
 .debug_abbrev  0x0000000000006e4a       0x9f ../FreeRTOS_bsp/\libfreertos_bsp.a(alt_load.o)
 .debug_abbrev  0x0000000000006ee9      0x11f ../FreeRTOS_bsp/\libfreertos_bsp.a(alt_lseek.o)
 .debug_abbrev  0x0000000000007008      0x148 ../FreeRTOS_bsp/\libfreertos_bsp.a(alt_open.o)
 .debug_abbrev  0x0000000000007150       0xb0 ../FreeRTOS_bsp/\libfreertos_bsp.a(alt_printf.o)
 .debug_abbrev  0x0000000000007200      0x1af ../FreeRTOS_bsp/\libfreertos_bsp.a(alt_putchar.o)
 .debug_abbrev  0x00000000000073af       0xde ../FreeRTOS_bsp/\libfreertos_bsp.a(alt_release_fd.o)
 .debug_abbrev  0x000000000000748d      0x112 ../FreeRTOS_bsp/\libfreertos_bsp.a(alt_sbrk.o)
 .debug_abbrev  0x000000000000759f       0x53 ../FreeRTOS_bsp/\libfreertos_bsp.a(alt_lwip_close.o)
 .debug_abbrev  0x00000000000075f2       0x67 ../FreeRTOS_bsp/\libfreertos_bsp.a(alt_lwip_read.o)
 .debug_abbrev  0x0000000000007659       0x6e ../FreeRTOS_bsp/\libfreertos_bsp.a(alt_lwip_write.o)
 .debug_abbrev  0x00000000000076c7      0x251 ../FreeRTOS_bsp/\libfreertos_bsp.a(altera_tse_ethernetif.o)
 .debug_abbrev  0x0000000000007918      0x301 ../FreeRTOS_bsp/\libfreertos_bsp.a(lwip_main.o)
 .debug_abbrev  0x0000000000007c19      0x27d ../FreeRTOS_bsp/\libfreertos_bsp.a(lwip_tse_mac.o)
 .debug_abbrev  0x0000000000007e96      0x233 ../FreeRTOS_bsp/\libfreertos_bsp.a(sys_arch.o)
 .debug_abbrev  0x00000000000080c9      0x2be ../FreeRTOS_bsp/\libfreertos_bsp.a(dhcp.o)
 .debug_abbrev  0x0000000000008387      0x296 ../FreeRTOS_bsp/\libfreertos_bsp.a(etharp.o)
 .debug_abbrev  0x000000000000861d      0x202 ../FreeRTOS_bsp/\libfreertos_bsp.a(ip4_addr.o)
 .debug_abbrev  0x000000000000881f      0x1fe ../FreeRTOS_bsp/\libfreertos_bsp.a(mem.o)
 .debug_abbrev  0x0000000000008a1d      0x21c ../FreeRTOS_bsp/\libfreertos_bsp.a(memp.o)
 .debug_abbrev  0x0000000000008c39      0x2bb ../FreeRTOS_bsp/\libfreertos_bsp.a(netif.o)
 .debug_abbrev  0x0000000000008ef4      0x2a2 ../FreeRTOS_bsp/\libfreertos_bsp.a(pbuf.o)
 .debug_abbrev  0x0000000000009196      0x290 ../FreeRTOS_bsp/\libfreertos_bsp.a(raw.o)
 .debug_abbrev  0x0000000000009426       0xfc ../FreeRTOS_bsp/\libfreertos_bsp.a(stats.o)
 .debug_abbrev  0x0000000000009522      0x36d ../FreeRTOS_bsp/\libfreertos_bsp.a(tcp.o)
 .debug_abbrev  0x000000000000988f      0x2b1 ../FreeRTOS_bsp/\libfreertos_bsp.a(tcp_in.o)
 .debug_abbrev  0x0000000000009b40      0x2ae ../FreeRTOS_bsp/\libfreertos_bsp.a(tcp_out.o)
 .debug_abbrev  0x0000000000009dee      0x213 ../FreeRTOS_bsp/\libfreertos_bsp.a(timeouts.o)
 .debug_abbrev  0x000000000000a001      0x2d0 ../FreeRTOS_bsp/\libfreertos_bsp.a(udp.o)
 .debug_abbrev  0x000000000000a2d1      0x221 ../FreeRTOS_bsp/\libfreertos_bsp.a(ethernet.o)
 .debug_abbrev  0x000000000000a4f2      0x199 ../FreeRTOS_bsp/\libfreertos_bsp.a(alt_sys_init.o)
 .debug_abbrev  0x000000000000a68b      0x127 ../FreeRTOS_bsp/\libfreertos_bsp.a(altera_avalon_jtag_uart_fd.o)
 .debug_abbrev  0x000000000000a7b2      0x1ee ../FreeRTOS_bsp/\libfreertos_bsp.a(altera_avalon_jtag_uart_init.o)
 .debug_abbrev  0x000000000000a9a0      0x11a ../FreeRTOS_bsp/\libfreertos_bsp.a(altera_avalon_jtag_uart_ioctl.o)
 .debug_abbrev  0x000000000000aaba      0x1af ../FreeRTOS_bsp/\libfreertos_bsp.a(altera_avalon_jtag_uart_read.o)
 .debug_abbrev  0x000000000000ac69      0x1ad ../FreeRTOS_bsp/\libfreertos_bsp.a(altera_avalon_jtag_uart_write.o)
 .debug_abbrev  0x000000000000ae16      0x279 ../FreeRTOS_bsp/\libfreertos_bsp.a(altera_avalon_sgdma.o)
 .debug_abbrev  0x000000000000b08f      0x155 ../FreeRTOS_bsp/\libfreertos_bsp.a(altera_avalon_timer_sc.o)
 .debug_abbrev  0x000000000000b1e4      0x109 ../FreeRTOS_bsp/\libfreertos_bsp.a(altera_avalon_uart_fd.o)
 .debug_abbrev  0x000000000000b2ed      0x1d7 ../FreeRTOS_bsp/\libfreertos_bsp.a(altera_avalon_uart_init.o)
 .debug_abbrev  0x000000000000b4c4      0x199 ../FreeRTOS_bsp/\libfreertos_bsp.a(altera_avalon_uart_read.o)
 .debug_abbrev  0x000000000000b65d      0x1a0 ../FreeRTOS_bsp/\libfreertos_bsp.a(altera_avalon_uart_write.o)
 .debug_abbrev  0x000000000000b7fd      0x1b6 ../FreeRTOS_bsp/\libfreertos_bsp.a(alt_env_lock.o)
 .debug_abbrev  0x000000000000b9b3       0xee ../FreeRTOS_bsp/\libfreertos_bsp.a(heap_1.o)
 .debug_abbrev  0x000000000000baa1       0xc5 ../FreeRTOS_bsp/\libfreertos_bsp.a(list.o)
 .debug_abbrev  0x000000000000bb66      0x236 ../FreeRTOS_bsp/\libfreertos_bsp.a(port.o)
 .debug_abbrev  0x000000000000bd9c       0x12 ../FreeRTOS_bsp/\libfreertos_bsp.a(port_asm.o)
 .debug_abbrev  0x000000000000bdae       0xff ../FreeRTOS_bsp/\libfreertos_bsp.a(tse_ethernet_phys.o)
 .debug_abbrev  0x000000000000bead      0x162 ../FreeRTOS_bsp/\libfreertos_bsp.a(alt_alarm_start.o)
 .debug_abbrev  0x000000000000c00f      0x11f ../FreeRTOS_bsp/\libfreertos_bsp.a(alt_close.o)
 .debug_abbrev  0x000000000000c12e       0x74 ../FreeRTOS_bsp/\libfreertos_bsp.a(alt_dcache_flush.o)
 .debug_abbrev  0x000000000000c1a2       0x42 ../FreeRTOS_bsp/\libfreertos_bsp.a(alt_dcache_flush_all.o)
 .debug_abbrev  0x000000000000c1e4      0x114 ../FreeRTOS_bsp/\libfreertos_bsp.a(alt_dev_llist_insert.o)
 .debug_abbrev  0x000000000000c2f8       0x5a ../FreeRTOS_bsp/\libfreertos_bsp.a(alt_errno.o)
 .debug_abbrev  0x000000000000c352       0xf0 ../FreeRTOS_bsp/\libfreertos_bsp.a(alt_find_dev.o)
 .debug_abbrev  0x000000000000c442       0xf0 ../FreeRTOS_bsp/\libfreertos_bsp.a(alt_find_file.o)
 .debug_abbrev  0x000000000000c532      0x141 ../FreeRTOS_bsp/\libfreertos_bsp.a(alt_get_fd.o)
 .debug_abbrev  0x000000000000c673       0x42 ../FreeRTOS_bsp/\libfreertos_bsp.a(alt_icache_flush_all.o)
 .debug_abbrev  0x000000000000c6b5      0x163 ../FreeRTOS_bsp/\libfreertos_bsp.a(alt_iic.o)
 .debug_abbrev  0x000000000000c818      0x169 ../FreeRTOS_bsp/\libfreertos_bsp.a(alt_iic_isr_register.o)
 .debug_abbrev  0x000000000000c981      0x122 ../FreeRTOS_bsp/\libfreertos_bsp.a(alt_irq_handler.o)
 .debug_abbrev  0x000000000000caa3       0x40 ../FreeRTOS_bsp/\libfreertos_bsp.a(alt_irq_vars.o)
 .debug_abbrev  0x000000000000cae3      0x12e ../FreeRTOS_bsp/\libfreertos_bsp.a(alt_read.o)
 .debug_abbrev  0x000000000000cc11      0x15a ../FreeRTOS_bsp/\libfreertos_bsp.a(alt_tick.o)
 .debug_abbrev  0x000000000000cd6b       0x70 ../FreeRTOS_bsp/\libfreertos_bsp.a(alt_uncached_malloc.o)
 .debug_abbrev  0x000000000000cddb       0x60 ../FreeRTOS_bsp/\libfreertos_bsp.a(alt_usleep.o)
 .debug_abbrev  0x000000000000ce3b      0x133 ../FreeRTOS_bsp/\libfreertos_bsp.a(alt_write.o)
 .debug_abbrev  0x000000000000cf6e       0x42 ../FreeRTOS_bsp/\libfreertos_bsp.a(altera_nios2_gen2_irq.o)
 .debug_abbrev  0x000000000000cfb0      0x273 ../FreeRTOS_bsp/\libfreertos_bsp.a(sockets.o)
 .debug_abbrev  0x000000000000d223      0x252 ../FreeRTOS_bsp/\libfreertos_bsp.a(tcpip.o)
 .debug_abbrev  0x000000000000d475      0x27b ../FreeRTOS_bsp/\libfreertos_bsp.a(altera_avalon_tse.o)
 .debug_abbrev  0x000000000000d6f0       0xdc ../FreeRTOS_bsp/\libfreertos_bsp.a(def.o)
 .debug_abbrev  0x000000000000d7cc      0x162 ../FreeRTOS_bsp/\libfreertos_bsp.a(inet_chksum.o)
 .debug_abbrev  0x000000000000d92e       0x51 ../FreeRTOS_bsp/\libfreertos_bsp.a(init.o)
 .debug_abbrev  0x000000000000d97f      0x121 ../FreeRTOS_bsp/\libfreertos_bsp.a(ip.o)
 .debug_abbrev  0x000000000000daa0      0x21f ../FreeRTOS_bsp/\libfreertos_bsp.a(acd.o)
 .debug_abbrev  0x000000000000dcbf      0x249 ../FreeRTOS_bsp/\libfreertos_bsp.a(icmp.o)
 .debug_abbrev  0x000000000000df08      0x22a ../FreeRTOS_bsp/\libfreertos_bsp.a(ip4.o)
 .debug_abbrev  0x000000000000e132      0x297 ../FreeRTOS_bsp/\libfreertos_bsp.a(ip4_frag.o)
 .debug_abbrev  0x000000000000e3c9       0x7e ../FreeRTOS_bsp/\libfreertos_bsp.a(alt_busy_sleep.o)
 .debug_abbrev  0x000000000000e447       0x8c ../FreeRTOS_bsp/\libfreertos_bsp.a(alt_icache_flush.o)
 .debug_abbrev  0x000000000000e4d3      0x251 ../FreeRTOS_bsp/\libfreertos_bsp.a(api_lib.o)
 .debug_abbrev  0x000000000000e724      0x2fa ../FreeRTOS_bsp/\libfreertos_bsp.a(api_msg.o)
 .debug_abbrev  0x000000000000ea1e       0x8a ../FreeRTOS_bsp/\libfreertos_bsp.a(err.o)
 .debug_abbrev  0x000000000000eaa8      0x147 ../FreeRTOS_bsp/\libfreertos_bsp.a(netbuf.o)
 .debug_abbrev  0x000000000000ebef       0xaa c:/altera/18.1/nios2eds/bin/gnu/h-x86_64-mingw32/bin/../lib/gcc/nios2-elf/5.3.0/../../../../../H-x86_64-mingw32/nios2-elf/lib\libc.a(lib_a-atexit.o)
 .debug_abbrev  0x000000000000ec99      0x1c9 c:/altera/18.1/nios2eds/bin/gnu/h-x86_64-mingw32/bin/../lib/gcc/nios2-elf/5.3.0/../../../../../H-x86_64-mingw32/nios2-elf/lib\libc.a(lib_a-atoi.o)
 .debug_abbrev  0x000000000000ee62       0x5d c:/altera/18.1/nios2eds/bin/gnu/h-x86_64-mingw32/bin/../lib/gcc/nios2-elf/5.3.0/../../../../../H-x86_64-mingw32/nios2-elf/lib\libc.a(lib_a-ctype_.o)
 .debug_abbrev  0x000000000000eebf      0x19e c:/altera/18.1/nios2eds/bin/gnu/h-x86_64-mingw32/bin/../lib/gcc/nios2-elf/5.3.0/../../../../../H-x86_64-mingw32/nios2-elf/lib\libc.a(lib_a-errno.o)
 .debug_abbrev  0x000000000000f05d      0x1e5 c:/altera/18.1/nios2eds/bin/gnu/h-x86_64-mingw32/bin/../lib/gcc/nios2-elf/5.3.0/../../../../../H-x86_64-mingw32/nios2-elf/lib\libc.a(lib_a-exit.o)
 .debug_abbrev  0x000000000000f242      0x1f4 c:/altera/18.1/nios2eds/bin/gnu/h-x86_64-mingw32/bin/../lib/gcc/nios2-elf/5.3.0/../../../../../H-x86_64-mingw32/nios2-elf/lib\libc.a(lib_a-malloc.o)
 .debug_abbrev  0x000000000000f436       0x7f c:/altera/18.1/nios2eds/bin/gnu/h-x86_64-mingw32/bin/../lib/gcc/nios2-elf/5.3.0/../../../../../H-x86_64-mingw32/nios2-elf/lib\libc.a(lib_a-memcmp.o)
 .debug_abbrev  0x000000000000f4b5      0x243 c:/altera/18.1/nios2eds/bin/gnu/h-x86_64-mingw32/bin/../lib/gcc/nios2-elf/5.3.0/../../../../../H-x86_64-mingw32/nios2-elf/lib\libc.a(lib_a-putc.o)
 .debug_abbrev  0x000000000000f6f8      0x249 c:/altera/18.1/nios2eds/bin/gnu/h-x86_64-mingw32/bin/../lib/gcc/nios2-elf/5.3.0/../../../../../H-x86_64-mingw32/nios2-elf/lib\libc.a(lib_a-puts.o)
 .debug_abbrev  0x000000000000f941      0x239 c:/altera/18.1/nios2eds/bin/gnu/h-x86_64-mingw32/bin/../lib/gcc/nios2-elf/5.3.0/../../../../../H-x86_64-mingw32/nios2-elf/lib\libc.a(lib_a-snprintf.o)
 .debug_abbrev  0x000000000000fb7a       0x83 c:/altera/18.1/nios2eds/bin/gnu/h-x86_64-mingw32/bin/../lib/gcc/nios2-elf/5.3.0/../../../../../H-x86_64-mingw32/nios2-elf/lib\libc.a(lib_a-strcpy.o)
 .debug_abbrev  0x000000000000fbfd       0x81 c:/altera/18.1/nios2eds/bin/gnu/h-x86_64-mingw32/bin/../lib/gcc/nios2-elf/5.3.0/../../../../../H-x86_64-mingw32/nios2-elf/lib\libc.a(lib_a-strncmp.o)
 .debug_abbrev  0x000000000000fc7e      0x22a c:/altera/18.1/nios2eds/bin/gnu/h-x86_64-mingw32/bin/../lib/gcc/nios2-elf/5.3.0/../../../../../H-x86_64-mingw32/nios2-elf/lib\libc.a(lib_a-strtol.o)
 .debug_abbrev  0x000000000000fea8      0x361 c:/altera/18.1/nios2eds/bin/gnu/h-x86_64-mingw32/bin/../lib/gcc/nios2-elf/5.3.0/../../../../../H-x86_64-mingw32/nios2-elf/lib\libc.a(lib_a-svfprintf.o)
 .debug_abbrev  0x0000000000010209      0x21e c:/altera/18.1/nios2eds/bin/gnu/h-x86_64-mingw32/bin/../lib/gcc/nios2-elf/5.3.0/../../../../../H-x86_64-mingw32/nios2-elf/lib\libc.a(lib_a-__atexit.o)
 .debug_abbrev  0x0000000000010427      0x22e c:/altera/18.1/nios2eds/bin/gnu/h-x86_64-mingw32/bin/../lib/gcc/nios2-elf/5.3.0/../../../../../H-x86_64-mingw32/nios2-elf/lib\libc.a(lib_a-__call_atexit.o)
 .debug_abbrev  0x0000000000010655      0x2ae c:/altera/18.1/nios2eds/bin/gnu/h-x86_64-mingw32/bin/../lib/gcc/nios2-elf/5.3.0/../../../../../H-x86_64-mingw32/nios2-elf/lib\libc.a(lib_a-svfiprintf.o)
 .debug_abbrev  0x0000000000010903       0xa9 ../FreeRTOS_bsp/\libfreertos_bsp.a(alt_exit.o)

.debug_line     0x0000000000000000    0x1ae3b
 *(.debug_line)
 .debug_line    0x0000000000000000       0x6c ../FreeRTOS_bsp//obj/HAL/src/crt0.o
 .debug_line    0x000000000000006c      0x36f obj/default/main.o
 .debug_line    0x00000000000003db      0x208 c:/altera/18.1/nios2eds/bin/gnu/h-x86_64-mingw32/bin/../lib/gcc/nios2-elf/5.3.0/../../../../../H-x86_64-mingw32/nios2-elf/lib\libc.a(lib_a-printf.o)
 .debug_line    0x00000000000005e3      0xc98 c:/altera/18.1/nios2eds/bin/gnu/h-x86_64-mingw32/bin/../lib/gcc/nios2-elf/5.3.0/../../../../../H-x86_64-mingw32/nios2-elf/lib\libc.a(lib_a-vfprintf.o)
 .debug_line    0x000000000000127b      0x263 c:/altera/18.1/nios2eds/bin/gnu/h-x86_64-mingw32/bin/../lib/gcc/nios2-elf/5.3.0/../../../../../H-x86_64-mingw32/nios2-elf/lib\libc.a(lib_a-wsetup.o)
 .debug_line    0x00000000000014de      0x7ca c:/altera/18.1/nios2eds/bin/gnu/h-x86_64-mingw32/bin/../lib/gcc/nios2-elf/5.3.0/../../../../../H-x86_64-mingw32/nios2-elf/lib\libc.a(lib_a-dtoa.o)
 .debug_line    0x0000000000001ca8      0x2e7 c:/altera/18.1/nios2eds/bin/gnu/h-x86_64-mingw32/bin/../lib/gcc/nios2-elf/5.3.0/../../../../../H-x86_64-mingw32/nios2-elf/lib\libc.a(lib_a-fflush.o)
 .debug_line    0x0000000000001f8f      0x36f c:/altera/18.1/nios2eds/bin/gnu/h-x86_64-mingw32/bin/../lib/gcc/nios2-elf/5.3.0/../../../../../H-x86_64-mingw32/nios2-elf/lib\libc.a(lib_a-findfp.o)
 .debug_line    0x00000000000022fe      0x2f4 c:/altera/18.1/nios2eds/bin/gnu/h-x86_64-mingw32/bin/../lib/gcc/nios2-elf/5.3.0/../../../../../H-x86_64-mingw32/nios2-elf/lib\libc.a(lib_a-freer.o)
 .debug_line    0x00000000000025f2      0x237 c:/altera/18.1/nios2eds/bin/gnu/h-x86_64-mingw32/bin/../lib/gcc/nios2-elf/5.3.0/../../../../../H-x86_64-mingw32/nios2-elf/lib\libc.a(lib_a-fwalk.o)
 .debug_line    0x0000000000002829      0x15d c:/altera/18.1/nios2eds/bin/gnu/h-x86_64-mingw32/bin/../lib/gcc/nios2-elf/5.3.0/../../../../../H-x86_64-mingw32/nios2-elf/lib\libc.a(lib_a-impure.o)
 .debug_line    0x0000000000002986      0x28b c:/altera/18.1/nios2eds/bin/gnu/h-x86_64-mingw32/bin/../lib/gcc/nios2-elf/5.3.0/../../../../../H-x86_64-mingw32/nios2-elf/lib\libc.a(lib_a-locale.o)
 .debug_line    0x0000000000002c11      0x271 c:/altera/18.1/nios2eds/bin/gnu/h-x86_64-mingw32/bin/../lib/gcc/nios2-elf/5.3.0/../../../../../H-x86_64-mingw32/nios2-elf/lib\libc.a(lib_a-makebuf.o)
 .debug_line    0x0000000000002e82      0x3f9 c:/altera/18.1/nios2eds/bin/gnu/h-x86_64-mingw32/bin/../lib/gcc/nios2-elf/5.3.0/../../../../../H-x86_64-mingw32/nios2-elf/lib\libc.a(lib_a-mallocr.o)
 .debug_line    0x000000000000327b      0x18a c:/altera/18.1/nios2eds/bin/gnu/h-x86_64-mingw32/bin/../lib/gcc/nios2-elf/5.3.0/../../../../../H-x86_64-mingw32/nios2-elf/lib\libc.a(lib_a-memchr.o)
 .debug_line    0x0000000000003405      0x189 c:/altera/18.1/nios2eds/bin/gnu/h-x86_64-mingw32/bin/../lib/gcc/nios2-elf/5.3.0/../../../../../H-x86_64-mingw32/nios2-elf/lib\libc.a(lib_a-memcpy.o)
 .debug_line    0x000000000000358e      0x18c c:/altera/18.1/nios2eds/bin/gnu/h-x86_64-mingw32/bin/../lib/gcc/nios2-elf/5.3.0/../../../../../H-x86_64-mingw32/nios2-elf/lib\libc.a(lib_a-memset.o)
 .debug_line    0x000000000000371a      0x787 c:/altera/18.1/nios2eds/bin/gnu/h-x86_64-mingw32/bin/../lib/gcc/nios2-elf/5.3.0/../../../../../H-x86_64-mingw32/nios2-elf/lib\libc.a(lib_a-mprec.o)
 .debug_line    0x0000000000003ea1      0x16c c:/altera/18.1/nios2eds/bin/gnu/h-x86_64-mingw32/bin/../lib/gcc/nios2-elf/5.3.0/../../../../../H-x86_64-mingw32/nios2-elf/lib\libc.a(lib_a-s_fpclassify.o)
 .debug_line    0x000000000000400d      0x1e6 c:/altera/18.1/nios2eds/bin/gnu/h-x86_64-mingw32/bin/../lib/gcc/nios2-elf/5.3.0/../../../../../H-x86_64-mingw32/nios2-elf/lib\libc.a(lib_a-sbrkr.o)
 .debug_line    0x00000000000041f3      0x267 c:/altera/18.1/nios2eds/bin/gnu/h-x86_64-mingw32/bin/../lib/gcc/nios2-elf/5.3.0/../../../../../H-x86_64-mingw32/nios2-elf/lib\libc.a(lib_a-stdio.o)
 .debug_line    0x000000000000445a       0xfe c:/altera/18.1/nios2eds/bin/gnu/h-x86_64-mingw32/bin/../lib/gcc/nios2-elf/5.3.0/../../../../../H-x86_64-mingw32/nios2-elf/lib\libc.a(lib_a-strcmp.o)
 .debug_line    0x0000000000004558      0x16c c:/altera/18.1/nios2eds/bin/gnu/h-x86_64-mingw32/bin/../lib/gcc/nios2-elf/5.3.0/../../../../../H-x86_64-mingw32/nios2-elf/lib\libc.a(lib_a-strlen.o)
 .debug_line    0x00000000000046c4      0x956 c:/altera/18.1/nios2eds/bin/gnu/h-x86_64-mingw32/bin/../lib/gcc/nios2-elf/5.3.0/../../../../../H-x86_64-mingw32/nios2-elf/lib\libc.a(lib_a-vfiprintf.o)
 .debug_line    0x000000000000501a      0x1f3 c:/altera/18.1/nios2eds/bin/gnu/h-x86_64-mingw32/bin/../lib/gcc/nios2-elf/5.3.0/../../../../../H-x86_64-mingw32/nios2-elf/lib\libc.a(lib_a-writer.o)
 .debug_line    0x000000000000520d      0x1f3 c:/altera/18.1/nios2eds/bin/gnu/h-x86_64-mingw32/bin/../lib/gcc/nios2-elf/5.3.0/../../../../../H-x86_64-mingw32/nios2-elf/lib\libc.a(closer.o)
 .debug_line    0x0000000000005400      0x1a8 c:/altera/18.1/nios2eds/bin/gnu/h-x86_64-mingw32/bin/../lib/gcc/nios2-elf/5.3.0/../../../../../H-x86_64-mingw32/nios2-elf/lib\libc.a(lib_a-callocr.o)
 .debug_line    0x00000000000055a8      0x236 c:/altera/18.1/nios2eds/bin/gnu/h-x86_64-mingw32/bin/../lib/gcc/nios2-elf/5.3.0/../../../../../H-x86_64-mingw32/nios2-elf/lib\libc.a(lib_a-fclose.o)
 .debug_line    0x00000000000057de      0x2a2 c:/altera/18.1/nios2eds/bin/gnu/h-x86_64-mingw32/bin/../lib/gcc/nios2-elf/5.3.0/../../../../../H-x86_64-mingw32/nios2-elf/lib\libc.a(lib_a-fputwc.o)
 .debug_line    0x0000000000005a80      0x1fc c:/altera/18.1/nios2eds/bin/gnu/h-x86_64-mingw32/bin/../lib/gcc/nios2-elf/5.3.0/../../../../../H-x86_64-mingw32/nios2-elf/lib\libc.a(lib_a-fstatr.o)
 .debug_line    0x0000000000005c7c      0x342 c:/altera/18.1/nios2eds/bin/gnu/h-x86_64-mingw32/bin/../lib/gcc/nios2-elf/5.3.0/../../../../../H-x86_64-mingw32/nios2-elf/lib\libc.a(lib_a-fvwrite.o)
 .debug_line    0x0000000000005fbe       0x5c c:/altera/18.1/nios2eds/bin/gnu/h-x86_64-mingw32/bin/../lib/gcc/nios2-elf/5.3.0/../../../../../H-x86_64-mingw32/nios2-elf/lib\libc.a(lib_a-int_errno.o)
 .debug_line    0x000000000000601a      0x1f4 c:/altera/18.1/nios2eds/bin/gnu/h-x86_64-mingw32/bin/../lib/gcc/nios2-elf/5.3.0/../../../../../H-x86_64-mingw32/nios2-elf/lib\libc.a(lib_a-isattyr.o)
 .debug_line    0x000000000000620e      0x1f3 c:/altera/18.1/nios2eds/bin/gnu/h-x86_64-mingw32/bin/../lib/gcc/nios2-elf/5.3.0/../../../../../H-x86_64-mingw32/nios2-elf/lib\libc.a(lib_a-lseekr.o)
 .debug_line    0x0000000000006401      0x18a c:/altera/18.1/nios2eds/bin/gnu/h-x86_64-mingw32/bin/../lib/gcc/nios2-elf/5.3.0/../../../../../H-x86_64-mingw32/nios2-elf/lib\libc.a(lib_a-memmove.o)
 .debug_line    0x000000000000658b      0x1f2 c:/altera/18.1/nios2eds/bin/gnu/h-x86_64-mingw32/bin/../lib/gcc/nios2-elf/5.3.0/../../../../../H-x86_64-mingw32/nios2-elf/lib\libc.a(lib_a-readr.o)
 .debug_line    0x000000000000677d      0x2f2 c:/altera/18.1/nios2eds/bin/gnu/h-x86_64-mingw32/bin/../lib/gcc/nios2-elf/5.3.0/../../../../../H-x86_64-mingw32/nios2-elf/lib\libc.a(lib_a-reallocr.o)
 .debug_line    0x0000000000006a6f      0x26e c:/altera/18.1/nios2eds/bin/gnu/h-x86_64-mingw32/bin/../lib/gcc/nios2-elf/5.3.0/../../../../../H-x86_64-mingw32/nios2-elf/lib\libc.a(lib_a-wbuf.o)
 .debug_line    0x0000000000006cdd      0x223 c:/altera/18.1/nios2eds/bin/gnu/h-x86_64-mingw32/bin/../lib/gcc/nios2-elf/5.3.0/../../../../../H-x86_64-mingw32/nios2-elf/lib\libc.a(lib_a-wcrtomb.o)
 .debug_line    0x0000000000006f00      0x217 c:/altera/18.1/nios2eds/bin/gnu/h-x86_64-mingw32/bin/../lib/gcc/nios2-elf/5.3.0/../../../../../H-x86_64-mingw32/nios2-elf/lib\libc.a(lib_a-wctomb_r.o)
 .debug_line    0x0000000000007117      0x12a c:/altera/18.1/nios2eds/bin/gnu/h-x86_64-mingw32/bin/../lib/gcc/nios2-elf/5.3.0\libgcc.a(_udivdi3.o)
 .debug_line    0x0000000000007241      0x13a c:/altera/18.1/nios2eds/bin/gnu/h-x86_64-mingw32/bin/../lib/gcc/nios2-elf/5.3.0\libgcc.a(_umoddi3.o)
 .debug_line    0x000000000000737b      0x102 c:/altera/18.1/nios2eds/bin/gnu/h-x86_64-mingw32/bin/../lib/gcc/nios2-elf/5.3.0\libgcc.a(lib2-divmod.o)
 .debug_line    0x000000000000747d      0x37b c:/altera/18.1/nios2eds/bin/gnu/h-x86_64-mingw32/bin/../lib/gcc/nios2-elf/5.3.0\libgcc.a(adddf3.o)
 .debug_line    0x00000000000077f8      0x2ad c:/altera/18.1/nios2eds/bin/gnu/h-x86_64-mingw32/bin/../lib/gcc/nios2-elf/5.3.0\libgcc.a(divdf3.o)
 .debug_line    0x0000000000007aa5       0xaa c:/altera/18.1/nios2eds/bin/gnu/h-x86_64-mingw32/bin/../lib/gcc/nios2-elf/5.3.0\libgcc.a(eqdf2.o)
 .debug_line    0x0000000000007b4f       0xcb c:/altera/18.1/nios2eds/bin/gnu/h-x86_64-mingw32/bin/../lib/gcc/nios2-elf/5.3.0\libgcc.a(gedf2.o)
 .debug_line    0x0000000000007c1a       0xe3 c:/altera/18.1/nios2eds/bin/gnu/h-x86_64-mingw32/bin/../lib/gcc/nios2-elf/5.3.0\libgcc.a(ledf2.o)
 .debug_line    0x0000000000007cfd      0x1e3 c:/altera/18.1/nios2eds/bin/gnu/h-x86_64-mingw32/bin/../lib/gcc/nios2-elf/5.3.0\libgcc.a(muldf3.o)
 .debug_line    0x0000000000007ee0      0x3a8 c:/altera/18.1/nios2eds/bin/gnu/h-x86_64-mingw32/bin/../lib/gcc/nios2-elf/5.3.0\libgcc.a(subdf3.o)
 .debug_line    0x0000000000008288       0x98 c:/altera/18.1/nios2eds/bin/gnu/h-x86_64-mingw32/bin/../lib/gcc/nios2-elf/5.3.0\libgcc.a(fixdfsi.o)
 .debug_line    0x0000000000008320       0x9f c:/altera/18.1/nios2eds/bin/gnu/h-x86_64-mingw32/bin/../lib/gcc/nios2-elf/5.3.0\libgcc.a(floatsidf.o)
 .debug_line    0x00000000000083bf       0x92 c:/altera/18.1/nios2eds/bin/gnu/h-x86_64-mingw32/bin/../lib/gcc/nios2-elf/5.3.0\libgcc.a(floatunsidf.o)
 .debug_line    0x0000000000008451       0x53 c:/altera/18.1/nios2eds/bin/gnu/h-x86_64-mingw32/bin/../lib/gcc/nios2-elf/5.3.0\libgcc.a(_clz.o)
 .debug_line    0x00000000000084a4       0xb7 c:/altera/18.1/nios2eds/bin/gnu/h-x86_64-mingw32/bin/../lib/gcc/nios2-elf/5.3.0\libgcc.a(_clzsi2.o)
 .debug_line    0x000000000000855b      0x1e4 ../FreeRTOS_bsp/\libfreertos_bsp.a(alt_main.o)
 .debug_line    0x000000000000873f      0x15e ../FreeRTOS_bsp/\libfreertos_bsp.a(alt_malloc_lock.o)
 .debug_line    0x000000000000889d      0x5e5 ../FreeRTOS_bsp/\libfreertos_bsp.a(queue.o)
 .debug_line    0x0000000000008e82      0xa03 ../FreeRTOS_bsp/\libfreertos_bsp.a(tasks.o)
 .debug_line    0x0000000000009885      0x325 ../FreeRTOS_bsp/\libfreertos_bsp.a(timers.o)
 .debug_line    0x0000000000009baa      0x116 ../FreeRTOS_bsp/\libfreertos_bsp.a(alt_dev.o)
 .debug_line    0x0000000000009cc0       0x59 ../FreeRTOS_bsp/\libfreertos_bsp.a(alt_do_ctors.o)
 .debug_line    0x0000000000009d19       0x59 ../FreeRTOS_bsp/\libfreertos_bsp.a(alt_do_dtors.o)
 .debug_line    0x0000000000009d72      0x156 ../FreeRTOS_bsp/\libfreertos_bsp.a(alt_fstat.o)
 .debug_line    0x0000000000009ec8      0x12b ../FreeRTOS_bsp/\libfreertos_bsp.a(alt_io_redirect.o)
 .debug_line    0x0000000000009ff3      0x15a ../FreeRTOS_bsp/\libfreertos_bsp.a(alt_isatty.o)
 .debug_line    0x000000000000a14d       0x8e ../FreeRTOS_bsp/\libfreertos_bsp.a(alt_load.o)
 .debug_line    0x000000000000a1db      0x15b ../FreeRTOS_bsp/\libfreertos_bsp.a(alt_lseek.o)
 .debug_line    0x000000000000a336      0x128 ../FreeRTOS_bsp/\libfreertos_bsp.a(alt_open.o)
 .debug_line    0x000000000000a45e       0xe7 ../FreeRTOS_bsp/\libfreertos_bsp.a(alt_printf.o)
 .debug_line    0x000000000000a545      0x110 ../FreeRTOS_bsp/\libfreertos_bsp.a(alt_putchar.o)
 .debug_line    0x000000000000a655       0xae ../FreeRTOS_bsp/\libfreertos_bsp.a(alt_release_fd.o)
 .debug_line    0x000000000000a703       0xeb ../FreeRTOS_bsp/\libfreertos_bsp.a(alt_sbrk.o)
 .debug_line    0x000000000000a7ee       0xa6 ../FreeRTOS_bsp/\libfreertos_bsp.a(alt_lwip_close.o)
 .debug_line    0x000000000000a894      0x104 ../FreeRTOS_bsp/\libfreertos_bsp.a(alt_lwip_read.o)
 .debug_line    0x000000000000a998      0x105 ../FreeRTOS_bsp/\libfreertos_bsp.a(alt_lwip_write.o)
 .debug_line    0x000000000000aa9d      0x326 ../FreeRTOS_bsp/\libfreertos_bsp.a(altera_tse_ethernetif.o)
 .debug_line    0x000000000000adc3      0x425 ../FreeRTOS_bsp/\libfreertos_bsp.a(lwip_main.o)
 .debug_line    0x000000000000b1e8      0x44e ../FreeRTOS_bsp/\libfreertos_bsp.a(lwip_tse_mac.o)
 .debug_line    0x000000000000b636      0x2db ../FreeRTOS_bsp/\libfreertos_bsp.a(sys_arch.o)
 .debug_line    0x000000000000b911      0x921 ../FreeRTOS_bsp/\libfreertos_bsp.a(dhcp.o)
 .debug_line    0x000000000000c232      0x57f ../FreeRTOS_bsp/\libfreertos_bsp.a(etharp.o)
 .debug_line    0x000000000000c7b1      0x2a9 ../FreeRTOS_bsp/\libfreertos_bsp.a(ip4_addr.o)
 .debug_line    0x000000000000ca5a      0x328 ../FreeRTOS_bsp/\libfreertos_bsp.a(mem.o)
 .debug_line    0x000000000000cd82      0x22b ../FreeRTOS_bsp/\libfreertos_bsp.a(memp.o)
 .debug_line    0x000000000000cfad      0x3ef ../FreeRTOS_bsp/\libfreertos_bsp.a(netif.o)
 .debug_line    0x000000000000d39c      0x66f ../FreeRTOS_bsp/\libfreertos_bsp.a(pbuf.o)
 .debug_line    0x000000000000da0b      0x356 ../FreeRTOS_bsp/\libfreertos_bsp.a(raw.o)
 .debug_line    0x000000000000dd61      0x122 ../FreeRTOS_bsp/\libfreertos_bsp.a(stats.o)
 .debug_line    0x000000000000de83      0x9e6 ../FreeRTOS_bsp/\libfreertos_bsp.a(tcp.o)
 .debug_line    0x000000000000e869      0xab1 ../FreeRTOS_bsp/\libfreertos_bsp.a(tcp_in.o)
 .debug_line    0x000000000000f31a      0x873 ../FreeRTOS_bsp/\libfreertos_bsp.a(tcp_out.o)
 .debug_line    0x000000000000fb8d      0x30a ../FreeRTOS_bsp/\libfreertos_bsp.a(timeouts.o)
 .debug_line    0x000000000000fe97      0x54f ../FreeRTOS_bsp/\libfreertos_bsp.a(udp.o)
 .debug_line    0x00000000000103e6      0x1fc ../FreeRTOS_bsp/\libfreertos_bsp.a(ethernet.o)
 .debug_line    0x00000000000105e2      0x1ee ../FreeRTOS_bsp/\libfreertos_bsp.a(alt_sys_init.o)
 .debug_line    0x00000000000107d0      0x155 ../FreeRTOS_bsp/\libfreertos_bsp.a(altera_avalon_jtag_uart_fd.o)
 .debug_line    0x0000000000010925      0x1f5 ../FreeRTOS_bsp/\libfreertos_bsp.a(altera_avalon_jtag_uart_init.o)
 .debug_line    0x0000000000010b1a      0x157 ../FreeRTOS_bsp/\libfreertos_bsp.a(altera_avalon_jtag_uart_ioctl.o)
 .debug_line    0x0000000000010c71      0x278 ../FreeRTOS_bsp/\libfreertos_bsp.a(altera_avalon_jtag_uart_read.o)
 .debug_line    0x0000000000010ee9      0x275 ../FreeRTOS_bsp/\libfreertos_bsp.a(altera_avalon_jtag_uart_write.o)
 .debug_line    0x000000000001115e      0x2ba ../FreeRTOS_bsp/\libfreertos_bsp.a(altera_avalon_sgdma.o)
 .debug_line    0x0000000000011418       0xfd ../FreeRTOS_bsp/\libfreertos_bsp.a(altera_avalon_timer_sc.o)
 .debug_line    0x0000000000011515      0x114 ../FreeRTOS_bsp/\libfreertos_bsp.a(altera_avalon_uart_fd.o)
 .debug_line    0x0000000000011629      0x1f7 ../FreeRTOS_bsp/\libfreertos_bsp.a(altera_avalon_uart_init.o)
 .debug_line    0x0000000000011820      0x297 ../FreeRTOS_bsp/\libfreertos_bsp.a(altera_avalon_uart_read.o)
 .debug_line    0x0000000000011ab7      0x281 ../FreeRTOS_bsp/\libfreertos_bsp.a(altera_avalon_uart_write.o)
 .debug_line    0x0000000000011d38      0x15b ../FreeRTOS_bsp/\libfreertos_bsp.a(alt_env_lock.o)
 .debug_line    0x0000000000011e93      0x178 ../FreeRTOS_bsp/\libfreertos_bsp.a(heap_1.o)
 .debug_line    0x000000000001200b      0x15f ../FreeRTOS_bsp/\libfreertos_bsp.a(list.o)
 .debug_line    0x000000000001216a      0x275 ../FreeRTOS_bsp/\libfreertos_bsp.a(port.o)
 .debug_line    0x00000000000123df       0xd7 ../FreeRTOS_bsp/\libfreertos_bsp.a(port_asm.o)
 .debug_line    0x00000000000124b6       0xc6 ../FreeRTOS_bsp/\libfreertos_bsp.a(tse_ethernet_phys.o)
 .debug_line    0x000000000001257c       0xf9 ../FreeRTOS_bsp/\libfreertos_bsp.a(alt_alarm_start.o)
 .debug_line    0x0000000000012675      0x10a ../FreeRTOS_bsp/\libfreertos_bsp.a(alt_close.o)
 .debug_line    0x000000000001277f       0x67 ../FreeRTOS_bsp/\libfreertos_bsp.a(alt_dcache_flush.o)
 .debug_line    0x00000000000127e6       0x51 ../FreeRTOS_bsp/\libfreertos_bsp.a(alt_dcache_flush_all.o)
 .debug_line    0x0000000000012837       0xcf ../FreeRTOS_bsp/\libfreertos_bsp.a(alt_dev_llist_insert.o)
 .debug_line    0x0000000000012906       0x51 ../FreeRTOS_bsp/\libfreertos_bsp.a(alt_errno.o)
 .debug_line    0x0000000000012957       0xb5 ../FreeRTOS_bsp/\libfreertos_bsp.a(alt_find_dev.o)
 .debug_line    0x0000000000012a0c       0xd1 ../FreeRTOS_bsp/\libfreertos_bsp.a(alt_find_file.o)
 .debug_line    0x0000000000012add      0x1da ../FreeRTOS_bsp/\libfreertos_bsp.a(alt_get_fd.o)
 .debug_line    0x0000000000012cb7       0x50 ../FreeRTOS_bsp/\libfreertos_bsp.a(alt_icache_flush_all.o)
 .debug_line    0x0000000000012d07       0xeb ../FreeRTOS_bsp/\libfreertos_bsp.a(alt_iic.o)
 .debug_line    0x0000000000012df2       0xdb ../FreeRTOS_bsp/\libfreertos_bsp.a(alt_iic_isr_register.o)
 .debug_line    0x0000000000012ecd       0xa6 ../FreeRTOS_bsp/\libfreertos_bsp.a(alt_irq_handler.o)
 .debug_line    0x0000000000012f73       0x50 ../FreeRTOS_bsp/\libfreertos_bsp.a(alt_irq_vars.o)
 .debug_line    0x0000000000012fc3      0x1c0 ../FreeRTOS_bsp/\libfreertos_bsp.a(alt_read.o)
 .debug_line    0x0000000000013183       0xff ../FreeRTOS_bsp/\libfreertos_bsp.a(alt_tick.o)
 .debug_line    0x0000000000013282       0xaf ../FreeRTOS_bsp/\libfreertos_bsp.a(alt_uncached_malloc.o)
 .debug_line    0x0000000000013331       0xa5 ../FreeRTOS_bsp/\libfreertos_bsp.a(alt_usleep.o)
 .debug_line    0x00000000000133d6      0x1bf ../FreeRTOS_bsp/\libfreertos_bsp.a(alt_write.o)
 .debug_line    0x0000000000013595       0x51 ../FreeRTOS_bsp/\libfreertos_bsp.a(altera_nios2_gen2_irq.o)
 .debug_line    0x00000000000135e6     0x1082 ../FreeRTOS_bsp/\libfreertos_bsp.a(sockets.o)
 .debug_line    0x0000000000014668      0x2c6 ../FreeRTOS_bsp/\libfreertos_bsp.a(tcpip.o)
 .debug_line    0x000000000001492e      0xedd ../FreeRTOS_bsp/\libfreertos_bsp.a(altera_avalon_tse.o)
 .debug_line    0x000000000001580b      0x21a ../FreeRTOS_bsp/\libfreertos_bsp.a(def.o)
 .debug_line    0x0000000000015a25      0x24d ../FreeRTOS_bsp/\libfreertos_bsp.a(inet_chksum.o)
 .debug_line    0x0000000000015c72       0x55 ../FreeRTOS_bsp/\libfreertos_bsp.a(init.o)
 .debug_line    0x0000000000015cc7      0x15a ../FreeRTOS_bsp/\libfreertos_bsp.a(ip.o)
 .debug_line    0x0000000000015e21      0x2e6 ../FreeRTOS_bsp/\libfreertos_bsp.a(acd.o)
 .debug_line    0x0000000000016107      0x25f ../FreeRTOS_bsp/\libfreertos_bsp.a(icmp.o)
 .debug_line    0x0000000000016366      0x3a3 ../FreeRTOS_bsp/\libfreertos_bsp.a(ip4.o)
 .debug_line    0x0000000000016709      0x420 ../FreeRTOS_bsp/\libfreertos_bsp.a(ip4_frag.o)
 .debug_line    0x0000000000016b29       0xa0 ../FreeRTOS_bsp/\libfreertos_bsp.a(alt_busy_sleep.o)
 .debug_line    0x0000000000016bc9       0x81 ../FreeRTOS_bsp/\libfreertos_bsp.a(alt_icache_flush.o)
 .debug_line    0x0000000000016c4a      0x601 ../FreeRTOS_bsp/\libfreertos_bsp.a(api_lib.o)
 .debug_line    0x000000000001724b      0x8be ../FreeRTOS_bsp/\libfreertos_bsp.a(api_msg.o)
 .debug_line    0x0000000000017b09      0x117 ../FreeRTOS_bsp/\libfreertos_bsp.a(err.o)
 .debug_line    0x0000000000017c20      0x1e8 ../FreeRTOS_bsp/\libfreertos_bsp.a(netbuf.o)
 .debug_line    0x0000000000017e08       0xe4 c:/altera/18.1/nios2eds/bin/gnu/h-x86_64-mingw32/bin/../lib/gcc/nios2-elf/5.3.0/../../../../../H-x86_64-mingw32/nios2-elf/lib\libc.a(lib_a-atexit.o)
 .debug_line    0x0000000000017eec      0x1ee c:/altera/18.1/nios2eds/bin/gnu/h-x86_64-mingw32/bin/../lib/gcc/nios2-elf/5.3.0/../../../../../H-x86_64-mingw32/nios2-elf/lib\libc.a(lib_a-atoi.o)
 .debug_line    0x00000000000180da       0xc4 c:/altera/18.1/nios2eds/bin/gnu/h-x86_64-mingw32/bin/../lib/gcc/nios2-elf/5.3.0/../../../../../H-x86_64-mingw32/nios2-elf/lib\libc.a(lib_a-ctype_.o)
 .debug_line    0x000000000001819e      0x178 c:/altera/18.1/nios2eds/bin/gnu/h-x86_64-mingw32/bin/../lib/gcc/nios2-elf/5.3.0/../../../../../H-x86_64-mingw32/nios2-elf/lib\libc.a(lib_a-errno.o)
 .debug_line    0x0000000000018316      0x1f9 c:/altera/18.1/nios2eds/bin/gnu/h-x86_64-mingw32/bin/../lib/gcc/nios2-elf/5.3.0/../../../../../H-x86_64-mingw32/nios2-elf/lib\libc.a(lib_a-exit.o)
 .debug_line    0x000000000001850f      0x1f0 c:/altera/18.1/nios2eds/bin/gnu/h-x86_64-mingw32/bin/../lib/gcc/nios2-elf/5.3.0/../../../../../H-x86_64-mingw32/nios2-elf/lib\libc.a(lib_a-malloc.o)
 .debug_line    0x00000000000186ff      0x173 c:/altera/18.1/nios2eds/bin/gnu/h-x86_64-mingw32/bin/../lib/gcc/nios2-elf/5.3.0/../../../../../H-x86_64-mingw32/nios2-elf/lib\libc.a(lib_a-memcmp.o)
 .debug_line    0x0000000000018872      0x272 c:/altera/18.1/nios2eds/bin/gnu/h-x86_64-mingw32/bin/../lib/gcc/nios2-elf/5.3.0/../../../../../H-x86_64-mingw32/nios2-elf/lib\libc.a(lib_a-putc.o)
 .debug_line    0x0000000000018ae4      0x245 c:/altera/18.1/nios2eds/bin/gnu/h-x86_64-mingw32/bin/../lib/gcc/nios2-elf/5.3.0/../../../../../H-x86_64-mingw32/nios2-elf/lib\libc.a(lib_a-puts.o)
 .debug_line    0x0000000000018d29      0x29f c:/altera/18.1/nios2eds/bin/gnu/h-x86_64-mingw32/bin/../lib/gcc/nios2-elf/5.3.0/../../../../../H-x86_64-mingw32/nios2-elf/lib\libc.a(lib_a-snprintf.o)
 .debug_line    0x0000000000018fc8       0xf1 c:/altera/18.1/nios2eds/bin/gnu/h-x86_64-mingw32/bin/../lib/gcc/nios2-elf/5.3.0/../../../../../H-x86_64-mingw32/nios2-elf/lib\libc.a(lib_a-strcpy.o)
 .debug_line    0x00000000000190b9      0x19a c:/altera/18.1/nios2eds/bin/gnu/h-x86_64-mingw32/bin/../lib/gcc/nios2-elf/5.3.0/../../../../../H-x86_64-mingw32/nios2-elf/lib\libc.a(lib_a-strncmp.o)
 .debug_line    0x0000000000019253      0x284 c:/altera/18.1/nios2eds/bin/gnu/h-x86_64-mingw32/bin/../lib/gcc/nios2-elf/5.3.0/../../../../../H-x86_64-mingw32/nios2-elf/lib\libc.a(lib_a-strtol.o)
 .debug_line    0x00000000000194d7      0xc11 c:/altera/18.1/nios2eds/bin/gnu/h-x86_64-mingw32/bin/../lib/gcc/nios2-elf/5.3.0/../../../../../H-x86_64-mingw32/nios2-elf/lib\libc.a(lib_a-svfprintf.o)
 .debug_line    0x000000000001a0e8      0x21c c:/altera/18.1/nios2eds/bin/gnu/h-x86_64-mingw32/bin/../lib/gcc/nios2-elf/5.3.0/../../../../../H-x86_64-mingw32/nios2-elf/lib\libc.a(lib_a-__atexit.o)
 .debug_line    0x000000000001a304      0x237 c:/altera/18.1/nios2eds/bin/gnu/h-x86_64-mingw32/bin/../lib/gcc/nios2-elf/5.3.0/../../../../../H-x86_64-mingw32/nios2-elf/lib\libc.a(lib_a-__call_atexit.o)
 .debug_line    0x000000000001a53b      0x891 c:/altera/18.1/nios2eds/bin/gnu/h-x86_64-mingw32/bin/../lib/gcc/nios2-elf/5.3.0/../../../../../H-x86_64-mingw32/nios2-elf/lib\libc.a(lib_a-svfiprintf.o)
 .debug_line    0x000000000001adcc       0x6f ../FreeRTOS_bsp/\libfreertos_bsp.a(alt_exit.o)

.debug_frame    0x0000000000000000     0x9b8c
 *(.debug_frame)
 .debug_frame   0x0000000000000000      0x1f8 obj/default/main.o
 .debug_frame   0x00000000000001f8       0x48 c:/altera/18.1/nios2eds/bin/gnu/h-x86_64-mingw32/bin/../lib/gcc/nios2-elf/5.3.0/../../../../../H-x86_64-mingw32/nios2-elf/lib\libc.a(lib_a-printf.o)
 .debug_frame   0x0000000000000240       0x98 c:/altera/18.1/nios2eds/bin/gnu/h-x86_64-mingw32/bin/../lib/gcc/nios2-elf/5.3.0/../../../../../H-x86_64-mingw32/nios2-elf/lib\libc.a(lib_a-vfprintf.o)
 .debug_frame   0x00000000000002d8       0x38 c:/altera/18.1/nios2eds/bin/gnu/h-x86_64-mingw32/bin/../lib/gcc/nios2-elf/5.3.0/../../../../../H-x86_64-mingw32/nios2-elf/lib\libc.a(lib_a-wsetup.o)
 .debug_frame   0x0000000000000310       0x98 c:/altera/18.1/nios2eds/bin/gnu/h-x86_64-mingw32/bin/../lib/gcc/nios2-elf/5.3.0/../../../../../H-x86_64-mingw32/nios2-elf/lib\libc.a(lib_a-dtoa.o)
 .debug_frame   0x00000000000003a8       0x7c c:/altera/18.1/nios2eds/bin/gnu/h-x86_64-mingw32/bin/../lib/gcc/nios2-elf/5.3.0/../../../../../H-x86_64-mingw32/nios2-elf/lib\libc.a(lib_a-fflush.o)
 .debug_frame   0x0000000000000424      0x160 c:/altera/18.1/nios2eds/bin/gnu/h-x86_64-mingw32/bin/../lib/gcc/nios2-elf/5.3.0/../../../../../H-x86_64-mingw32/nios2-elf/lib\libc.a(lib_a-findfp.o)
 .debug_frame   0x0000000000000584       0x70 c:/altera/18.1/nios2eds/bin/gnu/h-x86_64-mingw32/bin/../lib/gcc/nios2-elf/5.3.0/../../../../../H-x86_64-mingw32/nios2-elf/lib\libc.a(lib_a-freer.o)
 .debug_frame   0x00000000000005f4       0x90 c:/altera/18.1/nios2eds/bin/gnu/h-x86_64-mingw32/bin/../lib/gcc/nios2-elf/5.3.0/../../../../../H-x86_64-mingw32/nios2-elf/lib\libc.a(lib_a-fwalk.o)
 .debug_frame   0x0000000000000684       0xa8 c:/altera/18.1/nios2eds/bin/gnu/h-x86_64-mingw32/bin/../lib/gcc/nios2-elf/5.3.0/../../../../../H-x86_64-mingw32/nios2-elf/lib\libc.a(lib_a-locale.o)
 .debug_frame   0x000000000000072c       0x4c c:/altera/18.1/nios2eds/bin/gnu/h-x86_64-mingw32/bin/../lib/gcc/nios2-elf/5.3.0/../../../../../H-x86_64-mingw32/nios2-elf/lib\libc.a(lib_a-makebuf.o)
 .debug_frame   0x0000000000000778       0x54 c:/altera/18.1/nios2eds/bin/gnu/h-x86_64-mingw32/bin/../lib/gcc/nios2-elf/5.3.0/../../../../../H-x86_64-mingw32/nios2-elf/lib\libc.a(lib_a-mallocr.o)
 .debug_frame   0x00000000000007cc       0x20 c:/altera/18.1/nios2eds/bin/gnu/h-x86_64-mingw32/bin/../lib/gcc/nios2-elf/5.3.0/../../../../../H-x86_64-mingw32/nios2-elf/lib\libc.a(lib_a-memchr.o)
 .debug_frame   0x00000000000007ec       0x38 c:/altera/18.1/nios2eds/bin/gnu/h-x86_64-mingw32/bin/../lib/gcc/nios2-elf/5.3.0/../../../../../H-x86_64-mingw32/nios2-elf/lib\libc.a(lib_a-memcpy.o)
 .debug_frame   0x0000000000000824       0x20 c:/altera/18.1/nios2eds/bin/gnu/h-x86_64-mingw32/bin/../lib/gcc/nios2-elf/5.3.0/../../../../../H-x86_64-mingw32/nios2-elf/lib\libc.a(lib_a-memset.o)
 .debug_frame   0x0000000000000844      0x2e0 c:/altera/18.1/nios2eds/bin/gnu/h-x86_64-mingw32/bin/../lib/gcc/nios2-elf/5.3.0/../../../../../H-x86_64-mingw32/nios2-elf/lib\libc.a(lib_a-mprec.o)
 .debug_frame   0x0000000000000b24       0x20 c:/altera/18.1/nios2eds/bin/gnu/h-x86_64-mingw32/bin/../lib/gcc/nios2-elf/5.3.0/../../../../../H-x86_64-mingw32/nios2-elf/lib\libc.a(lib_a-s_fpclassify.o)
 .debug_frame   0x0000000000000b44       0x38 c:/altera/18.1/nios2eds/bin/gnu/h-x86_64-mingw32/bin/../lib/gcc/nios2-elf/5.3.0/../../../../../H-x86_64-mingw32/nios2-elf/lib\libc.a(lib_a-sbrkr.o)
 .debug_frame   0x0000000000000b7c       0xb4 c:/altera/18.1/nios2eds/bin/gnu/h-x86_64-mingw32/bin/../lib/gcc/nios2-elf/5.3.0/../../../../../H-x86_64-mingw32/nios2-elf/lib\libc.a(lib_a-stdio.o)
 .debug_frame   0x0000000000000c30       0x20 c:/altera/18.1/nios2eds/bin/gnu/h-x86_64-mingw32/bin/../lib/gcc/nios2-elf/5.3.0/../../../../../H-x86_64-mingw32/nios2-elf/lib\libc.a(lib_a-strcmp.o)
 .debug_frame   0x0000000000000c50       0x20 c:/altera/18.1/nios2eds/bin/gnu/h-x86_64-mingw32/bin/../lib/gcc/nios2-elf/5.3.0/../../../../../H-x86_64-mingw32/nios2-elf/lib\libc.a(lib_a-strlen.o)
 .debug_frame   0x0000000000000c70       0xec c:/altera/18.1/nios2eds/bin/gnu/h-x86_64-mingw32/bin/../lib/gcc/nios2-elf/5.3.0/../../../../../H-x86_64-mingw32/nios2-elf/lib\libc.a(lib_a-vfiprintf.o)
 .debug_frame   0x0000000000000d5c       0x38 c:/altera/18.1/nios2eds/bin/gnu/h-x86_64-mingw32/bin/../lib/gcc/nios2-elf/5.3.0/../../../../../H-x86_64-mingw32/nios2-elf/lib\libc.a(lib_a-writer.o)
 .debug_frame   0x0000000000000d94       0x38 c:/altera/18.1/nios2eds/bin/gnu/h-x86_64-mingw32/bin/../lib/gcc/nios2-elf/5.3.0/../../../../../H-x86_64-mingw32/nios2-elf/lib\libc.a(closer.o)
 .debug_frame   0x0000000000000dcc       0x40 c:/altera/18.1/nios2eds/bin/gnu/h-x86_64-mingw32/bin/../lib/gcc/nios2-elf/5.3.0/../../../../../H-x86_64-mingw32/nios2-elf/lib\libc.a(lib_a-callocr.o)
 .debug_frame   0x0000000000000e0c       0x54 c:/altera/18.1/nios2eds/bin/gnu/h-x86_64-mingw32/bin/../lib/gcc/nios2-elf/5.3.0/../../../../../H-x86_64-mingw32/nios2-elf/lib\libc.a(lib_a-fclose.o)
 .debug_frame   0x0000000000000e60       0x80 c:/altera/18.1/nios2eds/bin/gnu/h-x86_64-mingw32/bin/../lib/gcc/nios2-elf/5.3.0/../../../../../H-x86_64-mingw32/nios2-elf/lib\libc.a(lib_a-fputwc.o)
 .debug_frame   0x0000000000000ee0       0x38 c:/altera/18.1/nios2eds/bin/gnu/h-x86_64-mingw32/bin/../lib/gcc/nios2-elf/5.3.0/../../../../../H-x86_64-mingw32/nios2-elf/lib\libc.a(lib_a-fstatr.o)
 .debug_frame   0x0000000000000f18       0x78 c:/altera/18.1/nios2eds/bin/gnu/h-x86_64-mingw32/bin/../lib/gcc/nios2-elf/5.3.0/../../../../../H-x86_64-mingw32/nios2-elf/lib\libc.a(lib_a-fvwrite.o)
 .debug_frame   0x0000000000000f90       0x38 c:/altera/18.1/nios2eds/bin/gnu/h-x86_64-mingw32/bin/../lib/gcc/nios2-elf/5.3.0/../../../../../H-x86_64-mingw32/nios2-elf/lib\libc.a(lib_a-isattyr.o)
 .debug_frame   0x0000000000000fc8       0x38 c:/altera/18.1/nios2eds/bin/gnu/h-x86_64-mingw32/bin/../lib/gcc/nios2-elf/5.3.0/../../../../../H-x86_64-mingw32/nios2-elf/lib\libc.a(lib_a-lseekr.o)
 .debug_frame   0x0000000000001000       0x20 c:/altera/18.1/nios2eds/bin/gnu/h-x86_64-mingw32/bin/../lib/gcc/nios2-elf/5.3.0/../../../../../H-x86_64-mingw32/nios2-elf/lib\libc.a(lib_a-memmove.o)
 .debug_frame   0x0000000000001020       0x38 c:/altera/18.1/nios2eds/bin/gnu/h-x86_64-mingw32/bin/../lib/gcc/nios2-elf/5.3.0/../../../../../H-x86_64-mingw32/nios2-elf/lib\libc.a(lib_a-readr.o)
 .debug_frame   0x0000000000001058       0x70 c:/altera/18.1/nios2eds/bin/gnu/h-x86_64-mingw32/bin/../lib/gcc/nios2-elf/5.3.0/../../../../../H-x86_64-mingw32/nios2-elf/lib\libc.a(lib_a-reallocr.o)
 .debug_frame   0x00000000000010c8       0x50 c:/altera/18.1/nios2eds/bin/gnu/h-x86_64-mingw32/bin/../lib/gcc/nios2-elf/5.3.0/../../../../../H-x86_64-mingw32/nios2-elf/lib\libc.a(lib_a-wbuf.o)
 .debug_frame   0x0000000000001118       0x70 c:/altera/18.1/nios2eds/bin/gnu/h-x86_64-mingw32/bin/../lib/gcc/nios2-elf/5.3.0/../../../../../H-x86_64-mingw32/nios2-elf/lib\libc.a(lib_a-wcrtomb.o)
 .debug_frame   0x0000000000001188       0x44 c:/altera/18.1/nios2eds/bin/gnu/h-x86_64-mingw32/bin/../lib/gcc/nios2-elf/5.3.0/../../../../../H-x86_64-mingw32/nios2-elf/lib\libc.a(lib_a-wctomb_r.o)
 .debug_frame   0x00000000000011cc       0x54 c:/altera/18.1/nios2eds/bin/gnu/h-x86_64-mingw32/bin/../lib/gcc/nios2-elf/5.3.0\libgcc.a(_udivdi3.o)
 .debug_frame   0x0000000000001220       0x54 c:/altera/18.1/nios2eds/bin/gnu/h-x86_64-mingw32/bin/../lib/gcc/nios2-elf/5.3.0\libgcc.a(_umoddi3.o)
 .debug_frame   0x0000000000001274       0x50 c:/altera/18.1/nios2eds/bin/gnu/h-x86_64-mingw32/bin/../lib/gcc/nios2-elf/5.3.0\libgcc.a(lib2-divmod.o)
 .debug_frame   0x00000000000012c4       0x40 c:/altera/18.1/nios2eds/bin/gnu/h-x86_64-mingw32/bin/../lib/gcc/nios2-elf/5.3.0\libgcc.a(adddf3.o)
 .debug_frame   0x0000000000001304       0x58 c:/altera/18.1/nios2eds/bin/gnu/h-x86_64-mingw32/bin/../lib/gcc/nios2-elf/5.3.0\libgcc.a(divdf3.o)
 .debug_frame   0x000000000000135c       0x20 c:/altera/18.1/nios2eds/bin/gnu/h-x86_64-mingw32/bin/../lib/gcc/nios2-elf/5.3.0\libgcc.a(eqdf2.o)
 .debug_frame   0x000000000000137c       0x20 c:/altera/18.1/nios2eds/bin/gnu/h-x86_64-mingw32/bin/../lib/gcc/nios2-elf/5.3.0\libgcc.a(gedf2.o)
 .debug_frame   0x000000000000139c       0x20 c:/altera/18.1/nios2eds/bin/gnu/h-x86_64-mingw32/bin/../lib/gcc/nios2-elf/5.3.0\libgcc.a(ledf2.o)
 .debug_frame   0x00000000000013bc       0x58 c:/altera/18.1/nios2eds/bin/gnu/h-x86_64-mingw32/bin/../lib/gcc/nios2-elf/5.3.0\libgcc.a(muldf3.o)
 .debug_frame   0x0000000000001414       0x44 c:/altera/18.1/nios2eds/bin/gnu/h-x86_64-mingw32/bin/../lib/gcc/nios2-elf/5.3.0\libgcc.a(subdf3.o)
 .debug_frame   0x0000000000001458       0x20 c:/altera/18.1/nios2eds/bin/gnu/h-x86_64-mingw32/bin/../lib/gcc/nios2-elf/5.3.0\libgcc.a(fixdfsi.o)
 .debug_frame   0x0000000000001478       0x38 c:/altera/18.1/nios2eds/bin/gnu/h-x86_64-mingw32/bin/../lib/gcc/nios2-elf/5.3.0\libgcc.a(floatsidf.o)
 .debug_frame   0x00000000000014b0       0x34 c:/altera/18.1/nios2eds/bin/gnu/h-x86_64-mingw32/bin/../lib/gcc/nios2-elf/5.3.0\libgcc.a(floatunsidf.o)
 .debug_frame   0x00000000000014e4       0x20 c:/altera/18.1/nios2eds/bin/gnu/h-x86_64-mingw32/bin/../lib/gcc/nios2-elf/5.3.0\libgcc.a(_clzsi2.o)
 .debug_frame   0x0000000000001504       0x74 ../FreeRTOS_bsp/\libfreertos_bsp.a(alt_main.o)
 .debug_frame   0x0000000000001578       0x60 ../FreeRTOS_bsp/\libfreertos_bsp.a(alt_malloc_lock.o)
 .debug_frame   0x00000000000015d8      0x4fc ../FreeRTOS_bsp/\libfreertos_bsp.a(queue.o)
 .debug_frame   0x0000000000001ad4      0x998 ../FreeRTOS_bsp/\libfreertos_bsp.a(tasks.o)
 .debug_frame   0x000000000000246c      0x3a8 ../FreeRTOS_bsp/\libfreertos_bsp.a(timers.o)
 .debug_frame   0x0000000000002814       0x34 ../FreeRTOS_bsp/\libfreertos_bsp.a(alt_dev.o)
 .debug_frame   0x0000000000002848       0x38 ../FreeRTOS_bsp/\libfreertos_bsp.a(alt_do_ctors.o)
 .debug_frame   0x0000000000002880       0x38 ../FreeRTOS_bsp/\libfreertos_bsp.a(alt_do_dtors.o)
 .debug_frame   0x00000000000028b8       0x60 ../FreeRTOS_bsp/\libfreertos_bsp.a(alt_fstat.o)
 .debug_frame   0x0000000000002918       0x60 ../FreeRTOS_bsp/\libfreertos_bsp.a(alt_io_redirect.o)
 .debug_frame   0x0000000000002978       0x60 ../FreeRTOS_bsp/\libfreertos_bsp.a(alt_isatty.o)
 .debug_frame   0x00000000000029d8       0x5c ../FreeRTOS_bsp/\libfreertos_bsp.a(alt_load.o)
 .debug_frame   0x0000000000002a34       0x60 ../FreeRTOS_bsp/\libfreertos_bsp.a(alt_lseek.o)
 .debug_frame   0x0000000000002a94       0x84 ../FreeRTOS_bsp/\libfreertos_bsp.a(alt_open.o)
 .debug_frame   0x0000000000002b18       0x38 ../FreeRTOS_bsp/\libfreertos_bsp.a(alt_printf.o)
 .debug_frame   0x0000000000002b50       0x38 ../FreeRTOS_bsp/\libfreertos_bsp.a(alt_putchar.o)
 .debug_frame   0x0000000000002b88       0x34 ../FreeRTOS_bsp/\libfreertos_bsp.a(alt_release_fd.o)
 .debug_frame   0x0000000000002bbc       0x34 ../FreeRTOS_bsp/\libfreertos_bsp.a(alt_sbrk.o)
 .debug_frame   0x0000000000002bf0       0x38 ../FreeRTOS_bsp/\libfreertos_bsp.a(alt_lwip_close.o)
 .debug_frame   0x0000000000002c28       0x38 ../FreeRTOS_bsp/\libfreertos_bsp.a(alt_lwip_read.o)
 .debug_frame   0x0000000000002c60       0x38 ../FreeRTOS_bsp/\libfreertos_bsp.a(alt_lwip_write.o)
 .debug_frame   0x0000000000002c98       0xb0 ../FreeRTOS_bsp/\libfreertos_bsp.a(altera_tse_ethernetif.o)
 .debug_frame   0x0000000000002d48      0x228 ../FreeRTOS_bsp/\libfreertos_bsp.a(lwip_main.o)
 .debug_frame   0x0000000000002f70       0xdc ../FreeRTOS_bsp/\libfreertos_bsp.a(lwip_tse_mac.o)
 .debug_frame   0x000000000000304c      0x37c ../FreeRTOS_bsp/\libfreertos_bsp.a(sys_arch.o)
 .debug_frame   0x00000000000033c8      0x618 ../FreeRTOS_bsp/\libfreertos_bsp.a(dhcp.o)
 .debug_frame   0x00000000000039e0      0x2b4 ../FreeRTOS_bsp/\libfreertos_bsp.a(etharp.o)
 .debug_frame   0x0000000000003c94       0xfc ../FreeRTOS_bsp/\libfreertos_bsp.a(ip4_addr.o)
 .debug_frame   0x0000000000003d90      0x180 ../FreeRTOS_bsp/\libfreertos_bsp.a(mem.o)
 .debug_frame   0x0000000000003f10      0x14c ../FreeRTOS_bsp/\libfreertos_bsp.a(memp.o)
 .debug_frame   0x000000000000405c      0x3fc ../FreeRTOS_bsp/\libfreertos_bsp.a(netif.o)
 .debug_frame   0x0000000000004458      0x5e8 ../FreeRTOS_bsp/\libfreertos_bsp.a(pbuf.o)
 .debug_frame   0x0000000000004a40      0x224 ../FreeRTOS_bsp/\libfreertos_bsp.a(raw.o)
 .debug_frame   0x0000000000004c64       0x34 ../FreeRTOS_bsp/\libfreertos_bsp.a(stats.o)
 .debug_frame   0x0000000000004c98      0x840 ../FreeRTOS_bsp/\libfreertos_bsp.a(tcp.o)
 .debug_frame   0x00000000000054d8      0x1fc ../FreeRTOS_bsp/\libfreertos_bsp.a(tcp_in.o)
 .debug_frame   0x00000000000056d4      0x458 ../FreeRTOS_bsp/\libfreertos_bsp.a(tcp_out.o)
 .debug_frame   0x0000000000005b2c      0x1a0 ../FreeRTOS_bsp/\libfreertos_bsp.a(timeouts.o)
 .debug_frame   0x0000000000005ccc      0x33c ../FreeRTOS_bsp/\libfreertos_bsp.a(udp.o)
 .debug_frame   0x0000000000006008       0x60 ../FreeRTOS_bsp/\libfreertos_bsp.a(ethernet.o)
 .debug_frame   0x0000000000006068       0x88 ../FreeRTOS_bsp/\libfreertos_bsp.a(alt_sys_init.o)
 .debug_frame   0x00000000000060f0       0xb0 ../FreeRTOS_bsp/\libfreertos_bsp.a(altera_avalon_jtag_uart_fd.o)
 .debug_frame   0x00000000000061a0       0xa4 ../FreeRTOS_bsp/\libfreertos_bsp.a(altera_avalon_jtag_uart_init.o)
 .debug_frame   0x0000000000006244       0x34 ../FreeRTOS_bsp/\libfreertos_bsp.a(altera_avalon_jtag_uart_ioctl.o)
 .debug_frame   0x0000000000006278       0x38 ../FreeRTOS_bsp/\libfreertos_bsp.a(altera_avalon_jtag_uart_read.o)
 .debug_frame   0x00000000000062b0       0x38 ../FreeRTOS_bsp/\libfreertos_bsp.a(altera_avalon_jtag_uart_write.o)
 .debug_frame   0x00000000000062e8      0x310 ../FreeRTOS_bsp/\libfreertos_bsp.a(altera_avalon_sgdma.o)
 .debug_frame   0x00000000000065f8       0x60 ../FreeRTOS_bsp/\libfreertos_bsp.a(altera_avalon_timer_sc.o)
 .debug_frame   0x0000000000006658       0x88 ../FreeRTOS_bsp/\libfreertos_bsp.a(altera_avalon_uart_fd.o)
 .debug_frame   0x00000000000066e0       0xcc ../FreeRTOS_bsp/\libfreertos_bsp.a(altera_avalon_uart_init.o)
 .debug_frame   0x00000000000067ac       0x60 ../FreeRTOS_bsp/\libfreertos_bsp.a(altera_avalon_uart_read.o)
 .debug_frame   0x000000000000680c       0x60 ../FreeRTOS_bsp/\libfreertos_bsp.a(altera_avalon_uart_write.o)
 .debug_frame   0x000000000000686c       0x60 ../FreeRTOS_bsp/\libfreertos_bsp.a(alt_env_lock.o)
 .debug_frame   0x00000000000068cc       0xa4 ../FreeRTOS_bsp/\libfreertos_bsp.a(heap_1.o)
 .debug_frame   0x0000000000006970       0xc4 ../FreeRTOS_bsp/\libfreertos_bsp.a(list.o)
 .debug_frame   0x0000000000006a34      0x164 ../FreeRTOS_bsp/\libfreertos_bsp.a(port.o)
 .debug_frame   0x0000000000006b98       0x34 ../FreeRTOS_bsp/\libfreertos_bsp.a(alt_alarm_start.o)
 .debug_frame   0x0000000000006bcc       0x60 ../FreeRTOS_bsp/\libfreertos_bsp.a(alt_close.o)
 .debug_frame   0x0000000000006c2c       0x34 ../FreeRTOS_bsp/\libfreertos_bsp.a(alt_dcache_flush.o)
 .debug_frame   0x0000000000006c60       0x34 ../FreeRTOS_bsp/\libfreertos_bsp.a(alt_dcache_flush_all.o)
 .debug_frame   0x0000000000006c94       0x60 ../FreeRTOS_bsp/\libfreertos_bsp.a(alt_dev_llist_insert.o)
 .debug_frame   0x0000000000006cf4       0x38 ../FreeRTOS_bsp/\libfreertos_bsp.a(alt_find_dev.o)
 .debug_frame   0x0000000000006d2c       0x38 ../FreeRTOS_bsp/\libfreertos_bsp.a(alt_find_file.o)
 .debug_frame   0x0000000000006d64       0x38 ../FreeRTOS_bsp/\libfreertos_bsp.a(alt_get_fd.o)
 .debug_frame   0x0000000000006d9c       0x38 ../FreeRTOS_bsp/\libfreertos_bsp.a(alt_icache_flush_all.o)
 .debug_frame   0x0000000000006dd4       0xa4 ../FreeRTOS_bsp/\libfreertos_bsp.a(alt_iic.o)
 .debug_frame   0x0000000000006e78       0x38 ../FreeRTOS_bsp/\libfreertos_bsp.a(alt_iic_isr_register.o)
 .debug_frame   0x0000000000006eb0       0x38 ../FreeRTOS_bsp/\libfreertos_bsp.a(alt_irq_handler.o)
 .debug_frame   0x0000000000006ee8       0x60 ../FreeRTOS_bsp/\libfreertos_bsp.a(alt_read.o)
 .debug_frame   0x0000000000006f48       0x5c ../FreeRTOS_bsp/\libfreertos_bsp.a(alt_tick.o)
 .debug_frame   0x0000000000006fa4       0x38 ../FreeRTOS_bsp/\libfreertos_bsp.a(alt_uncached_malloc.o)
 .debug_frame   0x0000000000006fdc       0x38 ../FreeRTOS_bsp/\libfreertos_bsp.a(alt_usleep.o)
 .debug_frame   0x0000000000007014       0x60 ../FreeRTOS_bsp/\libfreertos_bsp.a(alt_write.o)
 .debug_frame   0x0000000000007074       0x34 ../FreeRTOS_bsp/\libfreertos_bsp.a(altera_nios2_gen2_irq.o)
 .debug_frame   0x00000000000070a8      0x93c ../FreeRTOS_bsp/\libfreertos_bsp.a(sockets.o)
 .debug_frame   0x00000000000079e4      0x32c ../FreeRTOS_bsp/\libfreertos_bsp.a(tcpip.o)
 .debug_frame   0x0000000000007d10      0x6a8 ../FreeRTOS_bsp/\libfreertos_bsp.a(altera_avalon_tse.o)
 .debug_frame   0x00000000000083b8      0x118 ../FreeRTOS_bsp/\libfreertos_bsp.a(def.o)
 .debug_frame   0x00000000000084d0      0x19c ../FreeRTOS_bsp/\libfreertos_bsp.a(inet_chksum.o)
 .debug_frame   0x000000000000866c       0x38 ../FreeRTOS_bsp/\libfreertos_bsp.a(init.o)
 .debug_frame   0x00000000000086a4      0x198 ../FreeRTOS_bsp/\libfreertos_bsp.a(acd.o)
 .debug_frame   0x000000000000883c       0xb0 ../FreeRTOS_bsp/\libfreertos_bsp.a(icmp.o)
 .debug_frame   0x00000000000088ec      0x124 ../FreeRTOS_bsp/\libfreertos_bsp.a(ip4.o)
 .debug_frame   0x0000000000008a10      0x1c8 ../FreeRTOS_bsp/\libfreertos_bsp.a(ip4_frag.o)
 .debug_frame   0x0000000000008bd8       0x38 ../FreeRTOS_bsp/\libfreertos_bsp.a(alt_busy_sleep.o)
 .debug_frame   0x0000000000008c10       0x34 ../FreeRTOS_bsp/\libfreertos_bsp.a(alt_icache_flush.o)
 .debug_frame   0x0000000000008c44      0x470 ../FreeRTOS_bsp/\libfreertos_bsp.a(api_lib.o)
 .debug_frame   0x00000000000090b4      0x4c8 ../FreeRTOS_bsp/\libfreertos_bsp.a(api_msg.o)
 .debug_frame   0x000000000000957c       0x34 ../FreeRTOS_bsp/\libfreertos_bsp.a(err.o)
 .debug_frame   0x00000000000095b0      0x16c ../FreeRTOS_bsp/\libfreertos_bsp.a(netbuf.o)
 .debug_frame   0x000000000000971c       0x20 c:/altera/18.1/nios2eds/bin/gnu/h-x86_64-mingw32/bin/../lib/gcc/nios2-elf/5.3.0/../../../../../H-x86_64-mingw32/nios2-elf/lib\libc.a(lib_a-atexit.o)
 .debug_frame   0x000000000000973c       0x30 c:/altera/18.1/nios2eds/bin/gnu/h-x86_64-mingw32/bin/../lib/gcc/nios2-elf/5.3.0/../../../../../H-x86_64-mingw32/nios2-elf/lib\libc.a(lib_a-atoi.o)
 .debug_frame   0x000000000000976c       0x20 c:/altera/18.1/nios2eds/bin/gnu/h-x86_64-mingw32/bin/../lib/gcc/nios2-elf/5.3.0/../../../../../H-x86_64-mingw32/nios2-elf/lib\libc.a(lib_a-errno.o)
 .debug_frame   0x000000000000978c       0x28 c:/altera/18.1/nios2eds/bin/gnu/h-x86_64-mingw32/bin/../lib/gcc/nios2-elf/5.3.0/../../../../../H-x86_64-mingw32/nios2-elf/lib\libc.a(lib_a-exit.o)
 .debug_frame   0x00000000000097b4       0x30 c:/altera/18.1/nios2eds/bin/gnu/h-x86_64-mingw32/bin/../lib/gcc/nios2-elf/5.3.0/../../../../../H-x86_64-mingw32/nios2-elf/lib\libc.a(lib_a-malloc.o)
 .debug_frame   0x00000000000097e4       0x20 c:/altera/18.1/nios2eds/bin/gnu/h-x86_64-mingw32/bin/../lib/gcc/nios2-elf/5.3.0/../../../../../H-x86_64-mingw32/nios2-elf/lib\libc.a(lib_a-memcmp.o)
 .debug_frame   0x0000000000009804       0x70 c:/altera/18.1/nios2eds/bin/gnu/h-x86_64-mingw32/bin/../lib/gcc/nios2-elf/5.3.0/../../../../../H-x86_64-mingw32/nios2-elf/lib\libc.a(lib_a-putc.o)
 .debug_frame   0x0000000000009874       0x48 c:/altera/18.1/nios2eds/bin/gnu/h-x86_64-mingw32/bin/../lib/gcc/nios2-elf/5.3.0/../../../../../H-x86_64-mingw32/nios2-elf/lib\libc.a(lib_a-puts.o)
 .debug_frame   0x00000000000098bc       0x7c c:/altera/18.1/nios2eds/bin/gnu/h-x86_64-mingw32/bin/../lib/gcc/nios2-elf/5.3.0/../../../../../H-x86_64-mingw32/nios2-elf/lib\libc.a(lib_a-snprintf.o)
 .debug_frame   0x0000000000009938       0x20 c:/altera/18.1/nios2eds/bin/gnu/h-x86_64-mingw32/bin/../lib/gcc/nios2-elf/5.3.0/../../../../../H-x86_64-mingw32/nios2-elf/lib\libc.a(lib_a-strcpy.o)
 .debug_frame   0x0000000000009958       0x20 c:/altera/18.1/nios2eds/bin/gnu/h-x86_64-mingw32/bin/../lib/gcc/nios2-elf/5.3.0/../../../../../H-x86_64-mingw32/nios2-elf/lib\libc.a(lib_a-strncmp.o)
 .debug_frame   0x0000000000009978       0x68 c:/altera/18.1/nios2eds/bin/gnu/h-x86_64-mingw32/bin/../lib/gcc/nios2-elf/5.3.0/../../../../../H-x86_64-mingw32/nios2-elf/lib\libc.a(lib_a-strtol.o)
 .debug_frame   0x00000000000099e0       0x58 c:/altera/18.1/nios2eds/bin/gnu/h-x86_64-mingw32/bin/../lib/gcc/nios2-elf/5.3.0/../../../../../H-x86_64-mingw32/nios2-elf/lib\libc.a(lib_a-svfprintf.o)
 .debug_frame   0x0000000000009a38       0x38 c:/altera/18.1/nios2eds/bin/gnu/h-x86_64-mingw32/bin/../lib/gcc/nios2-elf/5.3.0/../../../../../H-x86_64-mingw32/nios2-elf/lib\libc.a(lib_a-__atexit.o)
 .debug_frame   0x0000000000009a70       0x54 c:/altera/18.1/nios2eds/bin/gnu/h-x86_64-mingw32/bin/../lib/gcc/nios2-elf/5.3.0/../../../../../H-x86_64-mingw32/nios2-elf/lib\libc.a(lib_a-__call_atexit.o)
 .debug_frame   0x0000000000009ac4       0x9c c:/altera/18.1/nios2eds/bin/gnu/h-x86_64-mingw32/bin/../lib/gcc/nios2-elf/5.3.0/../../../../../H-x86_64-mingw32/nios2-elf/lib\libc.a(lib_a-svfiprintf.o)
 .debug_frame   0x0000000000009b60       0x2c ../FreeRTOS_bsp/\libfreertos_bsp.a(alt_exit.o)

.debug_str      0x0000000000000000     0xccaa
 *(.debug_str)
 .debug_str     0x0000000000000000      0xcc9 obj/default/main.o
                                        0xe52 (size before relaxing)
 .debug_str     0x0000000000000cc9      0x4b2 c:/altera/18.1/nios2eds/bin/gnu/h-x86_64-mingw32/bin/../lib/gcc/nios2-elf/5.3.0/../../../../../H-x86_64-mingw32/nios2-elf/lib\libc.a(lib_a-printf.o)
                                        0x5e1 (size before relaxing)
 .debug_str     0x000000000000117b      0x264 c:/altera/18.1/nios2eds/bin/gnu/h-x86_64-mingw32/bin/../lib/gcc/nios2-elf/5.3.0/../../../../../H-x86_64-mingw32/nios2-elf/lib\libc.a(lib_a-vfprintf.o)
                                        0x823 (size before relaxing)
 .debug_str     0x00000000000013df       0x4e c:/altera/18.1/nios2eds/bin/gnu/h-x86_64-mingw32/bin/../lib/gcc/nios2-elf/5.3.0/../../../../../H-x86_64-mingw32/nios2-elf/lib\libc.a(lib_a-wsetup.o)
                                        0x5ba (size before relaxing)
 .debug_str     0x000000000000142d      0x1e1 c:/altera/18.1/nios2eds/bin/gnu/h-x86_64-mingw32/bin/../lib/gcc/nios2-elf/5.3.0/../../../../../H-x86_64-mingw32/nios2-elf/lib\libc.a(lib_a-dtoa.o)
                                        0x6da (size before relaxing)
 .debug_str     0x000000000000160e       0x7c c:/altera/18.1/nios2eds/bin/gnu/h-x86_64-mingw32/bin/../lib/gcc/nios2-elf/5.3.0/../../../../../H-x86_64-mingw32/nios2-elf/lib\libc.a(lib_a-fflush.o)
                                        0x5fb (size before relaxing)
 .debug_str     0x000000000000168a      0x123 c:/altera/18.1/nios2eds/bin/gnu/h-x86_64-mingw32/bin/../lib/gcc/nios2-elf/5.3.0/../../../../../H-x86_64-mingw32/nios2-elf/lib\libc.a(lib_a-findfp.o)
                                        0x6b1 (size before relaxing)
 .debug_str     0x00000000000017ad      0x178 c:/altera/18.1/nios2eds/bin/gnu/h-x86_64-mingw32/bin/../lib/gcc/nios2-elf/5.3.0/../../../../../H-x86_64-mingw32/nios2-elf/lib\libc.a(lib_a-freer.o)
                                        0x6ea (size before relaxing)
 .debug_str     0x0000000000001925       0x47 c:/altera/18.1/nios2eds/bin/gnu/h-x86_64-mingw32/bin/../lib/gcc/nios2-elf/5.3.0/../../../../../H-x86_64-mingw32/nios2-elf/lib\libc.a(lib_a-fwalk.o)
                                        0x5a0 (size before relaxing)
 .debug_str     0x000000000000196c       0xc8 c:/altera/18.1/nios2eds/bin/gnu/h-x86_64-mingw32/bin/../lib/gcc/nios2-elf/5.3.0/../../../../../H-x86_64-mingw32/nios2-elf/lib\libc.a(lib_a-impure.o)
                                        0x59b (size before relaxing)
 .debug_str     0x0000000000001a34      0x292 c:/altera/18.1/nios2eds/bin/gnu/h-x86_64-mingw32/bin/../lib/gcc/nios2-elf/5.3.0/../../../../../H-x86_64-mingw32/nios2-elf/lib\libc.a(lib_a-locale.o)
                                        0x7f8 (size before relaxing)
 .debug_str     0x0000000000001cc6      0x121 c:/altera/18.1/nios2eds/bin/gnu/h-x86_64-mingw32/bin/../lib/gcc/nios2-elf/5.3.0/../../../../../H-x86_64-mingw32/nios2-elf/lib\libc.a(lib_a-makebuf.o)
                                        0x69d (size before relaxing)
 .debug_str     0x0000000000001de7       0xd9 c:/altera/18.1/nios2eds/bin/gnu/h-x86_64-mingw32/bin/../lib/gcc/nios2-elf/5.3.0/../../../../../H-x86_64-mingw32/nios2-elf/lib\libc.a(lib_a-mallocr.o)
                                        0x7a0 (size before relaxing)
 .debug_str     0x0000000000001ec0       0xcc c:/altera/18.1/nios2eds/bin/gnu/h-x86_64-mingw32/bin/../lib/gcc/nios2-elf/5.3.0/../../../../../H-x86_64-mingw32/nios2-elf/lib\libc.a(lib_a-memchr.o)
                                        0x1e4 (size before relaxing)
 .debug_str     0x0000000000001f8c       0x61 c:/altera/18.1/nios2eds/bin/gnu/h-x86_64-mingw32/bin/../lib/gcc/nios2-elf/5.3.0/../../../../../H-x86_64-mingw32/nios2-elf/lib\libc.a(lib_a-memcpy.o)
                                        0x1f1 (size before relaxing)
 .debug_str     0x0000000000001fed       0x4e c:/altera/18.1/nios2eds/bin/gnu/h-x86_64-mingw32/bin/../lib/gcc/nios2-elf/5.3.0/../../../../../H-x86_64-mingw32/nios2-elf/lib\libc.a(lib_a-memset.o)
                                        0x1de (size before relaxing)
 .debug_str     0x000000000000203b       0xa4 c:/altera/18.1/nios2eds/bin/gnu/h-x86_64-mingw32/bin/../lib/gcc/nios2-elf/5.3.0/../../../../../H-x86_64-mingw32/nios2-elf/lib\libc.a(lib_a-mprec.o)
                                        0x694 (size before relaxing)
 .debug_str     0x00000000000020df       0xc4 c:/altera/18.1/nios2eds/bin/gnu/h-x86_64-mingw32/bin/../lib/gcc/nios2-elf/5.3.0/../../../../../H-x86_64-mingw32/nios2-elf/lib\libc.a(lib_a-s_fpclassify.o)
                                        0x1e8 (size before relaxing)
 .debug_str     0x00000000000021a3       0x4c c:/altera/18.1/nios2eds/bin/gnu/h-x86_64-mingw32/bin/../lib/gcc/nios2-elf/5.3.0/../../../../../H-x86_64-mingw32/nios2-elf/lib\libc.a(lib_a-sbrkr.o)
                                        0x591 (size before relaxing)
 .debug_str     0x00000000000021ef       0x98 c:/altera/18.1/nios2eds/bin/gnu/h-x86_64-mingw32/bin/../lib/gcc/nios2-elf/5.3.0/../../../../../H-x86_64-mingw32/nios2-elf/lib\libc.a(lib_a-stdio.o)
                                        0x5ef (size before relaxing)
 .debug_str     0x0000000000002287       0x3a c:/altera/18.1/nios2eds/bin/gnu/h-x86_64-mingw32/bin/../lib/gcc/nios2-elf/5.3.0/../../../../../H-x86_64-mingw32/nios2-elf/lib\libc.a(lib_a-strcmp.o)
                                        0x1c3 (size before relaxing)
 .debug_str     0x00000000000022c1       0x3a c:/altera/18.1/nios2eds/bin/gnu/h-x86_64-mingw32/bin/../lib/gcc/nios2-elf/5.3.0/../../../../../H-x86_64-mingw32/nios2-elf/lib\libc.a(lib_a-strlen.o)
                                        0x1dd (size before relaxing)
 .debug_str     0x00000000000022fb       0x4c c:/altera/18.1/nios2eds/bin/gnu/h-x86_64-mingw32/bin/../lib/gcc/nios2-elf/5.3.0/../../../../../H-x86_64-mingw32/nios2-elf/lib\libc.a(lib_a-vfiprintf.o)
                                        0x777 (size before relaxing)
 .debug_str     0x0000000000002347       0x39 c:/altera/18.1/nios2eds/bin/gnu/h-x86_64-mingw32/bin/../lib/gcc/nios2-elf/5.3.0/../../../../../H-x86_64-mingw32/nios2-elf/lib\libc.a(lib_a-writer.o)
                                        0x595 (size before relaxing)
 .debug_str     0x0000000000002380       0x39 c:/altera/18.1/nios2eds/bin/gnu/h-x86_64-mingw32/bin/../lib/gcc/nios2-elf/5.3.0/../../../../../H-x86_64-mingw32/nios2-elf/lib\libc.a(closer.o)
                                        0x585 (size before relaxing)
 .debug_str     0x00000000000023b9        0xf c:/altera/18.1/nios2eds/bin/gnu/h-x86_64-mingw32/bin/../lib/gcc/nios2-elf/5.3.0/../../../../../H-x86_64-mingw32/nios2-elf/lib\libc.a(lib_a-callocr.o)
                                        0x5d4 (size before relaxing)
 .debug_str     0x00000000000023c8       0x4a c:/altera/18.1/nios2eds/bin/gnu/h-x86_64-mingw32/bin/../lib/gcc/nios2-elf/5.3.0/../../../../../H-x86_64-mingw32/nios2-elf/lib\libc.a(lib_a-fclose.o)
                                        0x5e8 (size before relaxing)
 .debug_str     0x0000000000002412       0x57 c:/altera/18.1/nios2eds/bin/gnu/h-x86_64-mingw32/bin/../lib/gcc/nios2-elf/5.3.0/../../../../../H-x86_64-mingw32/nios2-elf/lib\libc.a(lib_a-fputwc.o)
                                        0x5ec (size before relaxing)
 .debug_str     0x0000000000002469       0x45 c:/altera/18.1/nios2eds/bin/gnu/h-x86_64-mingw32/bin/../lib/gcc/nios2-elf/5.3.0/../../../../../H-x86_64-mingw32/nios2-elf/lib\libc.a(lib_a-fstatr.o)
                                        0x671 (size before relaxing)
 .debug_str     0x00000000000024ae       0x6b c:/altera/18.1/nios2eds/bin/gnu/h-x86_64-mingw32/bin/../lib/gcc/nios2-elf/5.3.0/../../../../../H-x86_64-mingw32/nios2-elf/lib\libc.a(lib_a-fvwrite.o)
                                        0x62d (size before relaxing)
 .debug_str     0x0000000000002519       0x3c c:/altera/18.1/nios2eds/bin/gnu/h-x86_64-mingw32/bin/../lib/gcc/nios2-elf/5.3.0/../../../../../H-x86_64-mingw32/nios2-elf/lib\libc.a(lib_a-int_errno.o)
                                        0x1c3 (size before relaxing)
 .debug_str     0x0000000000002555       0x41 c:/altera/18.1/nios2eds/bin/gnu/h-x86_64-mingw32/bin/../lib/gcc/nios2-elf/5.3.0/../../../../../H-x86_64-mingw32/nios2-elf/lib\libc.a(lib_a-isattyr.o)
                                        0x588 (size before relaxing)
 .debug_str     0x0000000000002596       0x3f c:/altera/18.1/nios2eds/bin/gnu/h-x86_64-mingw32/bin/../lib/gcc/nios2-elf/5.3.0/../../../../../H-x86_64-mingw32/nios2-elf/lib\libc.a(lib_a-lseekr.o)
                                        0x58c (size before relaxing)
 .debug_str     0x00000000000025d5       0x44 c:/altera/18.1/nios2eds/bin/gnu/h-x86_64-mingw32/bin/../lib/gcc/nios2-elf/5.3.0/../../../../../H-x86_64-mingw32/nios2-elf/lib\libc.a(lib_a-memmove.o)
                                        0x1fd (size before relaxing)
 .debug_str     0x0000000000002619       0x38 c:/altera/18.1/nios2eds/bin/gnu/h-x86_64-mingw32/bin/../lib/gcc/nios2-elf/5.3.0/../../../../../H-x86_64-mingw32/nios2-elf/lib\libc.a(lib_a-readr.o)
                                        0x592 (size before relaxing)
 .debug_str     0x0000000000002651       0x49 c:/altera/18.1/nios2eds/bin/gnu/h-x86_64-mingw32/bin/../lib/gcc/nios2-elf/5.3.0/../../../../../H-x86_64-mingw32/nios2-elf/lib\libc.a(lib_a-reallocr.o)
                                        0x67c (size before relaxing)
 .debug_str     0x000000000000269a       0x3f c:/altera/18.1/nios2eds/bin/gnu/h-x86_64-mingw32/bin/../lib/gcc/nios2-elf/5.3.0/../../../../../H-x86_64-mingw32/nios2-elf/lib\libc.a(lib_a-wbuf.o)
                                        0x5bf (size before relaxing)
 .debug_str     0x00000000000026d9       0x53 c:/altera/18.1/nios2eds/bin/gnu/h-x86_64-mingw32/bin/../lib/gcc/nios2-elf/5.3.0/../../../../../H-x86_64-mingw32/nios2-elf/lib\libc.a(lib_a-wcrtomb.o)
                                        0x5d2 (size before relaxing)
 .debug_str     0x000000000000272c       0x5c c:/altera/18.1/nios2eds/bin/gnu/h-x86_64-mingw32/bin/../lib/gcc/nios2-elf/5.3.0/../../../../../H-x86_64-mingw32/nios2-elf/lib\libc.a(lib_a-wctomb_r.o)
                                        0x5db (size before relaxing)
 .debug_str     0x0000000000002788      0x1e9 c:/altera/18.1/nios2eds/bin/gnu/h-x86_64-mingw32/bin/../lib/gcc/nios2-elf/5.3.0\libgcc.a(_udivdi3.o)
                                        0x282 (size before relaxing)
 .debug_str     0x0000000000002971        0xa c:/altera/18.1/nios2eds/bin/gnu/h-x86_64-mingw32/bin/../lib/gcc/nios2-elf/5.3.0\libgcc.a(_umoddi3.o)
                                        0x282 (size before relaxing)
 .debug_str     0x000000000000297b       0xf0 c:/altera/18.1/nios2eds/bin/gnu/h-x86_64-mingw32/bin/../lib/gcc/nios2-elf/5.3.0\libgcc.a(lib2-divmod.o)
                                        0x1b8 (size before relaxing)
 .debug_str     0x0000000000002a6b      0x116 c:/altera/18.1/nios2eds/bin/gnu/h-x86_64-mingw32/bin/../lib/gcc/nios2-elf/5.3.0\libgcc.a(adddf3.o)
                                        0x28f (size before relaxing)
 .debug_str     0x0000000000002b81      0x123 c:/altera/18.1/nios2eds/bin/gnu/h-x86_64-mingw32/bin/../lib/gcc/nios2-elf/5.3.0\libgcc.a(divdf3.o)
                                        0x347 (size before relaxing)
 .debug_str     0x0000000000002ca4       0x34 c:/altera/18.1/nios2eds/bin/gnu/h-x86_64-mingw32/bin/../lib/gcc/nios2-elf/5.3.0\libgcc.a(eqdf2.o)
                                        0x1f5 (size before relaxing)
 .debug_str     0x0000000000002cd8       0x58 c:/altera/18.1/nios2eds/bin/gnu/h-x86_64-mingw32/bin/../lib/gcc/nios2-elf/5.3.0\libgcc.a(gedf2.o)
                                        0x219 (size before relaxing)
 .debug_str     0x0000000000002d30       0x34 c:/altera/18.1/nios2eds/bin/gnu/h-x86_64-mingw32/bin/../lib/gcc/nios2-elf/5.3.0\libgcc.a(ledf2.o)
                                        0x219 (size before relaxing)
 .debug_str     0x0000000000002d64      0x15b c:/altera/18.1/nios2eds/bin/gnu/h-x86_64-mingw32/bin/../lib/gcc/nios2-elf/5.3.0\libgcc.a(muldf3.o)
                                        0x3a8 (size before relaxing)
 .debug_str     0x0000000000002ebf       0x36 c:/altera/18.1/nios2eds/bin/gnu/h-x86_64-mingw32/bin/../lib/gcc/nios2-elf/5.3.0\libgcc.a(subdf3.o)
                                        0x28f (size before relaxing)
 .debug_str     0x0000000000002ef5       0x4b c:/altera/18.1/nios2eds/bin/gnu/h-x86_64-mingw32/bin/../lib/gcc/nios2-elf/5.3.0\libgcc.a(fixdfsi.o)
                                        0x211 (size before relaxing)
 .debug_str     0x0000000000002f40       0x69 c:/altera/18.1/nios2eds/bin/gnu/h-x86_64-mingw32/bin/../lib/gcc/nios2-elf/5.3.0\libgcc.a(floatsidf.o)
                                        0x228 (size before relaxing)
 .debug_str     0x0000000000002fa9       0x40 c:/altera/18.1/nios2eds/bin/gnu/h-x86_64-mingw32/bin/../lib/gcc/nios2-elf/5.3.0\libgcc.a(floatunsidf.o)
                                        0x225 (size before relaxing)
 .debug_str     0x0000000000002fe9      0x1c9 c:/altera/18.1/nios2eds/bin/gnu/h-x86_64-mingw32/bin/../lib/gcc/nios2-elf/5.3.0\libgcc.a(_clz.o)
 .debug_str     0x0000000000002fe9        0x9 c:/altera/18.1/nios2eds/bin/gnu/h-x86_64-mingw32/bin/../lib/gcc/nios2-elf/5.3.0\libgcc.a(_clzsi2.o)
                                        0x1e6 (size before relaxing)
 .debug_str     0x0000000000002ff2      0x101 ../FreeRTOS_bsp/\libfreertos_bsp.a(alt_main.o)
                                        0x235 (size before relaxing)
 .debug_str     0x00000000000030f3       0x1f ../FreeRTOS_bsp/\libfreertos_bsp.a(alt_malloc_lock.o)
                                        0x551 (size before relaxing)
 .debug_str     0x0000000000003112      0x635 ../FreeRTOS_bsp/\libfreertos_bsp.a(queue.o)
                                        0x834 (size before relaxing)
 .debug_str     0x0000000000003747      0xceb ../FreeRTOS_bsp/\libfreertos_bsp.a(tasks.o)
                                        0xfe8 (size before relaxing)
 .debug_str     0x0000000000004432      0x475 ../FreeRTOS_bsp/\libfreertos_bsp.a(timers.o)
                                        0x720 (size before relaxing)
 .debug_str     0x00000000000048a7       0x8c ../FreeRTOS_bsp/\libfreertos_bsp.a(alt_dev.o)
                                        0x33c (size before relaxing)
 .debug_str     0x0000000000004933       0x48 ../FreeRTOS_bsp/\libfreertos_bsp.a(alt_do_ctors.o)
                                         0xc6 (size before relaxing)
 .debug_str     0x000000000000497b       0x4c ../FreeRTOS_bsp/\libfreertos_bsp.a(alt_do_dtors.o)
                                         0xc5 (size before relaxing)
 .debug_str     0x00000000000049c7       0x2c ../FreeRTOS_bsp/\libfreertos_bsp.a(alt_fstat.o)
                                        0x2e2 (size before relaxing)
 .debug_str     0x00000000000049f3       0x56 ../FreeRTOS_bsp/\libfreertos_bsp.a(alt_io_redirect.o)
                                        0x30c (size before relaxing)
 .debug_str     0x0000000000004a49       0x15 ../FreeRTOS_bsp/\libfreertos_bsp.a(alt_isatty.o)
                                        0x2ea (size before relaxing)
 .debug_str     0x0000000000004a5e       0xec ../FreeRTOS_bsp/\libfreertos_bsp.a(alt_load.o)
                                        0x208 (size before relaxing)
 .debug_str     0x0000000000004b4a       0x14 ../FreeRTOS_bsp/\libfreertos_bsp.a(alt_lseek.o)
                                        0x207 (size before relaxing)
 .debug_str     0x0000000000004b5e       0x29 ../FreeRTOS_bsp/\libfreertos_bsp.a(alt_open.o)
                                        0x241 (size before relaxing)
 .debug_str     0x0000000000004b87       0x21 ../FreeRTOS_bsp/\libfreertos_bsp.a(alt_printf.o)
                                         0xf0 (size before relaxing)
 .debug_str     0x0000000000004ba8       0x22 ../FreeRTOS_bsp/\libfreertos_bsp.a(alt_putchar.o)
                                        0x4fb (size before relaxing)
 .debug_str     0x0000000000004bca       0x28 ../FreeRTOS_bsp/\libfreertos_bsp.a(alt_release_fd.o)
                                        0x1eb (size before relaxing)
 .debug_str     0x0000000000004bf2       0x71 ../FreeRTOS_bsp/\libfreertos_bsp.a(alt_sbrk.o)
                                        0x1ca (size before relaxing)
 .debug_str     0x0000000000004c63       0x1f ../FreeRTOS_bsp/\libfreertos_bsp.a(alt_lwip_close.o)
                                        0x13c (size before relaxing)
 .debug_str     0x0000000000004c82       0x1e ../FreeRTOS_bsp/\libfreertos_bsp.a(alt_lwip_read.o)
                                        0x141 (size before relaxing)
 .debug_str     0x0000000000004ca0       0x1f ../FreeRTOS_bsp/\libfreertos_bsp.a(alt_lwip_write.o)
                                        0x143 (size before relaxing)
 .debug_str     0x0000000000004cbf      0x704 ../FreeRTOS_bsp/\libfreertos_bsp.a(altera_tse_ethernetif.o)
                                       0x105d (size before relaxing)
 .debug_str     0x00000000000053c3      0x2db ../FreeRTOS_bsp/\libfreertos_bsp.a(lwip_main.o)
                                       0x135f (size before relaxing)
 .debug_str     0x000000000000569e      0xab5 ../FreeRTOS_bsp/\libfreertos_bsp.a(lwip_tse_mac.o)
                                       0x1ba6 (size before relaxing)
 .debug_str     0x0000000000006153      0x219 ../FreeRTOS_bsp/\libfreertos_bsp.a(sys_arch.o)
                                        0x5cf (size before relaxing)
 .debug_str     0x000000000000636c      0x9d2 ../FreeRTOS_bsp/\libfreertos_bsp.a(dhcp.o)
                                       0x1100 (size before relaxing)
 .debug_str     0x0000000000006d3e      0x39d ../FreeRTOS_bsp/\libfreertos_bsp.a(etharp.o)
                                        0xc51 (size before relaxing)
 .debug_str     0x00000000000070db       0xab ../FreeRTOS_bsp/\libfreertos_bsp.a(ip4_addr.o)
                                        0x501 (size before relaxing)
 .debug_str     0x0000000000007186       0xde ../FreeRTOS_bsp/\libfreertos_bsp.a(mem.o)
                                        0x4c7 (size before relaxing)
 .debug_str     0x0000000000007264      0x550 ../FreeRTOS_bsp/\libfreertos_bsp.a(memp.o)
                                        0x931 (size before relaxing)
 .debug_str     0x00000000000077b4      0x233 ../FreeRTOS_bsp/\libfreertos_bsp.a(netif.o)
                                        0x879 (size before relaxing)
 .debug_str     0x00000000000079e7      0x6cf ../FreeRTOS_bsp/\libfreertos_bsp.a(pbuf.o)
                                        0xc9b (size before relaxing)
 .debug_str     0x00000000000080b6      0x16f ../FreeRTOS_bsp/\libfreertos_bsp.a(raw.o)
                                        0x7f8 (size before relaxing)
 .debug_str     0x0000000000008225       0x21 ../FreeRTOS_bsp/\libfreertos_bsp.a(stats.o)
                                        0x312 (size before relaxing)
 .debug_str     0x0000000000008246      0x55c ../FreeRTOS_bsp/\libfreertos_bsp.a(tcp.o)
                                        0xf12 (size before relaxing)
 .debug_str     0x00000000000087a2      0x1eb ../FreeRTOS_bsp/\libfreertos_bsp.a(tcp_in.o)
                                        0xc90 (size before relaxing)
 .debug_str     0x000000000000898d      0x352 ../FreeRTOS_bsp/\libfreertos_bsp.a(tcp_out.o)
                                        0xcad (size before relaxing)
 .debug_str     0x0000000000008cdf      0x1a6 ../FreeRTOS_bsp/\libfreertos_bsp.a(timeouts.o)
                                        0x8a5 (size before relaxing)
 .debug_str     0x0000000000008e85      0x23b ../FreeRTOS_bsp/\libfreertos_bsp.a(udp.o)
                                        0xb2f (size before relaxing)
 .debug_str     0x00000000000090c0       0x69 ../FreeRTOS_bsp/\libfreertos_bsp.a(ethernet.o)
                                        0x739 (size before relaxing)
 .debug_str     0x0000000000009129      0x22e ../FreeRTOS_bsp/\libfreertos_bsp.a(alt_sys_init.o)
                                        0x5bd (size before relaxing)
 .debug_str     0x0000000000009357       0xac ../FreeRTOS_bsp/\libfreertos_bsp.a(altera_avalon_jtag_uart_fd.o)
                                        0x3df (size before relaxing)
 .debug_str     0x0000000000009403       0xd6 ../FreeRTOS_bsp/\libfreertos_bsp.a(altera_avalon_jtag_uart_init.o)
                                        0x390 (size before relaxing)
 .debug_str     0x00000000000094d9       0x4a ../FreeRTOS_bsp/\libfreertos_bsp.a(altera_avalon_jtag_uart_ioctl.o)
                                        0x2ce (size before relaxing)
 .debug_str     0x0000000000009523       0x55 ../FreeRTOS_bsp/\libfreertos_bsp.a(altera_avalon_jtag_uart_read.o)
                                        0x355 (size before relaxing)
 .debug_str     0x0000000000009578       0x4a ../FreeRTOS_bsp/\libfreertos_bsp.a(altera_avalon_jtag_uart_write.o)
                                        0x356 (size before relaxing)
 .debug_str     0x00000000000095c2      0x361 ../FreeRTOS_bsp/\libfreertos_bsp.a(altera_avalon_sgdma.o)
                                        0x686 (size before relaxing)
 .debug_str     0x0000000000009923       0x66 ../FreeRTOS_bsp/\libfreertos_bsp.a(altera_avalon_timer_sc.o)
                                        0x241 (size before relaxing)
 .debug_str     0x0000000000009989       0x77 ../FreeRTOS_bsp/\libfreertos_bsp.a(altera_avalon_uart_fd.o)
                                        0x330 (size before relaxing)
 .debug_str     0x0000000000009a00       0xa0 ../FreeRTOS_bsp/\libfreertos_bsp.a(altera_avalon_uart_init.o)
                                        0x30f (size before relaxing)
 .debug_str     0x0000000000009aa0       0x4f ../FreeRTOS_bsp/\libfreertos_bsp.a(altera_avalon_uart_read.o)
                                        0x31a (size before relaxing)
 .debug_str     0x0000000000009aef       0x49 ../FreeRTOS_bsp/\libfreertos_bsp.a(altera_avalon_uart_write.o)
                                        0x30e (size before relaxing)
 .debug_str     0x0000000000009b38       0x34 ../FreeRTOS_bsp/\libfreertos_bsp.a(alt_env_lock.o)
                                        0x547 (size before relaxing)
 .debug_str     0x0000000000009b6c       0x88 ../FreeRTOS_bsp/\libfreertos_bsp.a(heap_1.o)
                                        0x1d5 (size before relaxing)
 .debug_str     0x0000000000009bf4       0xa1 ../FreeRTOS_bsp/\libfreertos_bsp.a(list.o)
                                        0x27e (size before relaxing)
 .debug_str     0x0000000000009c95      0x139 ../FreeRTOS_bsp/\libfreertos_bsp.a(port.o)
                                        0x343 (size before relaxing)
 .debug_str     0x0000000000009dce       0x21 ../FreeRTOS_bsp/\libfreertos_bsp.a(tse_ethernet_phys.o)
                                        0x8f7 (size before relaxing)
 .debug_str     0x0000000000009def       0x59 ../FreeRTOS_bsp/\libfreertos_bsp.a(alt_alarm_start.o)
                                        0x274 (size before relaxing)
 .debug_str     0x0000000000009e48       0x25 ../FreeRTOS_bsp/\libfreertos_bsp.a(alt_close.o)
                                        0x20b (size before relaxing)
 .debug_str     0x0000000000009e6d       0x2c ../FreeRTOS_bsp/\libfreertos_bsp.a(alt_dcache_flush.o)
                                        0x151 (size before relaxing)
 .debug_str     0x0000000000009e99       0x34 ../FreeRTOS_bsp/\libfreertos_bsp.a(alt_dcache_flush_all.o)
                                        0x14b (size before relaxing)
 .debug_str     0x0000000000009ecd       0x34 ../FreeRTOS_bsp/\libfreertos_bsp.a(alt_dev_llist_insert.o)
                                        0x1c2 (size before relaxing)
 .debug_str     0x0000000000009f01       0x14 ../FreeRTOS_bsp/\libfreertos_bsp.a(alt_errno.o)
                                        0x13b (size before relaxing)
 .debug_str     0x0000000000009f15       0x24 ../FreeRTOS_bsp/\libfreertos_bsp.a(alt_find_dev.o)
                                        0x1e2 (size before relaxing)
 .debug_str     0x0000000000009f39       0x26 ../FreeRTOS_bsp/\libfreertos_bsp.a(alt_find_file.o)
                                        0x1f0 (size before relaxing)
 .debug_str     0x0000000000009f5f       0x30 ../FreeRTOS_bsp/\libfreertos_bsp.a(alt_get_fd.o)
                                        0x28d (size before relaxing)
 .debug_str     0x0000000000009f8f       0x34 ../FreeRTOS_bsp/\libfreertos_bsp.a(alt_icache_flush_all.o)
                                        0x14b (size before relaxing)
 .debug_str     0x0000000000009fc3       0x6a ../FreeRTOS_bsp/\libfreertos_bsp.a(alt_iic.o)
                                        0x234 (size before relaxing)
 .debug_str     0x000000000000a02d       0x34 ../FreeRTOS_bsp/\libfreertos_bsp.a(alt_iic_isr_register.o)
                                        0x1de (size before relaxing)
 .debug_str     0x000000000000a061       0x3a ../FreeRTOS_bsp/\libfreertos_bsp.a(alt_irq_handler.o)
                                        0x18d (size before relaxing)
 .debug_str     0x000000000000a09b       0x17 ../FreeRTOS_bsp/\libfreertos_bsp.a(alt_irq_vars.o)
                                        0x130 (size before relaxing)
 .debug_str     0x000000000000a0b2       0x1c ../FreeRTOS_bsp/\libfreertos_bsp.a(alt_read.o)
                                        0x2f6 (size before relaxing)
 .debug_str     0x000000000000a0ce       0x4a ../FreeRTOS_bsp/\libfreertos_bsp.a(alt_tick.o)
                                        0x248 (size before relaxing)
 .debug_str     0x000000000000a118       0x32 ../FreeRTOS_bsp/\libfreertos_bsp.a(alt_uncached_malloc.o)
                                        0x155 (size before relaxing)
 .debug_str     0x000000000000a14a       0x1c ../FreeRTOS_bsp/\libfreertos_bsp.a(alt_usleep.o)
                                        0x13e (size before relaxing)
 .debug_str     0x000000000000a166       0x1e ../FreeRTOS_bsp/\libfreertos_bsp.a(alt_write.o)
                                        0x2f8 (size before relaxing)
 .debug_str     0x000000000000a184       0x3b ../FreeRTOS_bsp/\libfreertos_bsp.a(altera_nios2_gen2_irq.o)
                                        0x152 (size before relaxing)
 .debug_str     0x000000000000a1bf      0x9ee ../FreeRTOS_bsp/\libfreertos_bsp.a(sockets.o)
                                       0x1423 (size before relaxing)
 .debug_str     0x000000000000abad      0x2d4 ../FreeRTOS_bsp/\libfreertos_bsp.a(tcpip.o)
                                        0x83f (size before relaxing)
 .debug_str     0x000000000000ae81      0xa9b ../FreeRTOS_bsp/\libfreertos_bsp.a(altera_avalon_tse.o)
                                       0x1bd6 (size before relaxing)
 .debug_str     0x000000000000b91c       0x91 ../FreeRTOS_bsp/\libfreertos_bsp.a(def.o)
                                        0x1fe (size before relaxing)
 .debug_str     0x000000000000b9ad      0x109 ../FreeRTOS_bsp/\libfreertos_bsp.a(inet_chksum.o)
                                        0x2cd (size before relaxing)
 .debug_str     0x000000000000bab6       0x1f ../FreeRTOS_bsp/\libfreertos_bsp.a(init.o)
                                        0x136 (size before relaxing)
 .debug_str     0x000000000000bad5       0x13 ../FreeRTOS_bsp/\libfreertos_bsp.a(ip.o)
                                        0x50f (size before relaxing)
 .debug_str     0x000000000000bae8       0xcd ../FreeRTOS_bsp/\libfreertos_bsp.a(acd.o)
                                        0x5fc (size before relaxing)
 .debug_str     0x000000000000bbb5       0xb9 ../FreeRTOS_bsp/\libfreertos_bsp.a(icmp.o)
                                        0x6a3 (size before relaxing)
 .debug_str     0x000000000000bc6e       0xd1 ../FreeRTOS_bsp/\libfreertos_bsp.a(ip4.o)
                                        0x993 (size before relaxing)
 .debug_str     0x000000000000bd3f      0x27b ../FreeRTOS_bsp/\libfreertos_bsp.a(ip4_frag.o)
                                        0x96b (size before relaxing)
 .debug_str     0x000000000000bfba       0x42 ../FreeRTOS_bsp/\libfreertos_bsp.a(alt_busy_sleep.o)
                                        0x161 (size before relaxing)
 .debug_str     0x000000000000bffc       0x2c ../FreeRTOS_bsp/\libfreertos_bsp.a(alt_icache_flush.o)
                                        0x151 (size before relaxing)
 .debug_str     0x000000000000c028      0x2c7 ../FreeRTOS_bsp/\libfreertos_bsp.a(api_lib.o)
                                        0xc52 (size before relaxing)
 .debug_str     0x000000000000c2ef      0x32e ../FreeRTOS_bsp/\libfreertos_bsp.a(api_msg.o)
                                        0xf88 (size before relaxing)
 .debug_str     0x000000000000c61d       0x33 ../FreeRTOS_bsp/\libfreertos_bsp.a(err.o)
                                        0x160 (size before relaxing)
 .debug_str     0x000000000000c650       0x8f ../FreeRTOS_bsp/\libfreertos_bsp.a(netbuf.o)
                                        0x464 (size before relaxing)
 .debug_str     0x000000000000c6df       0x7e c:/altera/18.1/nios2eds/bin/gnu/h-x86_64-mingw32/bin/../lib/gcc/nios2-elf/5.3.0/../../../../../H-x86_64-mingw32/nios2-elf/lib\libc.a(lib_a-atexit.o)
                                        0x207 (size before relaxing)
 .debug_str     0x000000000000c75d       0x56 c:/altera/18.1/nios2eds/bin/gnu/h-x86_64-mingw32/bin/../lib/gcc/nios2-elf/5.3.0/../../../../../H-x86_64-mingw32/nios2-elf/lib\libc.a(lib_a-atoi.o)
                                        0x58e (size before relaxing)
 .debug_str     0x000000000000c7b3       0xcd c:/altera/18.1/nios2eds/bin/gnu/h-x86_64-mingw32/bin/../lib/gcc/nios2-elf/5.3.0/../../../../../H-x86_64-mingw32/nios2-elf/lib\libc.a(lib_a-ctype_.o)
                                        0x149 (size before relaxing)
 .debug_str     0x000000000000c880       0xc3 c:/altera/18.1/nios2eds/bin/gnu/h-x86_64-mingw32/bin/../lib/gcc/nios2-elf/5.3.0/../../../../../H-x86_64-mingw32/nios2-elf/lib\libc.a(lib_a-errno.o)
                                        0x583 (size before relaxing)
 .debug_str     0x000000000000c943       0x49 c:/altera/18.1/nios2eds/bin/gnu/h-x86_64-mingw32/bin/../lib/gcc/nios2-elf/5.3.0/../../../../../H-x86_64-mingw32/nios2-elf/lib\libc.a(lib_a-exit.o)
                                        0x5a4 (size before relaxing)
 .debug_str     0x000000000000c98c       0x41 c:/altera/18.1/nios2eds/bin/gnu/h-x86_64-mingw32/bin/../lib/gcc/nios2-elf/5.3.0/../../../../../H-x86_64-mingw32/nios2-elf/lib\libc.a(lib_a-malloc.o)
                                        0x5af (size before relaxing)
 .debug_str     0x000000000000c9cd       0x3a c:/altera/18.1/nios2eds/bin/gnu/h-x86_64-mingw32/bin/../lib/gcc/nios2-elf/5.3.0/../../../../../H-x86_64-mingw32/nios2-elf/lib\libc.a(lib_a-memcmp.o)
                                        0x1ca (size before relaxing)
 .debug_str     0x000000000000ca07       0x44 c:/altera/18.1/nios2eds/bin/gnu/h-x86_64-mingw32/bin/../lib/gcc/nios2-elf/5.3.0/../../../../../H-x86_64-mingw32/nios2-elf/lib\libc.a(lib_a-putc.o)
                                        0x5bb (size before relaxing)
 .debug_str     0x000000000000ca4b       0x44 c:/altera/18.1/nios2eds/bin/gnu/h-x86_64-mingw32/bin/../lib/gcc/nios2-elf/5.3.0/../../../../../H-x86_64-mingw32/nios2-elf/lib\libc.a(lib_a-puts.o)
                                        0x602 (size before relaxing)
 .debug_str     0x000000000000ca8f       0x68 c:/altera/18.1/nios2eds/bin/gnu/h-x86_64-mingw32/bin/../lib/gcc/nios2-elf/5.3.0/../../../../../H-x86_64-mingw32/nios2-elf/lib\libc.a(lib_a-snprintf.o)
                                        0x5e5 (size before relaxing)
 .debug_str     0x000000000000caf7       0x41 c:/altera/18.1/nios2eds/bin/gnu/h-x86_64-mingw32/bin/../lib/gcc/nios2-elf/5.3.0/../../../../../H-x86_64-mingw32/nios2-elf/lib\libc.a(lib_a-strcpy.o)
                                        0x1e5 (size before relaxing)
 .debug_str     0x000000000000cb38       0x43 c:/altera/18.1/nios2eds/bin/gnu/h-x86_64-mingw32/bin/../lib/gcc/nios2-elf/5.3.0/../../../../../H-x86_64-mingw32/nios2-elf/lib\libc.a(lib_a-strncmp.o)
                                        0x1cc (size before relaxing)
 .debug_str     0x000000000000cb7b       0x4f c:/altera/18.1/nios2eds/bin/gnu/h-x86_64-mingw32/bin/../lib/gcc/nios2-elf/5.3.0/../../../../../H-x86_64-mingw32/nios2-elf/lib\libc.a(lib_a-strtol.o)
                                        0x5c1 (size before relaxing)
 .debug_str     0x000000000000cbca        0xc c:/altera/18.1/nios2eds/bin/gnu/h-x86_64-mingw32/bin/../lib/gcc/nios2-elf/5.3.0/../../../../../H-x86_64-mingw32/nios2-elf/lib\libc.a(lib_a-svfprintf.o)
                                        0x7c5 (size before relaxing)
 .debug_str     0x000000000000cbd6       0x3c c:/altera/18.1/nios2eds/bin/gnu/h-x86_64-mingw32/bin/../lib/gcc/nios2-elf/5.3.0/../../../../../H-x86_64-mingw32/nios2-elf/lib\libc.a(lib_a-__atexit.o)
                                        0x5dc (size before relaxing)
 .debug_str     0x000000000000cc12       0x55 c:/altera/18.1/nios2eds/bin/gnu/h-x86_64-mingw32/bin/../lib/gcc/nios2-elf/5.3.0/../../../../../H-x86_64-mingw32/nios2-elf/lib\libc.a(lib_a-__call_atexit.o)
                                        0x5c8 (size before relaxing)
 .debug_str     0x000000000000cc67       0x19 c:/altera/18.1/nios2eds/bin/gnu/h-x86_64-mingw32/bin/../lib/gcc/nios2-elf/5.3.0/../../../../../H-x86_64-mingw32/nios2-elf/lib\libc.a(lib_a-svfiprintf.o)
                                        0x72a (size before relaxing)
 .debug_str     0x000000000000cc80       0x2a ../FreeRTOS_bsp/\libfreertos_bsp.a(alt_exit.o)
                                        0x147 (size before relaxing)

.debug_loc      0x0000000000000000    0x1d00f
 *(.debug_loc)
 .debug_loc     0x0000000000000000       0xd3 c:/altera/18.1/nios2eds/bin/gnu/h-x86_64-mingw32/bin/../lib/gcc/nios2-elf/5.3.0/../../../../../H-x86_64-mingw32/nios2-elf/lib\libc.a(lib_a-printf.o)
 .debug_loc     0x00000000000000d3     0x30cf c:/altera/18.1/nios2eds/bin/gnu/h-x86_64-mingw32/bin/../lib/gcc/nios2-elf/5.3.0/../../../../../H-x86_64-mingw32/nios2-elf/lib\libc.a(lib_a-vfprintf.o)
 .debug_loc     0x00000000000031a2       0xa2 c:/altera/18.1/nios2eds/bin/gnu/h-x86_64-mingw32/bin/../lib/gcc/nios2-elf/5.3.0/../../../../../H-x86_64-mingw32/nios2-elf/lib\libc.a(lib_a-wsetup.o)
 .debug_loc     0x0000000000003244     0x2855 c:/altera/18.1/nios2eds/bin/gnu/h-x86_64-mingw32/bin/../lib/gcc/nios2-elf/5.3.0/../../../../../H-x86_64-mingw32/nios2-elf/lib\libc.a(lib_a-dtoa.o)
 .debug_loc     0x0000000000005a99      0x36f c:/altera/18.1/nios2eds/bin/gnu/h-x86_64-mingw32/bin/../lib/gcc/nios2-elf/5.3.0/../../../../../H-x86_64-mingw32/nios2-elf/lib\libc.a(lib_a-fflush.o)
 .debug_loc     0x0000000000005e08      0x2ee c:/altera/18.1/nios2eds/bin/gnu/h-x86_64-mingw32/bin/../lib/gcc/nios2-elf/5.3.0/../../../../../H-x86_64-mingw32/nios2-elf/lib\libc.a(lib_a-findfp.o)
 .debug_loc     0x00000000000060f6      0x4e7 c:/altera/18.1/nios2eds/bin/gnu/h-x86_64-mingw32/bin/../lib/gcc/nios2-elf/5.3.0/../../../../../H-x86_64-mingw32/nios2-elf/lib\libc.a(lib_a-freer.o)
 .debug_loc     0x00000000000065dd      0x25b c:/altera/18.1/nios2eds/bin/gnu/h-x86_64-mingw32/bin/../lib/gcc/nios2-elf/5.3.0/../../../../../H-x86_64-mingw32/nios2-elf/lib\libc.a(lib_a-fwalk.o)
 .debug_loc     0x0000000000006838      0x131 c:/altera/18.1/nios2eds/bin/gnu/h-x86_64-mingw32/bin/../lib/gcc/nios2-elf/5.3.0/../../../../../H-x86_64-mingw32/nios2-elf/lib\libc.a(lib_a-locale.o)
 .debug_loc     0x0000000000006969      0x122 c:/altera/18.1/nios2eds/bin/gnu/h-x86_64-mingw32/bin/../lib/gcc/nios2-elf/5.3.0/../../../../../H-x86_64-mingw32/nios2-elf/lib\libc.a(lib_a-makebuf.o)
 .debug_loc     0x0000000000006a8b      0xb1b c:/altera/18.1/nios2eds/bin/gnu/h-x86_64-mingw32/bin/../lib/gcc/nios2-elf/5.3.0/../../../../../H-x86_64-mingw32/nios2-elf/lib\libc.a(lib_a-mallocr.o)
 .debug_loc     0x00000000000075a6      0x1a1 c:/altera/18.1/nios2eds/bin/gnu/h-x86_64-mingw32/bin/../lib/gcc/nios2-elf/5.3.0/../../../../../H-x86_64-mingw32/nios2-elf/lib\libc.a(lib_a-memchr.o)
 .debug_loc     0x0000000000007747      0x266 c:/altera/18.1/nios2eds/bin/gnu/h-x86_64-mingw32/bin/../lib/gcc/nios2-elf/5.3.0/../../../../../H-x86_64-mingw32/nios2-elf/lib\libc.a(lib_a-memcpy.o)
 .debug_loc     0x00000000000079ad      0x1a6 c:/altera/18.1/nios2eds/bin/gnu/h-x86_64-mingw32/bin/../lib/gcc/nios2-elf/5.3.0/../../../../../H-x86_64-mingw32/nios2-elf/lib\libc.a(lib_a-memset.o)
 .debug_loc     0x0000000000007b53     0x1bee c:/altera/18.1/nios2eds/bin/gnu/h-x86_64-mingw32/bin/../lib/gcc/nios2-elf/5.3.0/../../../../../H-x86_64-mingw32/nios2-elf/lib\libc.a(lib_a-mprec.o)
 .debug_loc     0x0000000000009741       0x2f c:/altera/18.1/nios2eds/bin/gnu/h-x86_64-mingw32/bin/../lib/gcc/nios2-elf/5.3.0/../../../../../H-x86_64-mingw32/nios2-elf/lib\libc.a(lib_a-s_fpclassify.o)
 .debug_loc     0x0000000000009770       0x58 c:/altera/18.1/nios2eds/bin/gnu/h-x86_64-mingw32/bin/../lib/gcc/nios2-elf/5.3.0/../../../../../H-x86_64-mingw32/nios2-elf/lib\libc.a(lib_a-sbrkr.o)
 .debug_loc     0x00000000000097c8      0x33a c:/altera/18.1/nios2eds/bin/gnu/h-x86_64-mingw32/bin/../lib/gcc/nios2-elf/5.3.0/../../../../../H-x86_64-mingw32/nios2-elf/lib\libc.a(lib_a-stdio.o)
 .debug_loc     0x0000000000009b02       0xc6 c:/altera/18.1/nios2eds/bin/gnu/h-x86_64-mingw32/bin/../lib/gcc/nios2-elf/5.3.0/../../../../../H-x86_64-mingw32/nios2-elf/lib\libc.a(lib_a-strcmp.o)
 .debug_loc     0x0000000000009bc8       0x47 c:/altera/18.1/nios2eds/bin/gnu/h-x86_64-mingw32/bin/../lib/gcc/nios2-elf/5.3.0/../../../../../H-x86_64-mingw32/nios2-elf/lib\libc.a(lib_a-strlen.o)
 .debug_loc     0x0000000000009c0f     0x2739 c:/altera/18.1/nios2eds/bin/gnu/h-x86_64-mingw32/bin/../lib/gcc/nios2-elf/5.3.0/../../../../../H-x86_64-mingw32/nios2-elf/lib\libc.a(lib_a-vfiprintf.o)
 .debug_loc     0x000000000000c348       0xb0 c:/altera/18.1/nios2eds/bin/gnu/h-x86_64-mingw32/bin/../lib/gcc/nios2-elf/5.3.0/../../../../../H-x86_64-mingw32/nios2-elf/lib\libc.a(lib_a-writer.o)
 .debug_loc     0x000000000000c3f8       0x58 c:/altera/18.1/nios2eds/bin/gnu/h-x86_64-mingw32/bin/../lib/gcc/nios2-elf/5.3.0/../../../../../H-x86_64-mingw32/nios2-elf/lib\libc.a(closer.o)
 .debug_loc     0x000000000000c450      0x1db c:/altera/18.1/nios2eds/bin/gnu/h-x86_64-mingw32/bin/../lib/gcc/nios2-elf/5.3.0/../../../../../H-x86_64-mingw32/nios2-elf/lib\libc.a(lib_a-callocr.o)
 .debug_loc     0x000000000000c62b      0x199 c:/altera/18.1/nios2eds/bin/gnu/h-x86_64-mingw32/bin/../lib/gcc/nios2-elf/5.3.0/../../../../../H-x86_64-mingw32/nios2-elf/lib\libc.a(lib_a-fclose.o)
 .debug_loc     0x000000000000c7c4      0x2a1 c:/altera/18.1/nios2eds/bin/gnu/h-x86_64-mingw32/bin/../lib/gcc/nios2-elf/5.3.0/../../../../../H-x86_64-mingw32/nios2-elf/lib\libc.a(lib_a-fputwc.o)
 .debug_loc     0x000000000000ca65       0x84 c:/altera/18.1/nios2eds/bin/gnu/h-x86_64-mingw32/bin/../lib/gcc/nios2-elf/5.3.0/../../../../../H-x86_64-mingw32/nios2-elf/lib\libc.a(lib_a-fstatr.o)
 .debug_loc     0x000000000000cae9      0x5d7 c:/altera/18.1/nios2eds/bin/gnu/h-x86_64-mingw32/bin/../lib/gcc/nios2-elf/5.3.0/../../../../../H-x86_64-mingw32/nios2-elf/lib\libc.a(lib_a-fvwrite.o)
 .debug_loc     0x000000000000d0c0       0x58 c:/altera/18.1/nios2eds/bin/gnu/h-x86_64-mingw32/bin/../lib/gcc/nios2-elf/5.3.0/../../../../../H-x86_64-mingw32/nios2-elf/lib\libc.a(lib_a-isattyr.o)
 .debug_loc     0x000000000000d118       0xb0 c:/altera/18.1/nios2eds/bin/gnu/h-x86_64-mingw32/bin/../lib/gcc/nios2-elf/5.3.0/../../../../../H-x86_64-mingw32/nios2-elf/lib\libc.a(lib_a-lseekr.o)
 .debug_loc     0x000000000000d1c8      0x308 c:/altera/18.1/nios2eds/bin/gnu/h-x86_64-mingw32/bin/../lib/gcc/nios2-elf/5.3.0/../../../../../H-x86_64-mingw32/nios2-elf/lib\libc.a(lib_a-memmove.o)
 .debug_loc     0x000000000000d4d0       0xb0 c:/altera/18.1/nios2eds/bin/gnu/h-x86_64-mingw32/bin/../lib/gcc/nios2-elf/5.3.0/../../../../../H-x86_64-mingw32/nios2-elf/lib\libc.a(lib_a-readr.o)
 .debug_loc     0x000000000000d580      0xde4 c:/altera/18.1/nios2eds/bin/gnu/h-x86_64-mingw32/bin/../lib/gcc/nios2-elf/5.3.0/../../../../../H-x86_64-mingw32/nios2-elf/lib\libc.a(lib_a-reallocr.o)
 .debug_loc     0x000000000000e364      0x1b2 c:/altera/18.1/nios2eds/bin/gnu/h-x86_64-mingw32/bin/../lib/gcc/nios2-elf/5.3.0/../../../../../H-x86_64-mingw32/nios2-elf/lib\libc.a(lib_a-wbuf.o)
 .debug_loc     0x000000000000e516      0x24e c:/altera/18.1/nios2eds/bin/gnu/h-x86_64-mingw32/bin/../lib/gcc/nios2-elf/5.3.0/../../../../../H-x86_64-mingw32/nios2-elf/lib\libc.a(lib_a-wcrtomb.o)
 .debug_loc     0x000000000000e764       0x8f c:/altera/18.1/nios2eds/bin/gnu/h-x86_64-mingw32/bin/../lib/gcc/nios2-elf/5.3.0/../../../../../H-x86_64-mingw32/nios2-elf/lib\libc.a(lib_a-wctomb_r.o)
 .debug_loc     0x000000000000e7f3     0x10ca c:/altera/18.1/nios2eds/bin/gnu/h-x86_64-mingw32/bin/../lib/gcc/nios2-elf/5.3.0\libgcc.a(_udivdi3.o)
 .debug_loc     0x000000000000f8bd     0x10ad c:/altera/18.1/nios2eds/bin/gnu/h-x86_64-mingw32/bin/../lib/gcc/nios2-elf/5.3.0\libgcc.a(_umoddi3.o)
 .debug_loc     0x000000000001096a      0x4ce c:/altera/18.1/nios2eds/bin/gnu/h-x86_64-mingw32/bin/../lib/gcc/nios2-elf/5.3.0\libgcc.a(lib2-divmod.o)
 .debug_loc     0x0000000000010e38     0x16f9 c:/altera/18.1/nios2eds/bin/gnu/h-x86_64-mingw32/bin/../lib/gcc/nios2-elf/5.3.0\libgcc.a(adddf3.o)
 .debug_loc     0x0000000000012531     0x1fc6 c:/altera/18.1/nios2eds/bin/gnu/h-x86_64-mingw32/bin/../lib/gcc/nios2-elf/5.3.0\libgcc.a(divdf3.o)
 .debug_loc     0x00000000000144f7       0x68 c:/altera/18.1/nios2eds/bin/gnu/h-x86_64-mingw32/bin/../lib/gcc/nios2-elf/5.3.0\libgcc.a(eqdf2.o)
 .debug_loc     0x000000000001455f       0xf9 c:/altera/18.1/nios2eds/bin/gnu/h-x86_64-mingw32/bin/../lib/gcc/nios2-elf/5.3.0\libgcc.a(gedf2.o)
 .debug_loc     0x0000000000014658      0x163 c:/altera/18.1/nios2eds/bin/gnu/h-x86_64-mingw32/bin/../lib/gcc/nios2-elf/5.3.0\libgcc.a(ledf2.o)
 .debug_loc     0x00000000000147bb     0x100d c:/altera/18.1/nios2eds/bin/gnu/h-x86_64-mingw32/bin/../lib/gcc/nios2-elf/5.3.0\libgcc.a(muldf3.o)
 .debug_loc     0x00000000000157c8     0x1627 c:/altera/18.1/nios2eds/bin/gnu/h-x86_64-mingw32/bin/../lib/gcc/nios2-elf/5.3.0\libgcc.a(subdf3.o)
 .debug_loc     0x0000000000016def      0x121 c:/altera/18.1/nios2eds/bin/gnu/h-x86_64-mingw32/bin/../lib/gcc/nios2-elf/5.3.0\libgcc.a(fixdfsi.o)
 .debug_loc     0x0000000000016f10      0x175 c:/altera/18.1/nios2eds/bin/gnu/h-x86_64-mingw32/bin/../lib/gcc/nios2-elf/5.3.0\libgcc.a(floatsidf.o)
 .debug_loc     0x0000000000017085      0x19e c:/altera/18.1/nios2eds/bin/gnu/h-x86_64-mingw32/bin/../lib/gcc/nios2-elf/5.3.0\libgcc.a(floatunsidf.o)
 .debug_loc     0x0000000000017223       0x6b c:/altera/18.1/nios2eds/bin/gnu/h-x86_64-mingw32/bin/../lib/gcc/nios2-elf/5.3.0\libgcc.a(_clzsi2.o)
 .debug_loc     0x000000000001728e       0x2c c:/altera/18.1/nios2eds/bin/gnu/h-x86_64-mingw32/bin/../lib/gcc/nios2-elf/5.3.0/../../../../../H-x86_64-mingw32/nios2-elf/lib\libc.a(lib_a-atexit.o)
 .debug_loc     0x00000000000172ba       0x63 c:/altera/18.1/nios2eds/bin/gnu/h-x86_64-mingw32/bin/../lib/gcc/nios2-elf/5.3.0/../../../../../H-x86_64-mingw32/nios2-elf/lib\libc.a(lib_a-atoi.o)
 .debug_loc     0x000000000001731d       0x1e c:/altera/18.1/nios2eds/bin/gnu/h-x86_64-mingw32/bin/../lib/gcc/nios2-elf/5.3.0/../../../../../H-x86_64-mingw32/nios2-elf/lib\libc.a(lib_a-exit.o)
 .debug_loc     0x000000000001733b       0x58 c:/altera/18.1/nios2eds/bin/gnu/h-x86_64-mingw32/bin/../lib/gcc/nios2-elf/5.3.0/../../../../../H-x86_64-mingw32/nios2-elf/lib\libc.a(lib_a-malloc.o)
 .debug_loc     0x0000000000017393      0x126 c:/altera/18.1/nios2eds/bin/gnu/h-x86_64-mingw32/bin/../lib/gcc/nios2-elf/5.3.0/../../../../../H-x86_64-mingw32/nios2-elf/lib\libc.a(lib_a-memcmp.o)
 .debug_loc     0x00000000000174b9      0x224 c:/altera/18.1/nios2eds/bin/gnu/h-x86_64-mingw32/bin/../lib/gcc/nios2-elf/5.3.0/../../../../../H-x86_64-mingw32/nios2-elf/lib\libc.a(lib_a-putc.o)
 .debug_loc     0x00000000000176dd      0x117 c:/altera/18.1/nios2eds/bin/gnu/h-x86_64-mingw32/bin/../lib/gcc/nios2-elf/5.3.0/../../../../../H-x86_64-mingw32/nios2-elf/lib\libc.a(lib_a-puts.o)
 .debug_loc     0x00000000000177f4      0x3a2 c:/altera/18.1/nios2eds/bin/gnu/h-x86_64-mingw32/bin/../lib/gcc/nios2-elf/5.3.0/../../../../../H-x86_64-mingw32/nios2-elf/lib\libc.a(lib_a-snprintf.o)
 .debug_loc     0x0000000000017b96       0xe8 c:/altera/18.1/nios2eds/bin/gnu/h-x86_64-mingw32/bin/../lib/gcc/nios2-elf/5.3.0/../../../../../H-x86_64-mingw32/nios2-elf/lib\libc.a(lib_a-strcpy.o)
 .debug_loc     0x0000000000017c7e       0x9c c:/altera/18.1/nios2eds/bin/gnu/h-x86_64-mingw32/bin/../lib/gcc/nios2-elf/5.3.0/../../../../../H-x86_64-mingw32/nios2-elf/lib\libc.a(lib_a-strncmp.o)
 .debug_loc     0x0000000000017d1a      0x3d1 c:/altera/18.1/nios2eds/bin/gnu/h-x86_64-mingw32/bin/../lib/gcc/nios2-elf/5.3.0/../../../../../H-x86_64-mingw32/nios2-elf/lib\libc.a(lib_a-strtol.o)
 .debug_loc     0x00000000000180eb     0x30a2 c:/altera/18.1/nios2eds/bin/gnu/h-x86_64-mingw32/bin/../lib/gcc/nios2-elf/5.3.0/../../../../../H-x86_64-mingw32/nios2-elf/lib\libc.a(lib_a-svfprintf.o)
 .debug_loc     0x000000000001b18d      0x185 c:/altera/18.1/nios2eds/bin/gnu/h-x86_64-mingw32/bin/../lib/gcc/nios2-elf/5.3.0/../../../../../H-x86_64-mingw32/nios2-elf/lib\libc.a(lib_a-__atexit.o)
 .debug_loc     0x000000000001b312      0x1ce c:/altera/18.1/nios2eds/bin/gnu/h-x86_64-mingw32/bin/../lib/gcc/nios2-elf/5.3.0/../../../../../H-x86_64-mingw32/nios2-elf/lib\libc.a(lib_a-__call_atexit.o)
 .debug_loc     0x000000000001b4e0     0x1b2f c:/altera/18.1/nios2eds/bin/gnu/h-x86_64-mingw32/bin/../lib/gcc/nios2-elf/5.3.0/../../../../../H-x86_64-mingw32/nios2-elf/lib\libc.a(lib_a-svfiprintf.o)

.debug_macinfo
 *(.debug_macinfo)

.debug_weaknames
 *(.debug_weaknames)

.debug_funcnames
 *(.debug_funcnames)

.debug_typenames
 *(.debug_typenames)

.debug_varnames
 *(.debug_varnames)

.debug_alt_sim_info
                0x0000000000000000       0x50
 *(.debug_alt_sim_info)
 .debug_alt_sim_info
                0x0000000000000000       0x20 ../FreeRTOS_bsp//obj/HAL/src/crt0.o
 .debug_alt_sim_info
                0x0000000000000020       0x30 ../FreeRTOS_bsp/\libfreertos_bsp.a(alt_busy_sleep.o)
                0x0000000004000000                __alt_data_end = 0x4000000
                0x0000000004000000                PROVIDE (__alt_stack_pointer, __alt_data_end)
                [!provide]                        PROVIDE (__alt_stack_limit, __alt_stack_base)
                0x000000000216f920                PROVIDE (__alt_heap_start, end)
                0x0000000004000000                PROVIDE (__alt_heap_limit, 0x4000000)
OUTPUT(FreeRTOS.elf elf32-littlenios2)

.debug_ranges   0x0000000000000000     0x1cd8
 .debug_ranges  0x0000000000000000       0x20 ../FreeRTOS_bsp//obj/HAL/src/crt0.o
 .debug_ranges  0x0000000000000020       0x18 c:/altera/18.1/nios2eds/bin/gnu/h-x86_64-mingw32/bin/../lib/gcc/nios2-elf/5.3.0/../../../../../H-x86_64-mingw32/nios2-elf/lib\libc.a(lib_a-printf.o)
 .debug_ranges  0x0000000000000038      0x178 c:/altera/18.1/nios2eds/bin/gnu/h-x86_64-mingw32/bin/../lib/gcc/nios2-elf/5.3.0/../../../../../H-x86_64-mingw32/nios2-elf/lib\libc.a(lib_a-vfprintf.o)
 .debug_ranges  0x00000000000001b0       0x40 c:/altera/18.1/nios2eds/bin/gnu/h-x86_64-mingw32/bin/../lib/gcc/nios2-elf/5.3.0/../../../../../H-x86_64-mingw32/nios2-elf/lib\libc.a(lib_a-wsetup.o)
 .debug_ranges  0x00000000000001f0       0x18 c:/altera/18.1/nios2eds/bin/gnu/h-x86_64-mingw32/bin/../lib/gcc/nios2-elf/5.3.0/../../../../../H-x86_64-mingw32/nios2-elf/lib\libc.a(lib_a-dtoa.o)
 .debug_ranges  0x0000000000000208       0x58 c:/altera/18.1/nios2eds/bin/gnu/h-x86_64-mingw32/bin/../lib/gcc/nios2-elf/5.3.0/../../../../../H-x86_64-mingw32/nios2-elf/lib\libc.a(lib_a-fflush.o)
 .debug_ranges  0x0000000000000260       0xc8 c:/altera/18.1/nios2eds/bin/gnu/h-x86_64-mingw32/bin/../lib/gcc/nios2-elf/5.3.0/../../../../../H-x86_64-mingw32/nios2-elf/lib\libc.a(lib_a-findfp.o)
 .debug_ranges  0x0000000000000328       0x18 c:/altera/18.1/nios2eds/bin/gnu/h-x86_64-mingw32/bin/../lib/gcc/nios2-elf/5.3.0/../../../../../H-x86_64-mingw32/nios2-elf/lib\libc.a(lib_a-freer.o)
 .debug_ranges  0x0000000000000340       0x18 c:/altera/18.1/nios2eds/bin/gnu/h-x86_64-mingw32/bin/../lib/gcc/nios2-elf/5.3.0/../../../../../H-x86_64-mingw32/nios2-elf/lib\libc.a(lib_a-fwalk.o)
 .debug_ranges  0x0000000000000358       0x60 c:/altera/18.1/nios2eds/bin/gnu/h-x86_64-mingw32/bin/../lib/gcc/nios2-elf/5.3.0/../../../../../H-x86_64-mingw32/nios2-elf/lib\libc.a(lib_a-locale.o)
 .debug_ranges  0x00000000000003b8       0x10 c:/altera/18.1/nios2eds/bin/gnu/h-x86_64-mingw32/bin/../lib/gcc/nios2-elf/5.3.0/../../../../../H-x86_64-mingw32/nios2-elf/lib\libc.a(lib_a-makebuf.o)
 .debug_ranges  0x00000000000003c8       0x48 c:/altera/18.1/nios2eds/bin/gnu/h-x86_64-mingw32/bin/../lib/gcc/nios2-elf/5.3.0/../../../../../H-x86_64-mingw32/nios2-elf/lib\libc.a(lib_a-mallocr.o)
 .debug_ranges  0x0000000000000410       0x10 c:/altera/18.1/nios2eds/bin/gnu/h-x86_64-mingw32/bin/../lib/gcc/nios2-elf/5.3.0/../../../../../H-x86_64-mingw32/nios2-elf/lib\libc.a(lib_a-memchr.o)
 .debug_ranges  0x0000000000000420       0x10 c:/altera/18.1/nios2eds/bin/gnu/h-x86_64-mingw32/bin/../lib/gcc/nios2-elf/5.3.0/../../../../../H-x86_64-mingw32/nios2-elf/lib\libc.a(lib_a-memcpy.o)
 .debug_ranges  0x0000000000000430       0x10 c:/altera/18.1/nios2eds/bin/gnu/h-x86_64-mingw32/bin/../lib/gcc/nios2-elf/5.3.0/../../../../../H-x86_64-mingw32/nios2-elf/lib\libc.a(lib_a-memset.o)
 .debug_ranges  0x0000000000000440       0xe8 c:/altera/18.1/nios2eds/bin/gnu/h-x86_64-mingw32/bin/../lib/gcc/nios2-elf/5.3.0/../../../../../H-x86_64-mingw32/nios2-elf/lib\libc.a(lib_a-mprec.o)
 .debug_ranges  0x0000000000000528       0x10 c:/altera/18.1/nios2eds/bin/gnu/h-x86_64-mingw32/bin/../lib/gcc/nios2-elf/5.3.0/../../../../../H-x86_64-mingw32/nios2-elf/lib\libc.a(lib_a-s_fpclassify.o)
 .debug_ranges  0x0000000000000538       0x10 c:/altera/18.1/nios2eds/bin/gnu/h-x86_64-mingw32/bin/../lib/gcc/nios2-elf/5.3.0/../../../../../H-x86_64-mingw32/nios2-elf/lib\libc.a(lib_a-sbrkr.o)
 .debug_ranges  0x0000000000000548       0x30 c:/altera/18.1/nios2eds/bin/gnu/h-x86_64-mingw32/bin/../lib/gcc/nios2-elf/5.3.0/../../../../../H-x86_64-mingw32/nios2-elf/lib\libc.a(lib_a-stdio.o)
 .debug_ranges  0x0000000000000578       0x10 c:/altera/18.1/nios2eds/bin/gnu/h-x86_64-mingw32/bin/../lib/gcc/nios2-elf/5.3.0/../../../../../H-x86_64-mingw32/nios2-elf/lib\libc.a(lib_a-strcmp.o)
 .debug_ranges  0x0000000000000588       0x10 c:/altera/18.1/nios2eds/bin/gnu/h-x86_64-mingw32/bin/../lib/gcc/nios2-elf/5.3.0/../../../../../H-x86_64-mingw32/nios2-elf/lib\libc.a(lib_a-strlen.o)
 .debug_ranges  0x0000000000000598      0x1b8 c:/altera/18.1/nios2eds/bin/gnu/h-x86_64-mingw32/bin/../lib/gcc/nios2-elf/5.3.0/../../../../../H-x86_64-mingw32/nios2-elf/lib\libc.a(lib_a-vfiprintf.o)
 .debug_ranges  0x0000000000000750       0x10 c:/altera/18.1/nios2eds/bin/gnu/h-x86_64-mingw32/bin/../lib/gcc/nios2-elf/5.3.0/../../../../../H-x86_64-mingw32/nios2-elf/lib\libc.a(lib_a-writer.o)
 .debug_ranges  0x0000000000000760       0x10 c:/altera/18.1/nios2eds/bin/gnu/h-x86_64-mingw32/bin/../lib/gcc/nios2-elf/5.3.0/../../../../../H-x86_64-mingw32/nios2-elf/lib\libc.a(closer.o)
 .debug_ranges  0x0000000000000770       0x48 c:/altera/18.1/nios2eds/bin/gnu/h-x86_64-mingw32/bin/../lib/gcc/nios2-elf/5.3.0/../../../../../H-x86_64-mingw32/nios2-elf/lib\libc.a(lib_a-callocr.o)
 .debug_ranges  0x00000000000007b8       0x48 c:/altera/18.1/nios2eds/bin/gnu/h-x86_64-mingw32/bin/../lib/gcc/nios2-elf/5.3.0/../../../../../H-x86_64-mingw32/nios2-elf/lib\libc.a(lib_a-fclose.o)
 .debug_ranges  0x0000000000000800       0x50 c:/altera/18.1/nios2eds/bin/gnu/h-x86_64-mingw32/bin/../lib/gcc/nios2-elf/5.3.0/../../../../../H-x86_64-mingw32/nios2-elf/lib\libc.a(lib_a-fputwc.o)
 .debug_ranges  0x0000000000000850       0x10 c:/altera/18.1/nios2eds/bin/gnu/h-x86_64-mingw32/bin/../lib/gcc/nios2-elf/5.3.0/../../../../../H-x86_64-mingw32/nios2-elf/lib\libc.a(lib_a-fstatr.o)
 .debug_ranges  0x0000000000000860       0x30 c:/altera/18.1/nios2eds/bin/gnu/h-x86_64-mingw32/bin/../lib/gcc/nios2-elf/5.3.0/../../../../../H-x86_64-mingw32/nios2-elf/lib\libc.a(lib_a-fvwrite.o)
 .debug_ranges  0x0000000000000890       0x10 c:/altera/18.1/nios2eds/bin/gnu/h-x86_64-mingw32/bin/../lib/gcc/nios2-elf/5.3.0/../../../../../H-x86_64-mingw32/nios2-elf/lib\libc.a(lib_a-isattyr.o)
 .debug_ranges  0x00000000000008a0       0x10 c:/altera/18.1/nios2eds/bin/gnu/h-x86_64-mingw32/bin/../lib/gcc/nios2-elf/5.3.0/../../../../../H-x86_64-mingw32/nios2-elf/lib\libc.a(lib_a-lseekr.o)
 .debug_ranges  0x00000000000008b0       0x10 c:/altera/18.1/nios2eds/bin/gnu/h-x86_64-mingw32/bin/../lib/gcc/nios2-elf/5.3.0/../../../../../H-x86_64-mingw32/nios2-elf/lib\libc.a(lib_a-memmove.o)
 .debug_ranges  0x00000000000008c0       0x10 c:/altera/18.1/nios2eds/bin/gnu/h-x86_64-mingw32/bin/../lib/gcc/nios2-elf/5.3.0/../../../../../H-x86_64-mingw32/nios2-elf/lib\libc.a(lib_a-readr.o)
 .debug_ranges  0x00000000000008d0      0x148 c:/altera/18.1/nios2eds/bin/gnu/h-x86_64-mingw32/bin/../lib/gcc/nios2-elf/5.3.0/../../../../../H-x86_64-mingw32/nios2-elf/lib\libc.a(lib_a-reallocr.o)
 .debug_ranges  0x0000000000000a18       0x30 c:/altera/18.1/nios2eds/bin/gnu/h-x86_64-mingw32/bin/../lib/gcc/nios2-elf/5.3.0/../../../../../H-x86_64-mingw32/nios2-elf/lib\libc.a(lib_a-wbuf.o)
 .debug_ranges  0x0000000000000a48       0x18 c:/altera/18.1/nios2eds/bin/gnu/h-x86_64-mingw32/bin/../lib/gcc/nios2-elf/5.3.0/../../../../../H-x86_64-mingw32/nios2-elf/lib\libc.a(lib_a-wcrtomb.o)
 .debug_ranges  0x0000000000000a60       0x18 c:/altera/18.1/nios2eds/bin/gnu/h-x86_64-mingw32/bin/../lib/gcc/nios2-elf/5.3.0/../../../../../H-x86_64-mingw32/nios2-elf/lib\libc.a(lib_a-wctomb_r.o)
 .debug_ranges  0x0000000000000a78      0x158 c:/altera/18.1/nios2eds/bin/gnu/h-x86_64-mingw32/bin/../lib/gcc/nios2-elf/5.3.0\libgcc.a(_udivdi3.o)
 .debug_ranges  0x0000000000000bd0      0x160 c:/altera/18.1/nios2eds/bin/gnu/h-x86_64-mingw32/bin/../lib/gcc/nios2-elf/5.3.0\libgcc.a(_umoddi3.o)
 .debug_ranges  0x0000000000000d30       0x60 c:/altera/18.1/nios2eds/bin/gnu/h-x86_64-mingw32/bin/../lib/gcc/nios2-elf/5.3.0\libgcc.a(lib2-divmod.o)
 .debug_ranges  0x0000000000000d90      0x240 c:/altera/18.1/nios2eds/bin/gnu/h-x86_64-mingw32/bin/../lib/gcc/nios2-elf/5.3.0\libgcc.a(adddf3.o)
 .debug_ranges  0x0000000000000fd0      0x138 c:/altera/18.1/nios2eds/bin/gnu/h-x86_64-mingw32/bin/../lib/gcc/nios2-elf/5.3.0\libgcc.a(divdf3.o)
 .debug_ranges  0x0000000000001108       0x48 c:/altera/18.1/nios2eds/bin/gnu/h-x86_64-mingw32/bin/../lib/gcc/nios2-elf/5.3.0\libgcc.a(eqdf2.o)
 .debug_ranges  0x0000000000001150       0x88 c:/altera/18.1/nios2eds/bin/gnu/h-x86_64-mingw32/bin/../lib/gcc/nios2-elf/5.3.0\libgcc.a(gedf2.o)
 .debug_ranges  0x00000000000011d8       0xa8 c:/altera/18.1/nios2eds/bin/gnu/h-x86_64-mingw32/bin/../lib/gcc/nios2-elf/5.3.0\libgcc.a(ledf2.o)
 .debug_ranges  0x0000000000001280      0x1f0 c:/altera/18.1/nios2eds/bin/gnu/h-x86_64-mingw32/bin/../lib/gcc/nios2-elf/5.3.0\libgcc.a(muldf3.o)
 .debug_ranges  0x0000000000001470      0x268 c:/altera/18.1/nios2eds/bin/gnu/h-x86_64-mingw32/bin/../lib/gcc/nios2-elf/5.3.0\libgcc.a(subdf3.o)
 .debug_ranges  0x00000000000016d8       0x30 c:/altera/18.1/nios2eds/bin/gnu/h-x86_64-mingw32/bin/../lib/gcc/nios2-elf/5.3.0\libgcc.a(fixdfsi.o)
 .debug_ranges  0x0000000000001708       0x20 c:/altera/18.1/nios2eds/bin/gnu/h-x86_64-mingw32/bin/../lib/gcc/nios2-elf/5.3.0\libgcc.a(floatsidf.o)
 .debug_ranges  0x0000000000001728       0x18 c:/altera/18.1/nios2eds/bin/gnu/h-x86_64-mingw32/bin/../lib/gcc/nios2-elf/5.3.0\libgcc.a(floatunsidf.o)
 .debug_ranges  0x0000000000001740       0x18 c:/altera/18.1/nios2eds/bin/gnu/h-x86_64-mingw32/bin/../lib/gcc/nios2-elf/5.3.0\libgcc.a(_clzsi2.o)
 .debug_ranges  0x0000000000001758       0x30 ../FreeRTOS_bsp/\libfreertos_bsp.a(lwip_main.o)
 .debug_ranges  0x0000000000001788       0x90 ../FreeRTOS_bsp/\libfreertos_bsp.a(tcp_in.o)
 .debug_ranges  0x0000000000001818       0x78 ../FreeRTOS_bsp/\libfreertos_bsp.a(tcp_out.o)
 .debug_ranges  0x0000000000001890       0x18 ../FreeRTOS_bsp/\libfreertos_bsp.a(timeouts.o)
 .debug_ranges  0x00000000000018a8       0x30 ../FreeRTOS_bsp/\libfreertos_bsp.a(altera_avalon_jtag_uart_init.o)
 .debug_ranges  0x00000000000018d8       0x18 ../FreeRTOS_bsp/\libfreertos_bsp.a(altera_avalon_jtag_uart_read.o)
 .debug_ranges  0x00000000000018f0       0x38 ../FreeRTOS_bsp/\libfreertos_bsp.a(port_asm.o)
 .debug_ranges  0x0000000000001928       0x10 ../FreeRTOS_bsp/\libfreertos_bsp.a(alt_irq_handler.o)
 .debug_ranges  0x0000000000001938       0x48 ../FreeRTOS_bsp/\libfreertos_bsp.a(sockets.o)
 .debug_ranges  0x0000000000001980       0x18 ../FreeRTOS_bsp/\libfreertos_bsp.a(icmp.o)
 .debug_ranges  0x0000000000001998       0x18 ../FreeRTOS_bsp/\libfreertos_bsp.a(api_msg.o)
 .debug_ranges  0x00000000000019b0       0x10 c:/altera/18.1/nios2eds/bin/gnu/h-x86_64-mingw32/bin/../lib/gcc/nios2-elf/5.3.0/../../../../../H-x86_64-mingw32/nios2-elf/lib\libc.a(lib_a-atexit.o)
 .debug_ranges  0x00000000000019c0       0x18 c:/altera/18.1/nios2eds/bin/gnu/h-x86_64-mingw32/bin/../lib/gcc/nios2-elf/5.3.0/../../../../../H-x86_64-mingw32/nios2-elf/lib\libc.a(lib_a-atoi.o)
 .debug_ranges  0x00000000000019d8       0x10 c:/altera/18.1/nios2eds/bin/gnu/h-x86_64-mingw32/bin/../lib/gcc/nios2-elf/5.3.0/../../../../../H-x86_64-mingw32/nios2-elf/lib\libc.a(lib_a-errno.o)
 .debug_ranges  0x00000000000019e8       0x10 c:/altera/18.1/nios2eds/bin/gnu/h-x86_64-mingw32/bin/../lib/gcc/nios2-elf/5.3.0/../../../../../H-x86_64-mingw32/nios2-elf/lib\libc.a(lib_a-exit.o)
 .debug_ranges  0x00000000000019f8       0x18 c:/altera/18.1/nios2eds/bin/gnu/h-x86_64-mingw32/bin/../lib/gcc/nios2-elf/5.3.0/../../../../../H-x86_64-mingw32/nios2-elf/lib\libc.a(lib_a-malloc.o)
 .debug_ranges  0x0000000000001a10       0x10 c:/altera/18.1/nios2eds/bin/gnu/h-x86_64-mingw32/bin/../lib/gcc/nios2-elf/5.3.0/../../../../../H-x86_64-mingw32/nios2-elf/lib\libc.a(lib_a-memcmp.o)
 .debug_ranges  0x0000000000001a20       0x48 c:/altera/18.1/nios2eds/bin/gnu/h-x86_64-mingw32/bin/../lib/gcc/nios2-elf/5.3.0/../../../../../H-x86_64-mingw32/nios2-elf/lib\libc.a(lib_a-putc.o)
 .debug_ranges  0x0000000000001a68       0x30 c:/altera/18.1/nios2eds/bin/gnu/h-x86_64-mingw32/bin/../lib/gcc/nios2-elf/5.3.0/../../../../../H-x86_64-mingw32/nios2-elf/lib\libc.a(lib_a-puts.o)
 .debug_ranges  0x0000000000001a98       0x18 c:/altera/18.1/nios2eds/bin/gnu/h-x86_64-mingw32/bin/../lib/gcc/nios2-elf/5.3.0/../../../../../H-x86_64-mingw32/nios2-elf/lib\libc.a(lib_a-snprintf.o)
 .debug_ranges  0x0000000000001ab0       0x10 c:/altera/18.1/nios2eds/bin/gnu/h-x86_64-mingw32/bin/../lib/gcc/nios2-elf/5.3.0/../../../../../H-x86_64-mingw32/nios2-elf/lib\libc.a(lib_a-strcpy.o)
 .debug_ranges  0x0000000000001ac0       0x10 c:/altera/18.1/nios2eds/bin/gnu/h-x86_64-mingw32/bin/../lib/gcc/nios2-elf/5.3.0/../../../../../H-x86_64-mingw32/nios2-elf/lib\libc.a(lib_a-strncmp.o)
 .debug_ranges  0x0000000000001ad0       0x18 c:/altera/18.1/nios2eds/bin/gnu/h-x86_64-mingw32/bin/../lib/gcc/nios2-elf/5.3.0/../../../../../H-x86_64-mingw32/nios2-elf/lib\libc.a(lib_a-strtol.o)
 .debug_ranges  0x0000000000001ae8      0x158 c:/altera/18.1/nios2eds/bin/gnu/h-x86_64-mingw32/bin/../lib/gcc/nios2-elf/5.3.0/../../../../../H-x86_64-mingw32/nios2-elf/lib\libc.a(lib_a-svfprintf.o)
 .debug_ranges  0x0000000000001c40       0x10 c:/altera/18.1/nios2eds/bin/gnu/h-x86_64-mingw32/bin/../lib/gcc/nios2-elf/5.3.0/../../../../../H-x86_64-mingw32/nios2-elf/lib\libc.a(lib_a-__atexit.o)
 .debug_ranges  0x0000000000001c50       0x30 c:/altera/18.1/nios2eds/bin/gnu/h-x86_64-mingw32/bin/../lib/gcc/nios2-elf/5.3.0/../../../../../H-x86_64-mingw32/nios2-elf/lib\libc.a(lib_a-__call_atexit.o)
 .debug_ranges  0x0000000000001c80       0x58 c:/altera/18.1/nios2eds/bin/gnu/h-x86_64-mingw32/bin/../lib/gcc/nios2-elf/5.3.0/../../../../../H-x86_64-mingw32/nios2-elf/lib\libc.a(lib_a-svfiprintf.o)
